
Glass_Cracker.elf:     file format elf32-littleriscv
Glass_Cracker.elf
architecture: riscv:rv32, flags 0x00000112:
EXEC_P, HAS_SYMS, D_PAGED
start address 0x00000000

Program Header:
    LOAD off    0x00001000 vaddr 0x00000000 paddr 0x00000000 align 2**12
         filesz 0x000092f0 memsz 0x000092f0 flags r-x
    LOAD off    0x0000b000 vaddr 0x20000000 paddr 0x000092f0 align 2**12
         filesz 0x00000098 memsz 0x0000010c flags rw-
    LOAD off    0x0000b800 vaddr 0x20007800 paddr 0x20007800 align 2**12
         filesz 0x00000000 memsz 0x00000800 flags rw-

Sections:
Idx Name          Size      VMA       LMA       File off  Algn
  0 .init         00000038  00000000  00000000  00001000  2**1
                  CONTENTS, ALLOC, LOAD, READONLY, CODE
  1 .vector       000001c8  00000038  00000038  00001038  2**1
                  CONTENTS, ALLOC, LOAD, READONLY, CODE
  2 .text         000090f0  00000200  00000200  00001200  2**3
                  CONTENTS, ALLOC, LOAD, READONLY, CODE
  3 .fini         00000000  000092f0  000092f0  0000b098  2**0
                  CONTENTS, ALLOC, LOAD, CODE
  4 .dalign       00000000  20000000  20000000  0000b098  2**0
                  CONTENTS
  5 .dlalign      00000000  000092f0  000092f0  0000b098  2**0
                  CONTENTS
  6 .data         00000098  20000000  000092f0  0000b000  2**2
                  CONTENTS, ALLOC, LOAD, DATA
  7 .bss          00000074  20000098  00009388  0000b098  2**2
                  ALLOC
  8 .stack        00000800  20007800  20007800  0000b800  2**0
                  ALLOC
  9 .debug_info   00017ef5  00000000  00000000  0000b098  2**0
                  CONTENTS, READONLY, DEBUGGING
 10 .debug_abbrev 00003c2a  00000000  00000000  00022f8d  2**0
                  CONTENTS, READONLY, DEBUGGING
 11 .debug_aranges 00000c80  00000000  00000000  00026bb8  2**3
                  CONTENTS, READONLY, DEBUGGING
 12 .debug_ranges 00000d20  00000000  00000000  00027838  2**3
                  CONTENTS, READONLY, DEBUGGING
 13 .debug_line   00012bc5  00000000  00000000  00028558  2**0
                  CONTENTS, READONLY, DEBUGGING
 14 .debug_str    00003e67  00000000  00000000  0003b11d  2**0
                  CONTENTS, READONLY, DEBUGGING
 15 .comment      00000033  00000000  00000000  0003ef84  2**0
                  CONTENTS, READONLY
 16 .debug_frame  00002b6c  00000000  00000000  0003efb8  2**2
                  CONTENTS, READONLY, DEBUGGING
 17 .debug_loc    0000716d  00000000  00000000  00041b24  2**0
                  CONTENTS, READONLY, DEBUGGING
 18 .stab         00000084  00000000  00000000  00048c94  2**2
                  CONTENTS, READONLY, DEBUGGING
 19 .stabstr      00000117  00000000  00000000  00048d18  2**0
                  CONTENTS, READONLY, DEBUGGING
SYMBOL TABLE:
00000000 l    d  .init	00000000 .init
00000038 l    d  .vector	00000000 .vector
00000200 l    d  .text	00000000 .text
000092f0 l    d  .fini	00000000 .fini
20000000 l    d  .dalign	00000000 .dalign
000092f0 l    d  .dlalign	00000000 .dlalign
20000000 l    d  .data	00000000 .data
20000098 l    d  .bss	00000000 .bss
20007800 l    d  .stack	00000000 .stack
00000000 l    d  .debug_info	00000000 .debug_info
00000000 l    d  .debug_abbrev	00000000 .debug_abbrev
00000000 l    d  .debug_aranges	00000000 .debug_aranges
00000000 l    d  .debug_ranges	00000000 .debug_ranges
00000000 l    d  .debug_line	00000000 .debug_line
00000000 l    d  .debug_str	00000000 .debug_str
00000000 l    d  .comment	00000000 .comment
00000000 l    d  .debug_frame	00000000 .debug_frame
00000000 l    d  .debug_loc	00000000 .debug_loc
00000000 l    d  .stab	00000000 .stab
00000000 l    d  .stabstr	00000000 .stabstr
00000000 l    df *ABS*	00000000 ./Startup/startup_ch32v30x_D8C.o
00000038 l       .vector	00000000 _vector_base
00000000 l    df *ABS*	00000000 ch32v30x_it.c
00000000 l    df *ABS*	00000000 gpio.c
00000000 l    df *ABS*	00000000 i2c.c
00000000 l    df *ABS*	00000000 imu_mpu6050.c
00000000 l    df *ABS*	00000000 lcd_st7789.c
00000000 l    df *ABS*	00000000 main.c
00000000 l    df *ABS*	00000000 ov.c
00000000 l    df *ABS*	00000000 system_ch32v30x.c
00000000 l    df *ABS*	00000000 timer.c
00000000 l    df *ABS*	00000000 ch32v30x_dma.c
00000000 l    df *ABS*	00000000 ch32v30x_exti.c
00000000 l    df *ABS*	00000000 ch32v30x_fsmc.c
00000000 l    df *ABS*	00000000 ch32v30x_gpio.c
00000000 l    df *ABS*	00000000 ch32v30x_i2c.c
00000000 l    df *ABS*	00000000 ch32v30x_misc.c
00000000 l    df *ABS*	00000000 ch32v30x_rcc.c
20000000 l     O .data	00000010 APBAHBPrescTable
20000088 l     O .data	00000004 ADCPrescTable
00000000 l    df *ABS*	00000000 ch32v30x_tim.c
00000000 l    df *ABS*	00000000 ch32v30x_usart.c
00000000 l    df *ABS*	00000000 debug.c
200000b4 l     O .bss	00000002 p_ms
200000b6 l     O .bss	00000001 p_us
2000008c l     O .data	00000004 curbrk.5226
00000000 l    df *ABS*	00000000 adddf3.c
00000000 l    df *ABS*	00000000 muldf3.c
00000000 l    df *ABS*	00000000 addsf3.c
00000000 l    df *ABS*	00000000 gesf2.c
00000000 l    df *ABS*	00000000 mulsf3.c
00000000 l    df *ABS*	00000000 fixsfsi.c
00000000 l    df *ABS*	00000000 floatsisf.c
00000000 l    df *ABS*	00000000 extendsfdf2.c
00000000 l    df *ABS*	00000000 truncdfsf2.c
00000000 l    df *ABS*	00000000 libgcc2.c
00000000 l    df *ABS*	00000000 printf.c
00000000 l    df *ABS*	00000000 puts.c
00000000 l    df *ABS*	00000000 vsnprintf.c
00000000 l    df *ABS*	00000000 wbuf.c
00000000 l    df *ABS*	00000000 wsetup.c
00000000 l    df *ABS*	00000000 fflush.c
00000000 l    df *ABS*	00000000 findfp.c
00004bb8 l     F .text	0000006a std
00000000 l    df *ABS*	00000000 fwalk.c
00000000 l    df *ABS*	00000000 makebuf.c
00000000 l    df *ABS*	00000000 nano-mallocr.c
00000000 l    df *ABS*	00000000 nano-mallocr.c
00000000 l    df *ABS*	00000000 nano-vfprintf.c
00000000 l    df *ABS*	00000000 nano-vfprintf.c
000053d4 l     F .text	0000002a __sfputc_r
00000000 l    df *ABS*	00000000 nano-vfprintf_i.c
00000000 l    df *ABS*	00000000 sbrkr.c
00000000 l    df *ABS*	00000000 stdio.c
00000000 l    df *ABS*	00000000 writer.c
00000000 l    df *ABS*	00000000 closer.c
00000000 l    df *ABS*	00000000 fstatr.c
00000000 l    df *ABS*	00000000 isattyr.c
00000000 l    df *ABS*	00000000 lseekr.c
00000000 l    df *ABS*	00000000 memchr.c
00000000 l    df *ABS*	00000000 memcpy.c
00000000 l    df *ABS*	00000000 memmove.c
00000000 l    df *ABS*	00000000 mlock.c
00000000 l    df *ABS*	00000000 nano-mallocr.c
00000000 l    df *ABS*	00000000 readr.c
00000000 l    df *ABS*	00000000 nano-mallocr.c
00000000 l    df *ABS*	00000000 close.c
00000000 l    df *ABS*	00000000 fstat.c
00000000 l    df *ABS*	00000000 isatty.c
00000000 l    df *ABS*	00000000 lseek.c
00000000 l    df *ABS*	00000000 read.c
00000000 l    df *ABS*	00000000 libgcc2.c
00000000 l    df *ABS*	00000000 impure.c
20000010 l     O .data	00000060 impure_data
00000000 l    df *ABS*	00000000 reent.c
00005dee g     F .text	00000014 _malloc_usable_size_r
000022d0  w      .text	00000000 EXTI2_IRQHandler
0000231a  w      .text	00000000 TIM8_TRG_COM_IRQHandler
00001c18 g     F .text	000000c2 SCCB_WR_Byte
0000231c  w      .text	00000000 TIM8_CC_IRQHandler
200000a8 g     O .bss	00000004 href_cnt
00005bf8 g     F .text	00000028 _isatty_r
00000f5a g     F .text	0000038e LCD_ShowChar
000046f4 g     F .text	000000da _puts_r
00005c20 g     F .text	0000002c _lseek_r
0000202c g     F .text	0000003a OV2640_Speed_Set
200000c0 g     O .bss	0000000c acc
0000259e g     F .text	00000014 DMA_Cmd
00002e26 g     F .text	00000006 TIM_SetCompare2
00002352  w      .text	00000000 UART8_IRQHandler
0000081c g     F .text	00000010 IMU_SetGyroFsr
2000009a g     O .bss	00000002 BACK_COLOR
00001dc8 g     F .text	00000052 SCCB_RD_Reg
000046b4 g     F .text	00000040 printf
20000870 g       .data	00000000 __global_pointer$
000022f6  w      .text	00000000 TIM1_CC_IRQHandler
0000298a g     F .text	0000000a I2C_ReceiveData
00005b3c g     F .text	00000036 __sseek
00004c72 g     F .text	0000006c __sinit
0000484a g     F .text	000000c0 __swbuf_r
000002ac g     F .text	00000002 HardFault_Handler
00004c2c g     F .text	00000046 __sfmoreglue
000008a2 g     F .text	00000110 IMU_ReadByte
200000cc g     O .bss	00000004 acc_total_100x
00000a52 g     F .text	0000001a LCD_ReadData
00005d68 g     F .text	00000002 __malloc_unlock
0000227c g     F .text	0000001e TIM6_IRQHandler
000022bc  w      .text	00000000 SysTick_Handler
000002ae g     F .text	00000072 Button_INT_Init
000029fa g     F .text	000000b8 NVIC_Init
200000d0 g     O .bss	00000004 raw_acc_total
000022c2  w      .text	00000000 PVD_IRQHandler
00002322  w      .text	00000000 SDIO_IRQHandler
00005d1c g     F .text	0000004a memmove
00002354  w      .text	00000000 TIM9_BRK_IRQHandler
00002368  w      .text	00000000 DMA2_Channel8_IRQHandler
000002a8 g     F .text	00000004 NMI_Handler
00004300 g     F .text	00000062 .hidden __fixsfsi
00002342  w      .text	00000000 CAN2_RX1_IRQHandler
000022d2  w      .text	00000000 EXTI3_IRQHandler
00000c62 g     F .text	0000000e LCD_SetColor
200000d4 g     O .bss	00000004 raw_gyro_total
200000d8 g     O .bss	00000006 raw_gyro
000003d6 g     F .text	0000006e IMU_ConvertGyro
0000234a  w      .text	00000000 USBHS_IRQHandler
00000d2c g     F .text	0000004c LCD_Clear
00002f3a g     F .text	0000000c USART_GetFlagStatus
0000236a  w      .text	00000000 DMA2_Channel9_IRQHandler
00005bce g     F .text	0000002a _fstat_r
00002362  w      .text	00000000 TIM10_CC_IRQHandler
20000108 g     O .bss	00000004 errno
20000098 g       .bss	00000000 _sbss
00000800 g       *ABS*	00000000 __stack_size
00002fc8 g     F .text	0000005c USART_Printf_Init
00002566 g     F .text	00000038 DMA_Init
00001b84 g     F .text	00000042 SCCB_Stop
200000ac g     O .bss	00000001 refresh_flag
000026e4 g     F .text	0000001e FSMC_NORSRAMCmd
00002dc2 g     F .text	00000016 TIM_CtrlPWMOutputs
00005c66 g     F .text	000000b6 memcpy
00001e1a g     F .text	00000098 DVP_GPIO_Init
00004c22 g     F .text	0000000a _cleanup_r
00005154 g     F .text	00000280 _svfprintf_r
20000070 g     O .data	00000002 FORE_COLOR
00000320 g     F .text	00000032 EXTI0_IRQHandler
00002302  w      .text	00000000 I2C2_EV_IRQHandler
00002360  w      .text	00000000 TIM10_TRG_COM_IRQHandler
00002234 g     F .text	00000024 Tick_TIM_INT_Init
00002da6 g     F .text	0000001c TIM_Cmd
000047ce g     F .text	0000000c puts
20000084 g     O .data	00000004 SystemCoreClock
000021d4 g     F .text	00000060 Refresh_TIM_Init
00002e2c g     F .text	0000000e TIM_ClearFlag
00005e0e g     F .text	0000000c _fstat
00000516 g     F .text	00000136 IMU_ReadLen
00000038 g       .init	00000000 _einit
000025b2 g     F .text	00000004 DMA_SetCurrDataCounter
0000483a g     F .text	00000010 vsnprintf
00002bde g     F .text	0000001e RCC_APB2PeriphClockCmd
00002344  w      .text	00000000 CAN2_SCE_IRQHandler
000022e4  w      .text	00000000 ADC1_2_IRQHandler
00002702 g     F .text	000000c2 GPIO_Init
000022ba  w      .text	00000000 Break_Point_Handler
2000009c g     O .bss	00000004 addr_cnt
00001d7a g     F .text	0000004e SCCB_WR_Reg
200000b0 g     O .bss	00000004 NVIC_Priority_Group
00002306  w      .text	00000000 SPI1_IRQHandler
00002f14 g     F .text	0000001c USART_Cmd
00002258 g     F .text	00000024 Refresh_TIM_INT_Init
00005a94 g     F .text	0000002a _sbrk_r
000022c4  w      .text	00000000 TAMPER_IRQHandler
00006510 g     O .text	000011a0 asc2_2412
00005dc2 g     F .text	0000002c _read_r
000013bc g     F .text	00000054 DMA_SRAMLCD_Init
00002340  w      .text	00000000 CAN2_RX0_IRQHandler
00000c28 g     F .text	0000001c LCD_SetBrightness
00004428 g     F .text	000000ac .hidden __extendsfdf2
00002318  w      .text	00000000 TIM8_UP_IRQHandler
00002bfc g     F .text	0000001e RCC_APB1PeriphClockCmd
00003098 g     F .text	00000730 .hidden __adddf3
000022b6  w      .text	00000000 Ecall_M_Mode_Handler
20007800 g       .stack	00000000 _heap_end
00005e1a g     F .text	0000000c _isatty
00002f6c g     F .text	0000002e Delay_Us
20000094 g     O .data	00000004 _global_impure_ptr
00005d6a g     F .text	00000058 _realloc_r
00002332  w      .text	00000000 DMA2_Channel2_IRQHandler
00002bc0 g     F .text	0000001e RCC_AHBPeriphClockCmd
000022dc  w      .text	00000000 DMA1_Channel4_IRQHandler
00002984 g     F .text	00000006 I2C_SendData
00003072 g     F .text	00000026 _sbrk
200000de g     O .bss	00000001 img_tape
200000e0 g     O .bss	00000004 time_stamp_record
2000007c g     O .data	00000004 acc_threshold_crack_100x
000027f4 g     F .text	0000011a I2C_Init
00002356  w      .text	00000000 TIM9_UP_IRQHandler
0000230e  w      .text	00000000 USART3_IRQHandler
000022c6  w      .text	00000000 RTC_IRQHandler
2000010c g       .bss	00000000 _ebss
000022e2  w      .text	00000000 DMA1_Channel7_IRQHandler
0000483a g     F .text	00000010 vsniprintf
000022ea  w      .text	00000000 CAN1_RX1_IRQHandler
00002f46 g     F .text	00000026 Delay_Init
000014ec g     F .text	00000150 DVP_IRQHandler
0000232a  w      .text	00000000 UART5_IRQHandler
00001eb2 g     F .text	000000d6 OV2640_Init
00003fea g     F .text	00000086 .hidden __gtsf2
00000c44 g     F .text	0000001e LCD_ConvertColor
000022fc  w      .text	00000000 TIM4_IRQHandler
00002dee g     F .text	0000001e TIM_ARRPreloadConfig
0000083c g     F .text	00000034 IMU_SetLPF
00002330  w      .text	00000000 DMA2_Channel1_IRQHandler
0000292a g     F .text	0000001e I2C_GenerateSTART
00009254 g     O .text	00000020 __sf_fake_stderr
000022fe  w      .text	00000000 I2C1_EV_IRQHandler
00001f88 g     F .text	0000002e OV2640_RGB565_Mode
0000163c g     F .text	0000001e sqrt32
00005066 g     F .text	000000ee __ssputs_r
200000e4 g     O .bss	0000000c gyro
00002ab2 g     F .text	0000010e RCC_GetClocksFreq
000022e0  w      .text	00000000 DMA1_Channel6_IRQHandler
0000463e g     F .text	00000076 .hidden __clzsi2
000053fe g     F .text	00000044 __sfputs_r
00002328  w      .text	00000000 UART4_IRQHandler
00002336  w      .text	00000000 DMA2_Channel4_IRQHandler
00005c4c g     F .text	0000001a memchr
00002e3a g     F .text	000000da USART_Init
00004ee4 g     F .text	000000a8 _free_r
000022fa  w      .text	00000000 TIM3_IRQHandler
000022ca  w      .text	00000000 RCC_IRQHandler
000022f4  w      .text	00000000 TIM1_TRG_COM_IRQHandler
000022d6  w      .text	00000000 DMA1_Channel1_IRQHandler
00000000 g       .init	00000000 _start
00002366  w      .text	00000000 DMA2_Channel7_IRQHandler
00002620 g     F .text	0000000a EXTI_ClearFlag
000029c2 g     F .text	00000032 I2C_GetFlagStatus
00005e26 g     F .text	0000000c _lseek
00002e0c g     F .text	0000001a TIM_OC2PreloadConfig
00004362 g     F .text	000000c6 .hidden __floatsisf
00002310  w      .text	00000000 EXTI15_10_IRQHandler
00002dd8 g     F .text	00000016 TIM_ITConfig
000009b2 g     F .text	0000008a IMU_Init
200000ae g     O .bss	00000001 warning_flag
00002cda g     F .text	000000cc TIM_OC2Init
00001bc6 g     F .text	00000052 SCCB_No_Ack
000025b6 g     F .text	0000006a EXTI_Init
200000a4 g     O .bss	00000004 frame_cnt
000006c0 g     F .text	00000074 IMU_GetAccelerometer
0000290e g     F .text	0000001c I2C_Cmd
000027c4 g     F .text	00000004 GPIO_ResetBits
0000229a g     F .text	00000018 TIM7_IRQHandler
00005ba6 g     F .text	00000028 _close_r
0000233e  w      .text	00000000 CAN2_TX_IRQHandler
20000000 g       .dalign	00000000 _data_vma
00002324  w      .text	00000000 TIM5_IRQHandler
0000262a g     F .text	000000ba FSMC_NORSRAMInit
0000490a g     F .text	0000010c __swsetup_r
000022ee  w      .text	00000000 EXTI9_5_IRQHandler
200000ad g     O .bss	00000001 tick
00004cde g     F .text	000000a0 __sfp
000027c8 g     F .text	0000002c GPIO_EXTILineConfig
000047da g     F .text	00000060 _vsnprintf_r
200000f0 g     O .bss	00000004 time_stamp_trigger
000037c8 g     F .text	000004b8 .hidden __muldf3
00005abe g     F .text	00000030 __sread
00002994 g     F .text	00000014 I2C_Send7bitAddress
0000233c  w      .text	00000000 ETH_WKUP_IRQHandler
00005d66 g     F .text	00000002 __malloc_lock
00004b52 g     F .text	00000066 _fflush_r
00002066 g     F .text	0000001a RGB565_Mode_Init
00002308  w      .text	00000000 SPI2_IRQHandler
00009274 g     O .text	00000020 __sf_fake_stdin
00000d78 g     F .text	000001e2 LCD_Init
00000200 g     F .text	000000a8 memset
00000444 g     F .text	000000d2 IMU_ConvertAccel
0000165a g     F .text	00000498 main
00005f30 g     O .text	000005e0 asc2_1608
0000235c  w      .text	00000000 TIM10_BRK_IRQHandler
0000235a  w      .text	00000000 TIM9_CC_IRQHandler
00005b72 g     F .text	00000006 __sclose
00002338  w      .text	00000000 DMA2_Channel5_IRQHandler
00000352 g     F .text	00000084 IIC_Init
000044d4 g     F .text	0000016a .hidden __truncdfsf2
00004f8c g     F .text	000000da _malloc_r
200000f4 g     O .bss	00000004 time
000022de  w      .text	00000000 DMA1_Channel5_IRQHandler
000022d4  w      .text	00000000 EXTI4_IRQHandler
200000f8 g     O .bss	00000004 gyro_total_10x
00002f9a g     F .text	0000002e Delay_Ms
000022e8  w      .text	00000000 USB_LP_CAN1_RX0_IRQHandler
00000cce g     F .text	0000005e LCD_AddressSetRead
00004070 g     F .text	00000290 .hidden __mulsf3
0000064c g     F .text	00000074 IMU_GetGyroscope
00002080 g     F .text	000000fa SystemInit
0000231e  w      .text	00000000 RNG_IRQHandler
00001410 g     F .text	000000dc DVP_Init
200000a0 g     O .bss	00000001 crack_flag
000046b4 g     F .text	00000040 iprintf
000022e6  w      .text	00000000 USB_HP_CAN1_TX_IRQHandler
00009154 g     O .text	00000100 .hidden __clz_tab
00000000 g       .init	00000000 _sinit
00003fea g     F .text	00000086 .hidden __gesf2
00005b78 g     F .text	0000002e _write_r
200000fc g     O .bss	00000006 raw_acc
000022da  w      .text	00000000 DMA1_Channel3_IRQHandler
00002320  w      .text	00000000 FSMC_IRQHandler
0000233a  w      .text	00000000 ETH_IRQHandler
000056de g     F .text	0000010c _printf_common
20000090 g     O .data	00000004 _impure_ptr
000022f2  w      .text	00000000 TIM1_UP_IRQHandler
00004a16 g     F .text	0000013c __sflush_r
00000870 g     F .text	00000032 IMU_SetRate
20000074 g     O .data	00000004 RGB565_DVPDMAaddr0
00005154 g     F .text	00000280 _svfiprintf_r
00001b40 g     F .text	00000044 SCCB_Start
000022c0  w      .text	00000000 WWDG_IRQHandler
00002348  w      .text	00000000 USBHSWakeup_IRQHandler
0000236e  w      .text	00000000 DMA2_Channel11_IRQHandler
000022b8  w      .text	00000000 Ecall_U_Mode_Handler
00002364  w      .text	00000000 DMA2_Channel6_IRQHandler
000022f8  w      .text	00000000 TIM2_IRQHandler
20008000 g       .stack	00000000 _eusrstack
000047da g     F .text	00000060 _vsniprintf_r
000022be  w      .text	00000000 SW_Handler
20000099 g     O .bss	00000001 gyro_fsr
200000a1 g     O .bss	00000001 crack_halt_flag
000022f0  w      .text	00000000 TIM1_BRK_IRQHandler
00004dea g     F .text	0000005a __swhatbuf_r
00002f30 g     F .text	0000000a USART_SendData
0000236c  w      .text	00000000 DMA2_Channel10_IRQHandler
000022ce  w      .text	00000000 EXTI1_IRQHandler
00003024 g     F .text	0000004e _write
20000098 g     O .bss	00000001 accel_fsr
20000098 g       .data	00000000 _edata
20000104 g     O .bss	00000004 acc_record_100x
2000010c g       .bss	00000000 _end
000076b0 g     O .text	00001780 asc2_3216
00002c1a g     F .text	000000c0 TIM_TimeBaseInit
00002312  w      .text	00000000 RTCAlarm_IRQHandler
200000a2 g     O .bss	00000001 crack_repair_flag
00001fb6 g     F .text	00000076 OV2640_OutSize_Set
000092f0 g       .dlalign	00000000 _data_lma
0000235e  w      .text	00000000 TIM10_UP_IRQHandler
00002358  w      .text	00000000 TIM9_TRG_COM_IRQHandler
00002350  w      .text	00000000 UART7_IRQHandler
000090b8 g     O .text	0000001c OV2640_RGB565RegTbl
0000230c  w      .text	00000000 USART2_IRQHandler
0000234e  w      .text	00000000 UART6_IRQHandler
00005aee g     F .text	0000004e __swrite
0000082c g     F .text	00000010 IMU_SetAccelFsr
20000080 g     O .data	00000004 acc_threshold_warning_100x
00005442 g     F .text	0000029c _vfiprintf_r
00004d7e g     F .text	0000006c _fwalk_reent
00002304  w      .text	00000000 I2C2_ER_IRQHandler
000022d8  w      .text	00000000 DMA1_Channel2_IRQHandler
00009294 g     O .text	00000020 __sf_fake_stdout
00002316  w      .text	00000000 TIM8_BRK_IRQHandler
00005e32 g     F .text	0000000c _read
00002370  w      .text	00000000 handle_reset
000022ec  w      .text	00000000 CAN1_SCE_IRQHandler
000022c8  w      .text	00000000 FLASH_IRQHandler
000012e8 g     F .text	000000d4 LCD_ShowString
0000230a  w      .text	00000000 USART1_IRQHandler
00004e44 g     F .text	000000a0 __smakebuf_r
00002966 g     F .text	0000001e I2C_AcknowledgeConfig
00002346  w      .text	00000000 OTG_FS_IRQHandler
000057ea g     F .text	000002aa _printf_i
00002326  w      .text	00000000 SPI3_IRQHandler
0000217a g     F .text	0000005a Tick_TIM_Init
00008f54 g     O .text	00000164 OV2640_InitRegTbl
200000bc g     O .bss	00000004 __malloc_sbrk_start
000029a8 g     F .text	0000001a I2C_CheckEvent
00001af2 g     F .text	0000004e SCCB_GPIO_Init
00002948 g     F .text	0000001e I2C_GenerateSTOP
00002300  w      .text	00000000 I2C1_ER_IRQHandler
000029f4 g     F .text	00000006 NVIC_PriorityGroupConfig
000023fa g     F .text	0000016c DMA_DeInit
00001cda g     F .text	000000a0 SCCB_RD_Byte
200000b8 g     O .bss	00000004 __malloc_free_list
00000a3c g     F .text	00000016 LCD_WriteHalfWord
00005442 g     F .text	0000029c _vfprintf_r
20000078 g     O .data	00000004 RGB565_DVPDMAaddr1
00003c80 g     F .text	0000036a .hidden __addsf3
00000b92 g     F .text	00000096 LCD_GPIOInit
00000734 g     F .text	000000e8 IMU_WriteByte
00002314  w      .text	00000000 USBWakeUp_IRQHandler
00000c70 g     F .text	0000005e LCD_AddressSetWrite
00005e02 g     F .text	0000000c _close
00002334  w      .text	00000000 DMA2_Channel3_IRQHandler
00000a6c g     F .text	00000126 LCD_FSMCInit



Disassembly of section .init:

00000000 <_sinit>:
   0:	3700206f          	j	2370 <handle_reset>
   4:	00000013          	nop
   8:	00000013          	nop
   c:	00000013          	nop
  10:	00000013          	nop
  14:	00000013          	nop
  18:	00000013          	nop
  1c:	00000013          	nop
  20:	00000013          	nop
  24:	00000013          	nop
  28:	00000013          	nop
  2c:	00000013          	nop
  30:	00000013          	nop
  34:	00100073          	ebreak

Disassembly of section .vector:

00000038 <_vector_base>:
	...
  40:	02a8                	addi	a0,sp,328
  42:	0000                	unimp
  44:	02ac                	addi	a1,sp,328
  46:	0000                	unimp
  48:	0000                	unimp
  4a:	0000                	unimp
  4c:	22b6                	fld	ft5,328(sp)
	...
  56:	0000                	unimp
  58:	22b8                	fld	fa4,64(a3)
  5a:	0000                	unimp
  5c:	22ba                	fld	ft5,392(sp)
	...
  66:	0000                	unimp
  68:	22bc                	fld	fa5,64(a3)
  6a:	0000                	unimp
  6c:	0000                	unimp
  6e:	0000                	unimp
  70:	22be                	fld	ft5,456(sp)
  72:	0000                	unimp
  74:	0000                	unimp
  76:	0000                	unimp
  78:	22c0                	fld	fs0,128(a3)
  7a:	0000                	unimp
  7c:	22c2                	fld	ft5,16(sp)
  7e:	0000                	unimp
  80:	22c4                	fld	fs1,128(a3)
  82:	0000                	unimp
  84:	22c6                	fld	ft5,80(sp)
  86:	0000                	unimp
  88:	22c8                	fld	fa0,128(a3)
  8a:	0000                	unimp
  8c:	22ca                	fld	ft5,144(sp)
  8e:	0000                	unimp
  90:	0320                	addi	s0,sp,392
  92:	0000                	unimp
  94:	22ce                	fld	ft5,208(sp)
  96:	0000                	unimp
  98:	22d0                	fld	fa2,128(a3)
  9a:	0000                	unimp
  9c:	22d2                	fld	ft5,272(sp)
  9e:	0000                	unimp
  a0:	22d4                	fld	fa3,128(a3)
  a2:	0000                	unimp
  a4:	22d6                	fld	ft5,336(sp)
  a6:	0000                	unimp
  a8:	22d8                	fld	fa4,128(a3)
  aa:	0000                	unimp
  ac:	22da                	fld	ft5,400(sp)
  ae:	0000                	unimp
  b0:	22dc                	fld	fa5,128(a3)
  b2:	0000                	unimp
  b4:	22de                	fld	ft5,464(sp)
  b6:	0000                	unimp
  b8:	22e0                	fld	fs0,192(a3)
  ba:	0000                	unimp
  bc:	22e2                	fld	ft5,24(sp)
  be:	0000                	unimp
  c0:	22e4                	fld	fs1,192(a3)
  c2:	0000                	unimp
  c4:	22e6                	fld	ft5,88(sp)
  c6:	0000                	unimp
  c8:	22e8                	fld	fa0,192(a3)
  ca:	0000                	unimp
  cc:	22ea                	fld	ft5,152(sp)
  ce:	0000                	unimp
  d0:	22ec                	fld	fa1,192(a3)
  d2:	0000                	unimp
  d4:	22ee                	fld	ft5,216(sp)
  d6:	0000                	unimp
  d8:	22f0                	fld	fa2,192(a3)
  da:	0000                	unimp
  dc:	22f2                	fld	ft5,280(sp)
  de:	0000                	unimp
  e0:	22f4                	fld	fa3,192(a3)
  e2:	0000                	unimp
  e4:	22f6                	fld	ft5,344(sp)
  e6:	0000                	unimp
  e8:	22f8                	fld	fa4,192(a3)
  ea:	0000                	unimp
  ec:	22fa                	fld	ft5,408(sp)
  ee:	0000                	unimp
  f0:	22fc                	fld	fa5,192(a3)
  f2:	0000                	unimp
  f4:	22fe                	fld	ft5,472(sp)
  f6:	0000                	unimp
  f8:	2300                	fld	fs0,0(a4)
  fa:	0000                	unimp
  fc:	2302                	fld	ft6,0(sp)
  fe:	0000                	unimp
 100:	2304                	fld	fs1,0(a4)
 102:	0000                	unimp
 104:	2306                	fld	ft6,64(sp)
 106:	0000                	unimp
 108:	2308                	fld	fa0,0(a4)
 10a:	0000                	unimp
 10c:	230a                	fld	ft6,128(sp)
 10e:	0000                	unimp
 110:	230c                	fld	fa1,0(a4)
 112:	0000                	unimp
 114:	230e                	fld	ft6,192(sp)
 116:	0000                	unimp
 118:	2310                	fld	fa2,0(a4)
 11a:	0000                	unimp
 11c:	2312                	fld	ft6,256(sp)
 11e:	0000                	unimp
 120:	2314                	fld	fa3,0(a4)
 122:	0000                	unimp
 124:	2316                	fld	ft6,320(sp)
 126:	0000                	unimp
 128:	2318                	fld	fa4,0(a4)
 12a:	0000                	unimp
 12c:	231a                	fld	ft6,384(sp)
 12e:	0000                	unimp
 130:	231c                	fld	fa5,0(a4)
 132:	0000                	unimp
 134:	231e                	fld	ft6,448(sp)
 136:	0000                	unimp
 138:	2320                	fld	fs0,64(a4)
 13a:	0000                	unimp
 13c:	2322                	fld	ft6,8(sp)
 13e:	0000                	unimp
 140:	2324                	fld	fs1,64(a4)
 142:	0000                	unimp
 144:	2326                	fld	ft6,72(sp)
 146:	0000                	unimp
 148:	2328                	fld	fa0,64(a4)
 14a:	0000                	unimp
 14c:	232a                	fld	ft6,136(sp)
 14e:	0000                	unimp
 150:	227c                	fld	fa5,192(a2)
 152:	0000                	unimp
 154:	229a                	fld	ft5,384(sp)
 156:	0000                	unimp
 158:	2330                	fld	fa2,64(a4)
 15a:	0000                	unimp
 15c:	2332                	fld	ft6,264(sp)
 15e:	0000                	unimp
 160:	2334                	fld	fa3,64(a4)
 162:	0000                	unimp
 164:	2336                	fld	ft6,328(sp)
 166:	0000                	unimp
 168:	2338                	fld	fa4,64(a4)
 16a:	0000                	unimp
 16c:	233a                	fld	ft6,392(sp)
 16e:	0000                	unimp
 170:	233c                	fld	fa5,64(a4)
 172:	0000                	unimp
 174:	233e                	fld	ft6,456(sp)
 176:	0000                	unimp
 178:	2340                	fld	fs0,128(a4)
 17a:	0000                	unimp
 17c:	2342                	fld	ft6,16(sp)
 17e:	0000                	unimp
 180:	2344                	fld	fs1,128(a4)
 182:	0000                	unimp
 184:	2346                	fld	ft6,80(sp)
 186:	0000                	unimp
 188:	2348                	fld	fa0,128(a4)
 18a:	0000                	unimp
 18c:	234a                	fld	ft6,144(sp)
 18e:	0000                	unimp
 190:	14ec                	addi	a1,sp,620
 192:	0000                	unimp
 194:	234e                	fld	ft6,208(sp)
 196:	0000                	unimp
 198:	2350                	fld	fa2,128(a4)
 19a:	0000                	unimp
 19c:	2352                	fld	ft6,272(sp)
 19e:	0000                	unimp
 1a0:	2354                	fld	fa3,128(a4)
 1a2:	0000                	unimp
 1a4:	2356                	fld	ft6,336(sp)
 1a6:	0000                	unimp
 1a8:	2358                	fld	fa4,128(a4)
 1aa:	0000                	unimp
 1ac:	235a                	fld	ft6,400(sp)
 1ae:	0000                	unimp
 1b0:	235c                	fld	fa5,128(a4)
 1b2:	0000                	unimp
 1b4:	235e                	fld	ft6,464(sp)
 1b6:	0000                	unimp
 1b8:	2360                	fld	fs0,192(a4)
 1ba:	0000                	unimp
 1bc:	2362                	fld	ft6,24(sp)
 1be:	0000                	unimp
 1c0:	2364                	fld	fs1,192(a4)
 1c2:	0000                	unimp
 1c4:	2366                	fld	ft6,88(sp)
 1c6:	0000                	unimp
 1c8:	2368                	fld	fa0,192(a4)
 1ca:	0000                	unimp
 1cc:	236a                	fld	ft6,152(sp)
 1ce:	0000                	unimp
 1d0:	236c                	fld	fa1,192(a4)
 1d2:	0000                	unimp
 1d4:	236e                	fld	ft6,216(sp)
	...

Disassembly of section .text:

00000200 <memset>:
     200:	433d                	li	t1,15
     202:	872a                	mv	a4,a0
     204:	02c37363          	bgeu	t1,a2,22a <memset+0x2a>
     208:	00f77793          	andi	a5,a4,15
     20c:	efbd                	bnez	a5,28a <memset+0x8a>
     20e:	e5ad                	bnez	a1,278 <memset+0x78>
     210:	ff067693          	andi	a3,a2,-16
     214:	8a3d                	andi	a2,a2,15
     216:	96ba                	add	a3,a3,a4
     218:	c30c                	sw	a1,0(a4)
     21a:	c34c                	sw	a1,4(a4)
     21c:	c70c                	sw	a1,8(a4)
     21e:	c74c                	sw	a1,12(a4)
     220:	0741                	addi	a4,a4,16
     222:	fed76be3          	bltu	a4,a3,218 <memset+0x18>
     226:	e211                	bnez	a2,22a <memset+0x2a>
     228:	8082                	ret
     22a:	40c306b3          	sub	a3,t1,a2
     22e:	068a                	slli	a3,a3,0x2
     230:	00000297          	auipc	t0,0x0
     234:	9696                	add	a3,a3,t0
     236:	00a68067          	jr	10(a3)
     23a:	00b70723          	sb	a1,14(a4)
     23e:	00b706a3          	sb	a1,13(a4)
     242:	00b70623          	sb	a1,12(a4)
     246:	00b705a3          	sb	a1,11(a4)
     24a:	00b70523          	sb	a1,10(a4)
     24e:	00b704a3          	sb	a1,9(a4)
     252:	00b70423          	sb	a1,8(a4)
     256:	00b703a3          	sb	a1,7(a4)
     25a:	00b70323          	sb	a1,6(a4)
     25e:	00b702a3          	sb	a1,5(a4)
     262:	00b70223          	sb	a1,4(a4)
     266:	00b701a3          	sb	a1,3(a4)
     26a:	00b70123          	sb	a1,2(a4)
     26e:	00b700a3          	sb	a1,1(a4)
     272:	00b70023          	sb	a1,0(a4)
     276:	8082                	ret
     278:	0ff5f593          	andi	a1,a1,255
     27c:	00859693          	slli	a3,a1,0x8
     280:	8dd5                	or	a1,a1,a3
     282:	01059693          	slli	a3,a1,0x10
     286:	8dd5                	or	a1,a1,a3
     288:	b761                	j	210 <memset+0x10>
     28a:	00279693          	slli	a3,a5,0x2
     28e:	00000297          	auipc	t0,0x0
     292:	9696                	add	a3,a3,t0
     294:	8286                	mv	t0,ra
     296:	fa8680e7          	jalr	-88(a3)
     29a:	8096                	mv	ra,t0
     29c:	17c1                	addi	a5,a5,-16
     29e:	8f1d                	sub	a4,a4,a5
     2a0:	963e                	add	a2,a2,a5
     2a2:	f8c374e3          	bgeu	t1,a2,22a <memset+0x2a>
     2a6:	b7a5                	j	20e <memset+0xe>

000002a8 <NMI_Handler>:
     2a8:	30200073          	mret

000002ac <HardFault_Handler>:
     2ac:	a001                	j	2ac <HardFault_Handler>

000002ae <Button_INT_Init>:
     2ae:	7139                	addi	sp,sp,-64
     2b0:	4585                	li	a1,1
     2b2:	4515                	li	a0,5
     2b4:	de06                	sw	ra,60(sp)
     2b6:	dc22                	sw	s0,56(sp)
     2b8:	ca02                	sw	zero,20(sp)
     2ba:	cc02                	sw	zero,24(sp)
     2bc:	ce02                	sw	zero,28(sp)
     2be:	d002                	sw	zero,32(sp)
     2c0:	d202                	sw	zero,36(sp)
     2c2:	d402                	sw	zero,40(sp)
     2c4:	d602                	sw	zero,44(sp)
     2c6:	c602                	sw	zero,12(sp)
     2c8:	c802                	sw	zero,16(sp)
     2ca:	115020ef          	jal	ra,2bde <RCC_APB2PeriphClockCmd>
     2ce:	4785                	li	a5,1
     2d0:	40011537          	lui	a0,0x40011
     2d4:	00f11a23          	sh	a5,20(sp)
     2d8:	084c                	addi	a1,sp,20
     2da:	04800793          	li	a5,72
     2de:	80050513          	addi	a0,a0,-2048 # 40010800 <_eusrstack+0x20008800>
     2e2:	ce3e                	sw	a5,28(sp)
     2e4:	41e020ef          	jal	ra,2702 <GPIO_Init>
     2e8:	4581                	li	a1,0
     2ea:	4501                	li	a0,0
     2ec:	4dc020ef          	jal	ra,27c8 <GPIO_EXTILineConfig>
     2f0:	4405                	li	s0,1
     2f2:	47a1                	li	a5,8
     2f4:	1008                	addi	a0,sp,32
     2f6:	d022                	sw	s0,32(sp)
     2f8:	d43e                	sw	a5,40(sp)
     2fa:	d622                	sw	s0,44(sp)
     2fc:	d202                	sw	zero,36(sp)
     2fe:	2b8020ef          	jal	ra,25b6 <EXTI_Init>
     302:	11600793          	li	a5,278
     306:	00f11623          	sh	a5,12(sp)
     30a:	0068                	addi	a0,sp,12
     30c:	4789                	li	a5,2
     30e:	c822                	sw	s0,16(sp)
     310:	00f10723          	sb	a5,14(sp)
     314:	6e6020ef          	jal	ra,29fa <NVIC_Init>
     318:	50f2                	lw	ra,60(sp)
     31a:	5462                	lw	s0,56(sp)
     31c:	6121                	addi	sp,sp,64
     31e:	8082                	ret

00000320 <EXTI0_IRQHandler>:
     320:	4505                	li	a0,1
     322:	2fe020ef          	jal	ra,2620 <EXTI_ClearFlag>
     326:	8311c703          	lbu	a4,-1999(gp) # 200000a1 <crack_halt_flag>
     32a:	c315                	beqz	a4,34e <EXTI0_IRQHandler+0x2e>
     32c:	82018f23          	sb	zero,-1986(gp) # 200000ae <warning_flag>
     330:	82018823          	sb	zero,-2000(gp) # 200000a0 <crack_flag>
     334:	820188a3          	sb	zero,-1999(gp) # 200000a1 <crack_halt_flag>
     338:	4705                	li	a4,1
     33a:	82e18923          	sb	a4,-1998(gp) # 200000a2 <crack_repair_flag>
     33e:	8801a223          	sw	zero,-1916(gp) # 200000f4 <time>
     342:	8801a023          	sw	zero,-1920(gp) # 200000f0 <time_stamp_trigger>
     346:	8601a823          	sw	zero,-1936(gp) # 200000e0 <time_stamp_record>
     34a:	8801aa23          	sw	zero,-1900(gp) # 20000104 <acc_record_100x>
     34e:	30200073          	mret

00000352 <IIC_Init>:
     352:	7179                	addi	sp,sp,-48
     354:	d422                	sw	s0,40(sp)
     356:	d226                	sw	s1,36(sp)
     358:	842e                	mv	s0,a1
     35a:	84aa                	mv	s1,a0
     35c:	4585                	li	a1,1
     35e:	4521                	li	a0,8
     360:	d606                	sw	ra,44(sp)
     362:	07d020ef          	jal	ra,2bde <RCC_APB2PeriphClockCmd>
     366:	4585                	li	a1,1
     368:	00400537          	lui	a0,0x400
     36c:	091020ef          	jal	ra,2bfc <RCC_APB1PeriphClockCmd>
     370:	6785                	lui	a5,0x1
     372:	c0078793          	addi	a5,a5,-1024 # c00 <LCD_GPIOInit+0x6e>
     376:	00f11223          	sh	a5,4(sp)
     37a:	40011537          	lui	a0,0x40011
     37e:	47f1                	li	a5,28
     380:	c63e                	sw	a5,12(sp)
     382:	004c                	addi	a1,sp,4
     384:	478d                	li	a5,3
     386:	c0050513          	addi	a0,a0,-1024 # 40010c00 <_eusrstack+0x20008c00>
     38a:	c43e                	sw	a5,8(sp)
     38c:	376020ef          	jal	ra,2702 <GPIO_Init>
     390:	400007b7          	lui	a5,0x40000
     394:	ca3e                	sw	a5,20(sp)
     396:	00811c23          	sh	s0,24(sp)
     39a:	40000793          	li	a5,1024
     39e:	40006437          	lui	s0,0x40006
     3a2:	00f11d23          	sh	a5,26(sp)
     3a6:	080c                	addi	a1,sp,16
     3a8:	6791                	lui	a5,0x4
     3aa:	80040513          	addi	a0,s0,-2048 # 40005800 <_eusrstack+0x1fffd800>
     3ae:	00f11e23          	sh	a5,28(sp)
     3b2:	c826                	sw	s1,16(sp)
     3b4:	440020ef          	jal	ra,27f4 <I2C_Init>
     3b8:	80040513          	addi	a0,s0,-2048
     3bc:	4585                	li	a1,1
     3be:	550020ef          	jal	ra,290e <I2C_Cmd>
     3c2:	80040513          	addi	a0,s0,-2048
     3c6:	4585                	li	a1,1
     3c8:	59e020ef          	jal	ra,2966 <I2C_AcknowledgeConfig>
     3cc:	50b2                	lw	ra,44(sp)
     3ce:	5422                	lw	s0,40(sp)
     3d0:	5492                	lw	s1,36(sp)
     3d2:	6145                	addi	sp,sp,48
     3d4:	8082                	ret

000003d6 <IMU_ConvertGyro>:
     3d6:	8291c783          	lbu	a5,-2007(gp) # 20000099 <gyro_fsr>
     3da:	1141                	addi	sp,sp,-16
     3dc:	c606                	sw	ra,12(sp)
     3de:	4705                	li	a4,1
     3e0:	02e78d63          	beq	a5,a4,41a <IMU_ConvertGyro+0x44>
     3e4:	cf81                	beqz	a5,3fc <IMU_ConvertGyro+0x26>
     3e6:	4709                	li	a4,2
     3e8:	04e78063          	beq	a5,a4,428 <IMU_ConvertGyro+0x52>
     3ec:	470d                	li	a4,3
     3ee:	04e78463          	beq	a5,a4,436 <IMU_ConvertGyro+0x60>
     3f2:	00000513          	li	a0,0
     3f6:	40b2                	lw	ra,12(sp)
     3f8:	0141                	addi	sp,sp,16
     3fa:	8082                	ret
     3fc:	767030ef          	jal	ra,4362 <__floatsisf>
     400:	000067b7          	lui	a5,0x6
     404:	e687a583          	lw	a1,-408(a5) # 5e68 <_read+0x36>
     408:	469030ef          	jal	ra,4070 <__mulsf3>
     40c:	000067b7          	lui	a5,0x6
     410:	e6c7a583          	lw	a1,-404(a5) # 5e6c <_read+0x3a>
     414:	45d030ef          	jal	ra,4070 <__mulsf3>
     418:	bff9                	j	3f6 <IMU_ConvertGyro+0x20>
     41a:	749030ef          	jal	ra,4362 <__floatsisf>
     41e:	000067b7          	lui	a5,0x6
     422:	e707a583          	lw	a1,-400(a5) # 5e70 <_read+0x3e>
     426:	b7cd                	j	408 <IMU_ConvertGyro+0x32>
     428:	73b030ef          	jal	ra,4362 <__floatsisf>
     42c:	000067b7          	lui	a5,0x6
     430:	e747a583          	lw	a1,-396(a5) # 5e74 <_read+0x42>
     434:	bfd1                	j	408 <IMU_ConvertGyro+0x32>
     436:	72d030ef          	jal	ra,4362 <__floatsisf>
     43a:	000067b7          	lui	a5,0x6
     43e:	e787a583          	lw	a1,-392(a5) # 5e78 <_read+0x46>
     442:	b7d9                	j	408 <IMU_ConvertGyro+0x32>

00000444 <IMU_ConvertAccel>:
     444:	8281c783          	lbu	a5,-2008(gp) # 20000098 <_edata>
     448:	1141                	addi	sp,sp,-16
     44a:	c606                	sw	ra,12(sp)
     44c:	4705                	li	a4,1
     44e:	04e78963          	beq	a5,a4,4a0 <IMU_ConvertAccel+0x5c>
     452:	cf81                	beqz	a5,46a <IMU_ConvertAccel+0x26>
     454:	4709                	li	a4,2
     456:	06e78a63          	beq	a5,a4,4ca <IMU_ConvertAccel+0x86>
     45a:	470d                	li	a4,3
     45c:	08e78a63          	beq	a5,a4,4f0 <IMU_ConvertAccel+0xac>
     460:	00000513          	li	a0,0
     464:	40b2                	lw	ra,12(sp)
     466:	0141                	addi	sp,sp,16
     468:	8082                	ret
     46a:	6f9030ef          	jal	ra,4362 <__floatsisf>
     46e:	7bb030ef          	jal	ra,4428 <__extendsfdf2>
     472:	000067b7          	lui	a5,0x6
     476:	e407a603          	lw	a2,-448(a5) # 5e40 <_read+0xe>
     47a:	e447a683          	lw	a3,-444(a5)
     47e:	34a030ef          	jal	ra,37c8 <__muldf3>
     482:	862a                	mv	a2,a0
     484:	86ae                	mv	a3,a1
     486:	413020ef          	jal	ra,3098 <__adddf3>
     48a:	000067b7          	lui	a5,0x6
     48e:	e487a603          	lw	a2,-440(a5) # 5e48 <_read+0x16>
     492:	e4c7a683          	lw	a3,-436(a5)
     496:	332030ef          	jal	ra,37c8 <__muldf3>
     49a:	03a040ef          	jal	ra,44d4 <__truncdfsf2>
     49e:	b7d9                	j	464 <IMU_ConvertAccel+0x20>
     4a0:	6c3030ef          	jal	ra,4362 <__floatsisf>
     4a4:	785030ef          	jal	ra,4428 <__extendsfdf2>
     4a8:	000067b7          	lui	a5,0x6
     4ac:	e407a603          	lw	a2,-448(a5) # 5e40 <_read+0xe>
     4b0:	e447a683          	lw	a3,-444(a5)
     4b4:	314030ef          	jal	ra,37c8 <__muldf3>
     4b8:	000067b7          	lui	a5,0x6
     4bc:	e507a603          	lw	a2,-432(a5) # 5e50 <_read+0x1e>
     4c0:	e547a683          	lw	a3,-428(a5)
     4c4:	304030ef          	jal	ra,37c8 <__muldf3>
     4c8:	b7c9                	j	48a <IMU_ConvertAccel+0x46>
     4ca:	699030ef          	jal	ra,4362 <__floatsisf>
     4ce:	75b030ef          	jal	ra,4428 <__extendsfdf2>
     4d2:	000067b7          	lui	a5,0x6
     4d6:	e407a603          	lw	a2,-448(a5) # 5e40 <_read+0xe>
     4da:	e447a683          	lw	a3,-444(a5)
     4de:	2ea030ef          	jal	ra,37c8 <__muldf3>
     4e2:	000067b7          	lui	a5,0x6
     4e6:	e587a603          	lw	a2,-424(a5) # 5e58 <_read+0x26>
     4ea:	e5c7a683          	lw	a3,-420(a5)
     4ee:	bfd9                	j	4c4 <IMU_ConvertAccel+0x80>
     4f0:	673030ef          	jal	ra,4362 <__floatsisf>
     4f4:	735030ef          	jal	ra,4428 <__extendsfdf2>
     4f8:	000067b7          	lui	a5,0x6
     4fc:	e407a603          	lw	a2,-448(a5) # 5e40 <_read+0xe>
     500:	e447a683          	lw	a3,-444(a5)
     504:	2c4030ef          	jal	ra,37c8 <__muldf3>
     508:	000067b7          	lui	a5,0x6
     50c:	e607a603          	lw	a2,-416(a5) # 5e60 <_read+0x2e>
     510:	e647a683          	lw	a3,-412(a5)
     514:	bf45                	j	4c4 <IMU_ConvertAccel+0x80>

00000516 <IMU_ReadLen>:
     516:	7179                	addi	sp,sp,-48
     518:	d226                	sw	s1,36(sp)
     51a:	400064b7          	lui	s1,0x40006
     51e:	d422                	sw	s0,40(sp)
     520:	ce4e                	sw	s3,28(sp)
     522:	842a                	mv	s0,a0
     524:	89ae                	mv	s3,a1
     526:	80048513          	addi	a0,s1,-2048 # 40005800 <_eusrstack+0x1fffd800>
     52a:	4585                	li	a1,1
     52c:	d606                	sw	ra,44(sp)
     52e:	d04a                	sw	s2,32(sp)
     530:	cc52                	sw	s4,24(sp)
     532:	ca56                	sw	s5,20(sp)
     534:	c85a                	sw	s6,16(sp)
     536:	8a32                	mv	s4,a2
     538:	8ab6                	mv	s5,a3
     53a:	c65e                	sw	s7,12(sp)
     53c:	42a020ef          	jal	ra,2966 <I2C_AcknowledgeConfig>
     540:	80048513          	addi	a0,s1,-2048
     544:	4585                	li	a1,1
     546:	000304b7          	lui	s1,0x30
     54a:	40006937          	lui	s2,0x40006
     54e:	3dc020ef          	jal	ra,292a <I2C_GenerateSTART>
     552:	0485                	addi	s1,s1,1
     554:	80090b13          	addi	s6,s2,-2048 # 40005800 <_eusrstack+0x1fffd800>
     558:	85a6                	mv	a1,s1
     55a:	855a                	mv	a0,s6
     55c:	44c020ef          	jal	ra,29a8 <I2C_CheckEvent>
     560:	dd65                	beqz	a0,558 <IMU_ReadLen+0x42>
     562:	0406                	slli	s0,s0,0x1
     564:	80090513          	addi	a0,s2,-2048
     568:	4601                	li	a2,0
     56a:	0fe47593          	andi	a1,s0,254
     56e:	00070937          	lui	s2,0x70
     572:	400064b7          	lui	s1,0x40006
     576:	41e020ef          	jal	ra,2994 <I2C_Send7bitAddress>
     57a:	08290913          	addi	s2,s2,130 # 70082 <_data_lma+0x66d92>
     57e:	80048b13          	addi	s6,s1,-2048 # 40005800 <_eusrstack+0x1fffd800>
     582:	85ca                	mv	a1,s2
     584:	855a                	mv	a0,s6
     586:	422020ef          	jal	ra,29a8 <I2C_CheckEvent>
     58a:	dd65                	beqz	a0,582 <IMU_ReadLen+0x6c>
     58c:	85ce                	mv	a1,s3
     58e:	80048513          	addi	a0,s1,-2048
     592:	3f2020ef          	jal	ra,2984 <I2C_SendData>
     596:	80048513          	addi	a0,s1,-2048
     59a:	4585                	li	a1,1
     59c:	000304b7          	lui	s1,0x30
     5a0:	40006937          	lui	s2,0x40006
     5a4:	386020ef          	jal	ra,292a <I2C_GenerateSTART>
     5a8:	0485                	addi	s1,s1,1
     5aa:	80090993          	addi	s3,s2,-2048 # 40005800 <_eusrstack+0x1fffd800>
     5ae:	85a6                	mv	a1,s1
     5b0:	854e                	mv	a0,s3
     5b2:	3f6020ef          	jal	ra,29a8 <I2C_CheckEvent>
     5b6:	dd65                	beqz	a0,5ae <IMU_ReadLen+0x98>
     5b8:	00146593          	ori	a1,s0,1
     5bc:	4605                	li	a2,1
     5be:	0ff5f593          	andi	a1,a1,255
     5c2:	80090513          	addi	a0,s2,-2048
     5c6:	000304b7          	lui	s1,0x30
     5ca:	40006437          	lui	s0,0x40006
     5ce:	3c6020ef          	jal	ra,2994 <I2C_Send7bitAddress>
     5d2:	0489                	addi	s1,s1,2
     5d4:	80040413          	addi	s0,s0,-2048 # 40005800 <_eusrstack+0x1fffd800>
     5d8:	85a6                	mv	a1,s1
     5da:	8522                	mv	a0,s0
     5dc:	3cc020ef          	jal	ra,29a8 <I2C_CheckEvent>
     5e0:	dd65                	beqz	a0,5d8 <IMU_ReadLen+0xc2>
     5e2:	400064b7          	lui	s1,0x40006
     5e6:	10000937          	lui	s2,0x10000
     5ea:	80048493          	addi	s1,s1,-2048 # 40005800 <_eusrstack+0x1fffd800>
     5ee:	4401                	li	s0,0
     5f0:	04090913          	addi	s2,s2,64 # 10000040 <_data_lma+0xfff6d50>
     5f4:	ffea0b93          	addi	s7,s4,-2
     5f8:	89a6                	mv	s3,s1
     5fa:	03441563          	bne	s0,s4,624 <IMU_ReadLen+0x10e>
     5fe:	40006537          	lui	a0,0x40006
     602:	80050513          	addi	a0,a0,-2048 # 40005800 <_eusrstack+0x1fffd800>
     606:	4585                	li	a1,1
     608:	340020ef          	jal	ra,2948 <I2C_GenerateSTOP>
     60c:	50b2                	lw	ra,44(sp)
     60e:	5422                	lw	s0,40(sp)
     610:	5492                	lw	s1,36(sp)
     612:	5902                	lw	s2,32(sp)
     614:	49f2                	lw	s3,28(sp)
     616:	4a62                	lw	s4,24(sp)
     618:	4ad2                	lw	s5,20(sp)
     61a:	4b42                	lw	s6,16(sp)
     61c:	4bb2                	lw	s7,12(sp)
     61e:	4501                	li	a0,0
     620:	6145                	addi	sp,sp,48
     622:	8082                	ret
     624:	85ca                	mv	a1,s2
     626:	8526                	mv	a0,s1
     628:	39a020ef          	jal	ra,29c2 <I2C_GetFlagStatus>
     62c:	d579                	beqz	a0,5fa <IMU_ReadLen+0xe4>
     62e:	008a8b33          	add	s6,s5,s0
     632:	01741663          	bne	s0,s7,63e <IMU_ReadLen+0x128>
     636:	4581                	li	a1,0
     638:	854e                	mv	a0,s3
     63a:	32c020ef          	jal	ra,2966 <I2C_AcknowledgeConfig>
     63e:	854e                	mv	a0,s3
     640:	34a020ef          	jal	ra,298a <I2C_ReceiveData>
     644:	00ab0023          	sb	a0,0(s6)
     648:	0405                	addi	s0,s0,1
     64a:	bf45                	j	5fa <IMU_ReadLen+0xe4>

0000064c <IMU_GetGyroscope>:
     64c:	7179                	addi	sp,sp,-48
     64e:	d226                	sw	s1,36(sp)
     650:	d04a                	sw	s2,32(sp)
     652:	ce4e                	sw	s3,28(sp)
     654:	892e                	mv	s2,a1
     656:	89aa                	mv	s3,a0
     658:	84b2                	mv	s1,a2
     65a:	0034                	addi	a3,sp,8
     65c:	4619                	li	a2,6
     65e:	04300593          	li	a1,67
     662:	06800513          	li	a0,104
     666:	d422                	sw	s0,40(sp)
     668:	d606                	sw	ra,44(sp)
     66a:	3575                	jal	516 <IMU_ReadLen>
     66c:	842a                	mv	s0,a0
     66e:	e129                	bnez	a0,6b0 <IMU_GetGyroscope+0x64>
     670:	00814503          	lbu	a0,8(sp)
     674:	00914783          	lbu	a5,9(sp)
     678:	0522                	slli	a0,a0,0x8
     67a:	8d5d                	or	a0,a0,a5
     67c:	0542                	slli	a0,a0,0x10
     67e:	8541                	srai	a0,a0,0x10
     680:	3b99                	jal	3d6 <IMU_ConvertGyro>
     682:	00a9a023          	sw	a0,0(s3)
     686:	00a14503          	lbu	a0,10(sp)
     68a:	00b14783          	lbu	a5,11(sp)
     68e:	0522                	slli	a0,a0,0x8
     690:	8d5d                	or	a0,a0,a5
     692:	0542                	slli	a0,a0,0x10
     694:	8541                	srai	a0,a0,0x10
     696:	3381                	jal	3d6 <IMU_ConvertGyro>
     698:	00a92023          	sw	a0,0(s2)
     69c:	00c14503          	lbu	a0,12(sp)
     6a0:	00d14783          	lbu	a5,13(sp)
     6a4:	0522                	slli	a0,a0,0x8
     6a6:	8d5d                	or	a0,a0,a5
     6a8:	0542                	slli	a0,a0,0x10
     6aa:	8541                	srai	a0,a0,0x10
     6ac:	332d                	jal	3d6 <IMU_ConvertGyro>
     6ae:	c088                	sw	a0,0(s1)
     6b0:	8522                	mv	a0,s0
     6b2:	50b2                	lw	ra,44(sp)
     6b4:	5422                	lw	s0,40(sp)
     6b6:	5492                	lw	s1,36(sp)
     6b8:	5902                	lw	s2,32(sp)
     6ba:	49f2                	lw	s3,28(sp)
     6bc:	6145                	addi	sp,sp,48
     6be:	8082                	ret

000006c0 <IMU_GetAccelerometer>:
     6c0:	7179                	addi	sp,sp,-48
     6c2:	d226                	sw	s1,36(sp)
     6c4:	d04a                	sw	s2,32(sp)
     6c6:	ce4e                	sw	s3,28(sp)
     6c8:	892e                	mv	s2,a1
     6ca:	89aa                	mv	s3,a0
     6cc:	84b2                	mv	s1,a2
     6ce:	0034                	addi	a3,sp,8
     6d0:	4619                	li	a2,6
     6d2:	03b00593          	li	a1,59
     6d6:	06800513          	li	a0,104
     6da:	d422                	sw	s0,40(sp)
     6dc:	d606                	sw	ra,44(sp)
     6de:	3d25                	jal	516 <IMU_ReadLen>
     6e0:	842a                	mv	s0,a0
     6e2:	e129                	bnez	a0,724 <IMU_GetAccelerometer+0x64>
     6e4:	00814503          	lbu	a0,8(sp)
     6e8:	00914783          	lbu	a5,9(sp)
     6ec:	0522                	slli	a0,a0,0x8
     6ee:	8d5d                	or	a0,a0,a5
     6f0:	0542                	slli	a0,a0,0x10
     6f2:	8541                	srai	a0,a0,0x10
     6f4:	3b81                	jal	444 <IMU_ConvertAccel>
     6f6:	00a9a023          	sw	a0,0(s3)
     6fa:	00a14503          	lbu	a0,10(sp)
     6fe:	00b14783          	lbu	a5,11(sp)
     702:	0522                	slli	a0,a0,0x8
     704:	8d5d                	or	a0,a0,a5
     706:	0542                	slli	a0,a0,0x10
     708:	8541                	srai	a0,a0,0x10
     70a:	3b2d                	jal	444 <IMU_ConvertAccel>
     70c:	00a92023          	sw	a0,0(s2)
     710:	00c14503          	lbu	a0,12(sp)
     714:	00d14783          	lbu	a5,13(sp)
     718:	0522                	slli	a0,a0,0x8
     71a:	8d5d                	or	a0,a0,a5
     71c:	0542                	slli	a0,a0,0x10
     71e:	8541                	srai	a0,a0,0x10
     720:	3315                	jal	444 <IMU_ConvertAccel>
     722:	c088                	sw	a0,0(s1)
     724:	8522                	mv	a0,s0
     726:	50b2                	lw	ra,44(sp)
     728:	5422                	lw	s0,40(sp)
     72a:	5492                	lw	s1,36(sp)
     72c:	5902                	lw	s2,32(sp)
     72e:	49f2                	lw	s3,28(sp)
     730:	6145                	addi	sp,sp,48
     732:	8082                	ret

00000734 <IMU_WriteByte>:
     734:	1101                	addi	sp,sp,-32
     736:	cc22                	sw	s0,24(sp)
     738:	40006437          	lui	s0,0x40006
     73c:	c84a                	sw	s2,16(sp)
     73e:	c64e                	sw	s3,12(sp)
     740:	892e                	mv	s2,a1
     742:	89aa                	mv	s3,a0
     744:	4585                	li	a1,1
     746:	80040513          	addi	a0,s0,-2048 # 40005800 <_eusrstack+0x1fffd800>
     74a:	ce06                	sw	ra,28(sp)
     74c:	ca26                	sw	s1,20(sp)
     74e:	c452                	sw	s4,8(sp)
     750:	216020ef          	jal	ra,2966 <I2C_AcknowledgeConfig>
     754:	80040513          	addi	a0,s0,-2048
     758:	4585                	li	a1,1
     75a:	00030437          	lui	s0,0x30
     75e:	400064b7          	lui	s1,0x40006
     762:	1c8020ef          	jal	ra,292a <I2C_GenerateSTART>
     766:	0405                	addi	s0,s0,1
     768:	80048a13          	addi	s4,s1,-2048 # 40005800 <_eusrstack+0x1fffd800>
     76c:	85a2                	mv	a1,s0
     76e:	8552                	mv	a0,s4
     770:	238020ef          	jal	ra,29a8 <I2C_CheckEvent>
     774:	dd65                	beqz	a0,76c <IMU_WriteByte+0x38>
     776:	80048513          	addi	a0,s1,-2048
     77a:	4601                	li	a2,0
     77c:	0d000593          	li	a1,208
     780:	000704b7          	lui	s1,0x70
     784:	40006437          	lui	s0,0x40006
     788:	20c020ef          	jal	ra,2994 <I2C_Send7bitAddress>
     78c:	08248493          	addi	s1,s1,130 # 70082 <_data_lma+0x66d92>
     790:	80040413          	addi	s0,s0,-2048 # 40005800 <_eusrstack+0x1fffd800>
     794:	85a6                	mv	a1,s1
     796:	8522                	mv	a0,s0
     798:	210020ef          	jal	ra,29a8 <I2C_CheckEvent>
     79c:	dd65                	beqz	a0,794 <IMU_WriteByte+0x60>
     79e:	10000437          	lui	s0,0x10000
     7a2:	400064b7          	lui	s1,0x40006
     7a6:	08040413          	addi	s0,s0,128 # 10000080 <_data_lma+0xfff6d90>
     7aa:	80048a13          	addi	s4,s1,-2048 # 40005800 <_eusrstack+0x1fffd800>
     7ae:	85a2                	mv	a1,s0
     7b0:	8552                	mv	a0,s4
     7b2:	210020ef          	jal	ra,29c2 <I2C_GetFlagStatus>
     7b6:	dd65                	beqz	a0,7ae <IMU_WriteByte+0x7a>
     7b8:	80048513          	addi	a0,s1,-2048
     7bc:	85ce                	mv	a1,s3
     7be:	000704b7          	lui	s1,0x70
     7c2:	40006437          	lui	s0,0x40006
     7c6:	1be020ef          	jal	ra,2984 <I2C_SendData>
     7ca:	08448493          	addi	s1,s1,132 # 70084 <_data_lma+0x66d94>
     7ce:	80040413          	addi	s0,s0,-2048 # 40005800 <_eusrstack+0x1fffd800>
     7d2:	85a6                	mv	a1,s1
     7d4:	8522                	mv	a0,s0
     7d6:	1d2020ef          	jal	ra,29a8 <I2C_CheckEvent>
     7da:	dd65                	beqz	a0,7d2 <IMU_WriteByte+0x9e>
     7dc:	100004b7          	lui	s1,0x10000
     7e0:	40006437          	lui	s0,0x40006
     7e4:	08048493          	addi	s1,s1,128 # 10000080 <_data_lma+0xfff6d90>
     7e8:	80040993          	addi	s3,s0,-2048 # 40005800 <_eusrstack+0x1fffd800>
     7ec:	85a6                	mv	a1,s1
     7ee:	854e                	mv	a0,s3
     7f0:	1d2020ef          	jal	ra,29c2 <I2C_GetFlagStatus>
     7f4:	dd65                	beqz	a0,7ec <IMU_WriteByte+0xb8>
     7f6:	85ca                	mv	a1,s2
     7f8:	80040513          	addi	a0,s0,-2048
     7fc:	188020ef          	jal	ra,2984 <I2C_SendData>
     800:	80040513          	addi	a0,s0,-2048
     804:	4585                	li	a1,1
     806:	142020ef          	jal	ra,2948 <I2C_GenerateSTOP>
     80a:	40f2                	lw	ra,28(sp)
     80c:	4462                	lw	s0,24(sp)
     80e:	44d2                	lw	s1,20(sp)
     810:	4942                	lw	s2,16(sp)
     812:	49b2                	lw	s3,12(sp)
     814:	4a22                	lw	s4,8(sp)
     816:	4501                	li	a0,0
     818:	6105                	addi	sp,sp,32
     81a:	8082                	ret

0000081c <IMU_SetGyroFsr>:
     81c:	00351593          	slli	a1,a0,0x3
     820:	82a184a3          	sb	a0,-2007(gp) # 20000099 <gyro_fsr>
     824:	0f85f593          	andi	a1,a1,248
     828:	456d                	li	a0,27
     82a:	b729                	j	734 <IMU_WriteByte>

0000082c <IMU_SetAccelFsr>:
     82c:	00351593          	slli	a1,a0,0x3
     830:	82a18423          	sb	a0,-2008(gp) # 20000098 <_edata>
     834:	0f85f593          	andi	a1,a1,248
     838:	4571                	li	a0,28
     83a:	bded                	j	734 <IMU_WriteByte>

0000083c <IMU_SetLPF>:
     83c:	0bb00793          	li	a5,187
     840:	4585                	li	a1,1
     842:	02a7e563          	bltu	a5,a0,86c <IMU_SetLPF+0x30>
     846:	06100793          	li	a5,97
     84a:	4589                	li	a1,2
     84c:	02a7e063          	bltu	a5,a0,86c <IMU_SetLPF+0x30>
     850:	02900793          	li	a5,41
     854:	458d                	li	a1,3
     856:	00a7eb63          	bltu	a5,a0,86c <IMU_SetLPF+0x30>
     85a:	47cd                	li	a5,19
     85c:	4591                	li	a1,4
     85e:	00a7e763          	bltu	a5,a0,86c <IMU_SetLPF+0x30>
     862:	47a5                	li	a5,9
     864:	4595                	li	a1,5
     866:	00a7e363          	bltu	a5,a0,86c <IMU_SetLPF+0x30>
     86a:	4599                	li	a1,6
     86c:	4569                	li	a0,26
     86e:	b5d9                	j	734 <IMU_WriteByte>

00000870 <IMU_SetRate>:
     870:	4791                	li	a5,4
     872:	85aa                	mv	a1,a0
     874:	00f57363          	bgeu	a0,a5,87a <IMU_SetRate+0xa>
     878:	4591                	li	a1,4
     87a:	01059713          	slli	a4,a1,0x10
     87e:	8341                	srli	a4,a4,0x10
     880:	3e800793          	li	a5,1000
     884:	00e7f463          	bgeu	a5,a4,88c <IMU_SetRate+0x1c>
     888:	3e800593          	li	a1,1000
     88c:	05c2                	slli	a1,a1,0x10
     88e:	81c1                	srli	a1,a1,0x10
     890:	3e800793          	li	a5,1000
     894:	02b7c5b3          	div	a1,a5,a1
     898:	4565                	li	a0,25
     89a:	15fd                	addi	a1,a1,-1
     89c:	0ff5f593          	andi	a1,a1,255
     8a0:	bd51                	j	734 <IMU_WriteByte>

000008a2 <IMU_ReadByte>:
     8a2:	1101                	addi	sp,sp,-32
     8a4:	cc22                	sw	s0,24(sp)
     8a6:	40006437          	lui	s0,0x40006
     8aa:	c84a                	sw	s2,16(sp)
     8ac:	4585                	li	a1,1
     8ae:	892a                	mv	s2,a0
     8b0:	80040513          	addi	a0,s0,-2048 # 40005800 <_eusrstack+0x1fffd800>
     8b4:	ce06                	sw	ra,28(sp)
     8b6:	ca26                	sw	s1,20(sp)
     8b8:	c64e                	sw	s3,12(sp)
     8ba:	0ac020ef          	jal	ra,2966 <I2C_AcknowledgeConfig>
     8be:	80040513          	addi	a0,s0,-2048
     8c2:	4585                	li	a1,1
     8c4:	00030437          	lui	s0,0x30
     8c8:	400064b7          	lui	s1,0x40006
     8cc:	05e020ef          	jal	ra,292a <I2C_GenerateSTART>
     8d0:	0405                	addi	s0,s0,1
     8d2:	80048993          	addi	s3,s1,-2048 # 40005800 <_eusrstack+0x1fffd800>
     8d6:	85a2                	mv	a1,s0
     8d8:	854e                	mv	a0,s3
     8da:	0ce020ef          	jal	ra,29a8 <I2C_CheckEvent>
     8de:	dd65                	beqz	a0,8d6 <IMU_ReadByte+0x34>
     8e0:	80048513          	addi	a0,s1,-2048
     8e4:	4601                	li	a2,0
     8e6:	0d000593          	li	a1,208
     8ea:	00070437          	lui	s0,0x70
     8ee:	400064b7          	lui	s1,0x40006
     8f2:	0a2020ef          	jal	ra,2994 <I2C_Send7bitAddress>
     8f6:	08240413          	addi	s0,s0,130 # 70082 <_data_lma+0x66d92>
     8fa:	80048993          	addi	s3,s1,-2048 # 40005800 <_eusrstack+0x1fffd800>
     8fe:	85a2                	mv	a1,s0
     900:	854e                	mv	a0,s3
     902:	0a6020ef          	jal	ra,29a8 <I2C_CheckEvent>
     906:	dd65                	beqz	a0,8fe <IMU_ReadByte+0x5c>
     908:	85ca                	mv	a1,s2
     90a:	80048513          	addi	a0,s1,-2048
     90e:	00070437          	lui	s0,0x70
     912:	400064b7          	lui	s1,0x40006
     916:	06e020ef          	jal	ra,2984 <I2C_SendData>
     91a:	08440413          	addi	s0,s0,132 # 70084 <_data_lma+0x66d94>
     91e:	80048913          	addi	s2,s1,-2048 # 40005800 <_eusrstack+0x1fffd800>
     922:	85a2                	mv	a1,s0
     924:	854a                	mv	a0,s2
     926:	082020ef          	jal	ra,29a8 <I2C_CheckEvent>
     92a:	dd65                	beqz	a0,922 <IMU_ReadByte+0x80>
     92c:	80048513          	addi	a0,s1,-2048
     930:	4585                	li	a1,1
     932:	00030437          	lui	s0,0x30
     936:	400064b7          	lui	s1,0x40006
     93a:	7f1010ef          	jal	ra,292a <I2C_GenerateSTART>
     93e:	0405                	addi	s0,s0,1
     940:	80048913          	addi	s2,s1,-2048 # 40005800 <_eusrstack+0x1fffd800>
     944:	85a2                	mv	a1,s0
     946:	854a                	mv	a0,s2
     948:	060020ef          	jal	ra,29a8 <I2C_CheckEvent>
     94c:	dd65                	beqz	a0,944 <IMU_ReadByte+0xa2>
     94e:	80048513          	addi	a0,s1,-2048
     952:	4605                	li	a2,1
     954:	0d100593          	li	a1,209
     958:	000304b7          	lui	s1,0x30
     95c:	40006437          	lui	s0,0x40006
     960:	034020ef          	jal	ra,2994 <I2C_Send7bitAddress>
     964:	0489                	addi	s1,s1,2
     966:	80040413          	addi	s0,s0,-2048 # 40005800 <_eusrstack+0x1fffd800>
     96a:	85a6                	mv	a1,s1
     96c:	8522                	mv	a0,s0
     96e:	03a020ef          	jal	ra,29a8 <I2C_CheckEvent>
     972:	dd65                	beqz	a0,96a <IMU_ReadByte+0xc8>
     974:	100004b7          	lui	s1,0x10000
     978:	40006437          	lui	s0,0x40006
     97c:	04048493          	addi	s1,s1,64 # 10000040 <_data_lma+0xfff6d50>
     980:	80040913          	addi	s2,s0,-2048 # 40005800 <_eusrstack+0x1fffd800>
     984:	85a6                	mv	a1,s1
     986:	854a                	mv	a0,s2
     988:	03a020ef          	jal	ra,29c2 <I2C_GetFlagStatus>
     98c:	dd65                	beqz	a0,984 <IMU_ReadByte+0xe2>
     98e:	80040513          	addi	a0,s0,-2048
     992:	7f9010ef          	jal	ra,298a <I2C_ReceiveData>
     996:	84aa                	mv	s1,a0
     998:	4585                	li	a1,1
     99a:	80040513          	addi	a0,s0,-2048
     99e:	7ab010ef          	jal	ra,2948 <I2C_GenerateSTOP>
     9a2:	40f2                	lw	ra,28(sp)
     9a4:	4462                	lw	s0,24(sp)
     9a6:	8526                	mv	a0,s1
     9a8:	4942                	lw	s2,16(sp)
     9aa:	44d2                	lw	s1,20(sp)
     9ac:	49b2                	lw	s3,12(sp)
     9ae:	6105                	addi	sp,sp,32
     9b0:	8082                	ret

000009b2 <IMU_Init>:
     9b2:	6561                	lui	a0,0x18
     9b4:	1141                	addi	sp,sp,-16
     9b6:	4589                	li	a1,2
     9b8:	6a050513          	addi	a0,a0,1696 # 186a0 <_data_lma+0xf3b0>
     9bc:	c606                	sw	ra,12(sp)
     9be:	995ff0ef          	jal	ra,352 <IIC_Init>
     9c2:	08000593          	li	a1,128
     9c6:	06b00513          	li	a0,107
     9ca:	33ad                	jal	734 <IMU_WriteByte>
     9cc:	1f400513          	li	a0,500
     9d0:	5ca020ef          	jal	ra,2f9a <Delay_Ms>
     9d4:	4581                	li	a1,0
     9d6:	06b00513          	li	a0,107
     9da:	3ba9                	jal	734 <IMU_WriteByte>
     9dc:	450d                	li	a0,3
     9de:	3d3d                	jal	81c <IMU_SetGyroFsr>
     9e0:	450d                	li	a0,3
     9e2:	35a9                	jal	82c <IMU_SetAccelFsr>
     9e4:	3e800513          	li	a0,1000
     9e8:	3561                	jal	870 <IMU_SetRate>
     9ea:	1f400513          	li	a0,500
     9ee:	35b9                	jal	83c <IMU_SetLPF>
     9f0:	4581                	li	a1,0
     9f2:	03800513          	li	a0,56
     9f6:	3b3d                	jal	734 <IMU_WriteByte>
     9f8:	4581                	li	a1,0
     9fa:	06a00513          	li	a0,106
     9fe:	3b1d                	jal	734 <IMU_WriteByte>
     a00:	4581                	li	a1,0
     a02:	02300513          	li	a0,35
     a06:	333d                	jal	734 <IMU_WriteByte>
     a08:	08000593          	li	a1,128
     a0c:	03700513          	li	a0,55
     a10:	3315                	jal	734 <IMU_WriteByte>
     a12:	07500513          	li	a0,117
     a16:	3571                	jal	8a2 <IMU_ReadByte>
     a18:	06800713          	li	a4,104
     a1c:	4785                	li	a5,1
     a1e:	00e51b63          	bne	a0,a4,a34 <IMU_Init+0x82>
     a22:	4585                	li	a1,1
     a24:	06b00513          	li	a0,107
     a28:	3331                	jal	734 <IMU_WriteByte>
     a2a:	4581                	li	a1,0
     a2c:	06c00513          	li	a0,108
     a30:	3311                	jal	734 <IMU_WriteByte>
     a32:	4781                	li	a5,0
     a34:	40b2                	lw	ra,12(sp)
     a36:	853e                	mv	a0,a5
     a38:	0141                	addi	sp,sp,16
     a3a:	8082                	ret

00000a3c <LCD_WriteHalfWord>:
     a3c:	00855713          	srli	a4,a0,0x8
     a40:	600207b7          	lui	a5,0x60020
     a44:	00e78023          	sb	a4,0(a5) # 60020000 <_eusrstack+0x40018000>
     a48:	0ff57513          	andi	a0,a0,255
     a4c:	00a78023          	sb	a0,0(a5)
     a50:	8082                	ret

00000a52 <LCD_ReadData>:
     a52:	600207b7          	lui	a5,0x60020
     a56:	0007c783          	lbu	a5,0(a5) # 60020000 <_eusrstack+0x40018000>
     a5a:	1141                	addi	sp,sp,-16
     a5c:	0ff7f793          	andi	a5,a5,255
     a60:	00f107a3          	sb	a5,15(sp)
     a64:	00f14503          	lbu	a0,15(sp)
     a68:	0141                	addi	sp,sp,16
     a6a:	8082                	ret

00000a6c <LCD_FSMCInit>:
     a6c:	7135                	addi	sp,sp,-160
     a6e:	03c00613          	li	a2,60
     a72:	4581                	li	a1,0
     a74:	00c8                	addi	a0,sp,68
     a76:	cf06                	sw	ra,156(sp)
     a78:	cd22                	sw	s0,152(sp)
     a7a:	cb26                	sw	s1,148(sp)
     a7c:	c94a                	sw	s2,144(sp)
     a7e:	c74e                	sw	s3,140(sp)
     a80:	c552                	sw	s4,136(sp)
     a82:	c356                	sw	s5,132(sp)
     a84:	c002                	sw	zero,0(sp)
     a86:	00c10a93          	addi	s5,sp,12
     a8a:	c202                	sw	zero,4(sp)
     a8c:	c402                	sw	zero,8(sp)
     a8e:	f72ff0ef          	jal	ra,200 <memset>
     a92:	4671                	li	a2,28
     a94:	4581                	li	a1,0
     a96:	8556                	mv	a0,s5
     a98:	f68ff0ef          	jal	ra,200 <memset>
     a9c:	02810a13          	addi	s4,sp,40
     aa0:	4671                	li	a2,28
     aa2:	4581                	li	a1,0
     aa4:	8552                	mv	a0,s4
     aa6:	f5aff0ef          	jal	ra,200 <memset>
     aaa:	4585                	li	a1,1
     aac:	10000513          	li	a0,256
     ab0:	110020ef          	jal	ra,2bc0 <RCC_AHBPeriphClockCmd>
     ab4:	4585                	li	a1,1
     ab6:	06800513          	li	a0,104
     aba:	124020ef          	jal	ra,2bde <RCC_APB2PeriphClockCmd>
     abe:	400114b7          	lui	s1,0x40011
     ac2:	77f1                	lui	a5,0xffffc
     ac4:	440d                	li	s0,3
     ac6:	49e1                	li	s3,24
     ac8:	73378793          	addi	a5,a5,1843 # ffffc733 <_eusrstack+0xdfff4733>
     acc:	858a                	mv	a1,sp
     ace:	40048513          	addi	a0,s1,1024 # 40011400 <_eusrstack+0x20009400>
     ad2:	00f11023          	sh	a5,0(sp)
     ad6:	c44e                	sw	s3,8(sp)
     ad8:	c222                	sw	s0,4(sp)
     ada:	429010ef          	jal	ra,2702 <GPIO_Init>
     ade:	40012537          	lui	a0,0x40012
     ae2:	f8000793          	li	a5,-128
     ae6:	858a                	mv	a1,sp
     ae8:	80050513          	addi	a0,a0,-2048 # 40011800 <_eusrstack+0x20009800>
     aec:	00f11023          	sh	a5,0(sp)
     af0:	c44e                	sw	s3,8(sp)
     af2:	c222                	sw	s0,4(sp)
     af4:	40f010ef          	jal	ra,2702 <GPIO_Init>
     af8:	858a                	mv	a1,sp
     afa:	40048513          	addi	a0,s1,1024
     afe:	6905                	lui	s2,0x1
     b00:	01211023          	sh	s2,0(sp)
     b04:	c44e                	sw	s3,8(sp)
     b06:	c222                	sw	s0,4(sp)
     b08:	3fb010ef          	jal	ra,2702 <GPIO_Init>
     b0c:	47c1                	li	a5,16
     b0e:	858a                	mv	a1,sp
     b10:	40048513          	addi	a0,s1,1024
     b14:	80090913          	addi	s2,s2,-2048 # 800 <__stack_size>
     b18:	c43e                	sw	a5,8(sp)
     b1a:	01211023          	sh	s2,0(sp)
     b1e:	c222                	sw	s0,4(sp)
     b20:	6905                	lui	s2,0x1
     b22:	3e1010ef          	jal	ra,2702 <GPIO_Init>
     b26:	80090593          	addi	a1,s2,-2048 # 800 <__stack_size>
     b2a:	40048513          	addi	a0,s1,1024
     b2e:	497010ef          	jal	ra,27c4 <GPIO_ResetBits>
     b32:	4785                	li	a5,1
     b34:	c63e                	sw	a5,12(sp)
     b36:	47bd                	li	a5,15
     b38:	ca3e                	sw	a5,20(sp)
     b3a:	00c8                	addi	a0,sp,68
     b3c:	6791                	lui	a5,0x4
     b3e:	d822                	sw	s0,48(sp)
     b40:	d4ca                	sw	s2,104(sp)
     b42:	d8be                	sw	a5,112(sp)
     b44:	dcd6                	sw	s5,120(sp)
     b46:	ded2                	sw	s4,124(sp)
     b48:	c802                	sw	zero,16(sp)
     b4a:	cc02                	sw	zero,24(sp)
     b4c:	ce02                	sw	zero,28(sp)
     b4e:	d002                	sw	zero,32(sp)
     b50:	d202                	sw	zero,36(sp)
     b52:	d402                	sw	zero,40(sp)
     b54:	d602                	sw	zero,44(sp)
     b56:	da02                	sw	zero,52(sp)
     b58:	dc02                	sw	zero,56(sp)
     b5a:	de02                	sw	zero,60(sp)
     b5c:	c082                	sw	zero,64(sp)
     b5e:	c282                	sw	zero,68(sp)
     b60:	c482                	sw	zero,72(sp)
     b62:	c682                	sw	zero,76(sp)
     b64:	c882                	sw	zero,80(sp)
     b66:	ca82                	sw	zero,84(sp)
     b68:	ce82                	sw	zero,92(sp)
     b6a:	cc82                	sw	zero,88(sp)
     b6c:	d082                	sw	zero,96(sp)
     b6e:	d282                	sw	zero,100(sp)
     b70:	d682                	sw	zero,108(sp)
     b72:	da82                	sw	zero,116(sp)
     b74:	2b7010ef          	jal	ra,262a <FSMC_NORSRAMInit>
     b78:	4585                	li	a1,1
     b7a:	4501                	li	a0,0
     b7c:	369010ef          	jal	ra,26e4 <FSMC_NORSRAMCmd>
     b80:	40fa                	lw	ra,156(sp)
     b82:	446a                	lw	s0,152(sp)
     b84:	44da                	lw	s1,148(sp)
     b86:	494a                	lw	s2,144(sp)
     b88:	49ba                	lw	s3,140(sp)
     b8a:	4a2a                	lw	s4,136(sp)
     b8c:	4a9a                	lw	s5,132(sp)
     b8e:	610d                	addi	sp,sp,160
     b90:	8082                	ret

00000b92 <LCD_GPIOInit>:
     b92:	6505                	lui	a0,0x1
     b94:	7139                	addi	sp,sp,-64
     b96:	4585                	li	a1,1
     b98:	80950513          	addi	a0,a0,-2039 # 809 <__stack_size+0x9>
     b9c:	de06                	sw	ra,60(sp)
     b9e:	dc22                	sw	s0,56(sp)
     ba0:	03e020ef          	jal	ra,2bde <RCC_APB2PeriphClockCmd>
     ba4:	6791                	lui	a5,0x4
     ba6:	00f11a23          	sh	a5,20(sp)
     baa:	40011537          	lui	a0,0x40011
     bae:	47e1                	li	a5,24
     bb0:	ce3e                	sw	a5,28(sp)
     bb2:	084c                	addi	a1,sp,20
     bb4:	478d                	li	a5,3
     bb6:	c0050513          	addi	a0,a0,-1024 # 40010c00 <_eusrstack+0x20008c00>
     bba:	cc3e                	sw	a5,24(sp)
     bbc:	347010ef          	jal	ra,2702 <GPIO_Init>
     bc0:	40013437          	lui	s0,0x40013
     bc4:	08f00793          	li	a5,143
     bc8:	c43e                	sw	a5,8(sp)
     bca:	002c                	addi	a1,sp,8
     bcc:	06400793          	li	a5,100
     bd0:	c0040513          	addi	a0,s0,-1024 # 40012c00 <_eusrstack+0x2000ac00>
     bd4:	c63e                	sw	a5,12(sp)
     bd6:	044020ef          	jal	ra,2c1a <TIM_TimeBaseInit>
     bda:	06000793          	li	a5,96
     bde:	02f11023          	sh	a5,32(sp)
     be2:	003207b7          	lui	a5,0x320
     be6:	0791                	addi	a5,a5,4
     be8:	100c                	addi	a1,sp,32
     bea:	c0040513          	addi	a0,s0,-1024
     bee:	d23e                	sw	a5,36(sp)
     bf0:	02011523          	sh	zero,42(sp)
     bf4:	0e6020ef          	jal	ra,2cda <TIM_OC2Init>
     bf8:	c0040513          	addi	a0,s0,-1024
     bfc:	4585                	li	a1,1
     bfe:	1c4020ef          	jal	ra,2dc2 <TIM_CtrlPWMOutputs>
     c02:	c0040513          	addi	a0,s0,-1024
     c06:	4581                	li	a1,0
     c08:	204020ef          	jal	ra,2e0c <TIM_OC2PreloadConfig>
     c0c:	c0040513          	addi	a0,s0,-1024
     c10:	4585                	li	a1,1
     c12:	1dc020ef          	jal	ra,2dee <TIM_ARRPreloadConfig>
     c16:	c0040513          	addi	a0,s0,-1024
     c1a:	4585                	li	a1,1
     c1c:	18a020ef          	jal	ra,2da6 <TIM_Cmd>
     c20:	50f2                	lw	ra,60(sp)
     c22:	5462                	lw	s0,56(sp)
     c24:	6121                	addi	sp,sp,64
     c26:	8082                	ret

00000c28 <LCD_SetBrightness>:
     c28:	06400793          	li	a5,100
     c2c:	0ff57593          	andi	a1,a0,255
     c30:	00a7f463          	bgeu	a5,a0,c38 <LCD_SetBrightness+0x10>
     c34:	06400593          	li	a1,100
     c38:	40013537          	lui	a0,0x40013
     c3c:	c0050513          	addi	a0,a0,-1024 # 40012c00 <_eusrstack+0x2000ac00>
     c40:	1e60206f          	j	2e26 <TIM_SetCompare2>

00000c44 <LCD_ConvertColor>:
     c44:	00855793          	srli	a5,a0,0x8
     c48:	00555713          	srli	a4,a0,0x5
     c4c:	7e077713          	andi	a4,a4,2016
     c50:	8007f793          	andi	a5,a5,-2048
     c54:	810d                	srli	a0,a0,0x3
     c56:	8fd9                	or	a5,a5,a4
     c58:	897d                	andi	a0,a0,31
     c5a:	8d5d                	or	a0,a0,a5
     c5c:	0542                	slli	a0,a0,0x10
     c5e:	8141                	srli	a0,a0,0x10
     c60:	8082                	ret

00000c62 <LCD_SetColor>:
     c62:	82019523          	sh	zero,-2006(gp) # 2000009a <BACK_COLOR>
     c66:	200007b7          	lui	a5,0x20000
     c6a:	06b79823          	sh	a1,112(a5) # 20000070 <FORE_COLOR>
     c6e:	8082                	ret

00000c70 <LCD_AddressSetWrite>:
     c70:	600207b7          	lui	a5,0x60020
     c74:	02a00713          	li	a4,42
     c78:	fee78fa3          	sb	a4,-1(a5) # 6001ffff <_eusrstack+0x40017fff>
     c7c:	00855713          	srli	a4,a0,0x8
     c80:	00e78023          	sb	a4,0(a5)
     c84:	0ff57513          	andi	a0,a0,255
     c88:	00a78023          	sb	a0,0(a5)
     c8c:	00865713          	srli	a4,a2,0x8
     c90:	00e78023          	sb	a4,0(a5)
     c94:	0ff67613          	andi	a2,a2,255
     c98:	00c78023          	sb	a2,0(a5)
     c9c:	02b00713          	li	a4,43
     ca0:	fee78fa3          	sb	a4,-1(a5)
     ca4:	0085d713          	srli	a4,a1,0x8
     ca8:	00e78023          	sb	a4,0(a5)
     cac:	0ff5f593          	andi	a1,a1,255
     cb0:	00b78023          	sb	a1,0(a5)
     cb4:	0086d713          	srli	a4,a3,0x8
     cb8:	00e78023          	sb	a4,0(a5)
     cbc:	0ff6f693          	andi	a3,a3,255
     cc0:	00d78023          	sb	a3,0(a5)
     cc4:	02c00713          	li	a4,44
     cc8:	fee78fa3          	sb	a4,-1(a5)
     ccc:	8082                	ret

00000cce <LCD_AddressSetRead>:
     cce:	600207b7          	lui	a5,0x60020
     cd2:	02a00713          	li	a4,42
     cd6:	fee78fa3          	sb	a4,-1(a5) # 6001ffff <_eusrstack+0x40017fff>
     cda:	00855713          	srli	a4,a0,0x8
     cde:	00e78023          	sb	a4,0(a5)
     ce2:	0ff57513          	andi	a0,a0,255
     ce6:	00a78023          	sb	a0,0(a5)
     cea:	00865713          	srli	a4,a2,0x8
     cee:	00e78023          	sb	a4,0(a5)
     cf2:	0ff67613          	andi	a2,a2,255
     cf6:	00c78023          	sb	a2,0(a5)
     cfa:	02b00713          	li	a4,43
     cfe:	fee78fa3          	sb	a4,-1(a5)
     d02:	0085d713          	srli	a4,a1,0x8
     d06:	00e78023          	sb	a4,0(a5)
     d0a:	0ff5f593          	andi	a1,a1,255
     d0e:	00b78023          	sb	a1,0(a5)
     d12:	0086d713          	srli	a4,a3,0x8
     d16:	00e78023          	sb	a4,0(a5)
     d1a:	0ff6f693          	andi	a3,a3,255
     d1e:	00d78023          	sb	a3,0(a5)
     d22:	02e00713          	li	a4,46
     d26:	fee78fa3          	sb	a4,-1(a5)
     d2a:	8082                	ret

00000d2c <LCD_Clear>:
     d2c:	1141                	addi	sp,sp,-16
     d2e:	c422                	sw	s0,8(sp)
     d30:	c226                	sw	s1,4(sp)
     d32:	0ef00693          	li	a3,239
     d36:	00855493          	srli	s1,a0,0x8
     d3a:	0ff57413          	andi	s0,a0,255
     d3e:	0ef00613          	li	a2,239
     d42:	4581                	li	a1,0
     d44:	4501                	li	a0,0
     d46:	c606                	sw	ra,12(sp)
     d48:	3725                	jal	c70 <LCD_AddressSetWrite>
     d4a:	0f000713          	li	a4,240
     d4e:	600206b7          	lui	a3,0x60020
     d52:	0f000793          	li	a5,240
     d56:	17fd                	addi	a5,a5,-1
     d58:	00968023          	sb	s1,0(a3) # 60020000 <_eusrstack+0x40018000>
     d5c:	07c2                	slli	a5,a5,0x10
     d5e:	00868023          	sb	s0,0(a3)
     d62:	83c1                	srli	a5,a5,0x10
     d64:	fbed                	bnez	a5,d56 <LCD_Clear+0x2a>
     d66:	177d                	addi	a4,a4,-1
     d68:	0742                	slli	a4,a4,0x10
     d6a:	8341                	srli	a4,a4,0x10
     d6c:	f37d                	bnez	a4,d52 <LCD_Clear+0x26>
     d6e:	40b2                	lw	ra,12(sp)
     d70:	4422                	lw	s0,8(sp)
     d72:	4492                	lw	s1,4(sp)
     d74:	0141                	addi	sp,sp,16
     d76:	8082                	ret

00000d78 <LCD_Init>:
     d78:	1101                	addi	sp,sp,-32
     d7a:	ce06                	sw	ra,28(sp)
     d7c:	cc22                	sw	s0,24(sp)
     d7e:	ca26                	sw	s1,20(sp)
     d80:	c84a                	sw	s2,16(sp)
     d82:	3d01                	jal	b92 <LCD_GPIOInit>
     d84:	31e5                	jal	a6c <LCD_FSMCInit>
     d86:	60020437          	lui	s0,0x60020
     d8a:	4791                	li	a5,4
     d8c:	fef40fa3          	sb	a5,-1(s0) # 6001ffff <_eusrstack+0x40017fff>
     d90:	31c9                	jal	a52 <LCD_ReadData>
     d92:	31c1                	jal	a52 <LCD_ReadData>
     d94:	c62a                	sw	a0,12(sp)
     d96:	3975                	jal	a52 <LCD_ReadData>
     d98:	892a                	mv	s2,a0
     d9a:	3965                	jal	a52 <LCD_ReadData>
     d9c:	45b2                	lw	a1,12(sp)
     d9e:	84aa                	mv	s1,a0
     da0:	00006537          	lui	a0,0x6
     da4:	e7c50513          	addi	a0,a0,-388 # 5e7c <_read+0x4a>
     da8:	10d030ef          	jal	ra,46b4 <iprintf>
     dac:	00006537          	lui	a0,0x6
     db0:	85ca                	mv	a1,s2
     db2:	e9c50513          	addi	a0,a0,-356 # 5e9c <_read+0x6a>
     db6:	0ff030ef          	jal	ra,46b4 <iprintf>
     dba:	00006537          	lui	a0,0x6
     dbe:	85a6                	mv	a1,s1
     dc0:	eb050513          	addi	a0,a0,-336 # 5eb0 <_read+0x7e>
     dc4:	0f1030ef          	jal	ra,46b4 <iprintf>
     dc8:	03200513          	li	a0,50
     dcc:	1ce020ef          	jal	ra,2f9a <Delay_Ms>
     dd0:	03600793          	li	a5,54
     dd4:	fef40fa3          	sb	a5,-1(s0)
     dd8:	00040023          	sb	zero,0(s0)
     ddc:	03a00613          	li	a2,58
     de0:	fec40fa3          	sb	a2,-1(s0)
     de4:	4795                	li	a5,5
     de6:	00f40023          	sb	a5,0(s0)
     dea:	fb200793          	li	a5,-78
     dee:	fef40fa3          	sb	a5,-1(s0)
     df2:	46b1                	li	a3,12
     df4:	00d40023          	sb	a3,0(s0)
     df8:	00d40023          	sb	a3,0(s0)
     dfc:	00040023          	sb	zero,0(s0)
     e00:	03300793          	li	a5,51
     e04:	00f40023          	sb	a5,0(s0)
     e08:	00f40023          	sb	a5,0(s0)
     e0c:	fb700713          	li	a4,-73
     e10:	fee40fa3          	sb	a4,-1(s0)
     e14:	00040023          	sb	zero,0(s0)
     e18:	fbb00713          	li	a4,-69
     e1c:	fee40fa3          	sb	a4,-1(s0)
     e20:	03f00313          	li	t1,63
     e24:	00640023          	sb	t1,0(s0)
     e28:	fc000713          	li	a4,-64
     e2c:	fee40fa3          	sb	a4,-1(s0)
     e30:	02c00713          	li	a4,44
     e34:	00e40023          	sb	a4,0(s0)
     e38:	fc200713          	li	a4,-62
     e3c:	fee40fa3          	sb	a4,-1(s0)
     e40:	4705                	li	a4,1
     e42:	00e40023          	sb	a4,0(s0)
     e46:	fc300713          	li	a4,-61
     e4a:	fee40fa3          	sb	a4,-1(s0)
     e4e:	48b5                	li	a7,13
     e50:	01140023          	sb	a7,0(s0)
     e54:	fc400713          	li	a4,-60
     e58:	fee40fa3          	sb	a4,-1(s0)
     e5c:	02000713          	li	a4,32
     e60:	00e40023          	sb	a4,0(s0)
     e64:	fc600713          	li	a4,-58
     e68:	fee40fa3          	sb	a4,-1(s0)
     e6c:	470d                	li	a4,3
     e6e:	00e40023          	sb	a4,0(s0)
     e72:	fd000593          	li	a1,-48
     e76:	feb40fa3          	sb	a1,-1(s0)
     e7a:	fa400593          	li	a1,-92
     e7e:	00b40023          	sb	a1,0(s0)
     e82:	fa100593          	li	a1,-95
     e86:	00b40023          	sb	a1,0(s0)
     e8a:	5581                	li	a1,-32
     e8c:	feb40fa3          	sb	a1,-1(s0)
     e90:	5841                	li	a6,-16
     e92:	01040023          	sb	a6,0(s0)
     e96:	00e40023          	sb	a4,0(s0)
     e9a:	45a5                	li	a1,9
     e9c:	00b40023          	sb	a1,0(s0)
     ea0:	00e40023          	sb	a4,0(s0)
     ea4:	4541                	li	a0,16
     ea6:	00e40023          	sb	a4,0(s0)
     eaa:	02d00593          	li	a1,45
     eae:	00a40023          	sb	a0,0(s0)
     eb2:	00b40023          	sb	a1,0(s0)
     eb6:	04300713          	li	a4,67
     eba:	00e40023          	sb	a4,0(s0)
     ebe:	00640023          	sb	t1,0(s0)
     ec2:	00f40023          	sb	a5,0(s0)
     ec6:	01140023          	sb	a7,0(s0)
     eca:	4739                	li	a4,14
     ecc:	00e40023          	sb	a4,0(s0)
     ed0:	02900493          	li	s1,41
     ed4:	00940023          	sb	s1,0(s0)
     ed8:	03200893          	li	a7,50
     edc:	01140023          	sb	a7,0(s0)
     ee0:	5885                	li	a7,-31
     ee2:	ff140fa3          	sb	a7,-1(s0)
     ee6:	01040023          	sb	a6,0(s0)
     eea:	00d40023          	sb	a3,0(s0)
     eee:	00a40023          	sb	a0,0(s0)
     ef2:	00e40023          	sb	a4,0(s0)
     ef6:	00e40023          	sb	a4,0(s0)
     efa:	4729                	li	a4,10
     efc:	00e40023          	sb	a4,0(s0)
     f00:	00b40023          	sb	a1,0(s0)
     f04:	00f40023          	sb	a5,0(s0)
     f08:	04500793          	li	a5,69
     f0c:	00f40023          	sb	a5,0(s0)
     f10:	00c40023          	sb	a2,0(s0)
     f14:	47d1                	li	a5,20
     f16:	00f40023          	sb	a5,0(s0)
     f1a:	47e5                	li	a5,25
     f1c:	00f40023          	sb	a5,0(s0)
     f20:	03100793          	li	a5,49
     f24:	00f40023          	sb	a5,0(s0)
     f28:	03700793          	li	a5,55
     f2c:	00f40023          	sb	a5,0(s0)
     f30:	02100793          	li	a5,33
     f34:	fef40fa3          	sb	a5,-1(s0)
     f38:	47c5                	li	a5,17
     f3a:	fef40fa3          	sb	a5,-1(s0)
     f3e:	06400513          	li	a0,100
     f42:	058020ef          	jal	ra,2f9a <Delay_Ms>
     f46:	4501                	li	a0,0
     f48:	33d5                	jal	d2c <LCD_Clear>
     f4a:	fe940fa3          	sb	s1,-1(s0)
     f4e:	40f2                	lw	ra,28(sp)
     f50:	4462                	lw	s0,24(sp)
     f52:	44d2                	lw	s1,20(sp)
     f54:	4942                	lw	s2,16(sp)
     f56:	6105                	addi	sp,sp,32
     f58:	8082                	ret

00000f5a <LCD_ShowChar>:
     f5a:	0016d813          	srli	a6,a3,0x1
     f5e:	0f000793          	li	a5,240
     f62:	41078833          	sub	a6,a5,a6
     f66:	38a86063          	bltu	a6,a0,12e6 <LCD_ShowChar+0x38c>
     f6a:	8f95                	sub	a5,a5,a3
     f6c:	36b7ed63          	bltu	a5,a1,12e6 <LCD_ShowChar+0x38c>
     f70:	9c010113          	addi	sp,sp,-1600
     f74:	62812c23          	sw	s0,1592(sp)
     f78:	62912a23          	sw	s1,1588(sp)
     f7c:	63212823          	sw	s2,1584(sp)
     f80:	63312623          	sw	s3,1580(sp)
     f84:	1601                	addi	a2,a2,-32
     f86:	62112e23          	sw	ra,1596(sp)
     f8a:	63412423          	sw	s4,1576(sp)
     f8e:	63512223          	sw	s5,1572(sp)
     f92:	63612023          	sw	s6,1568(sp)
     f96:	61712e23          	sw	s7,1564(sp)
     f9a:	61812c23          	sw	s8,1560(sp)
     f9e:	61912a23          	sw	s9,1556(sp)
     fa2:	61a12823          	sw	s10,1552(sp)
     fa6:	61b12623          	sw	s11,1548(sp)
     faa:	47c1                	li	a5,16
     fac:	89ba                	mv	s3,a4
     fae:	84ae                	mv	s1,a1
     fb0:	842a                	mv	s0,a0
     fb2:	0ff67913          	andi	s2,a2,255
     fb6:	10f69363          	bne	a3,a5,10bc <LCD_ShowChar+0x162>
     fba:	00740a13          	addi	s4,s0,7
     fbe:	00f48a93          	addi	s5,s1,15
     fc2:	18000613          	li	a2,384
     fc6:	4581                	li	a1,0
     fc8:	850a                	mv	a0,sp
     fca:	0a42                	slli	s4,s4,0x10
     fcc:	0ac2                	slli	s5,s5,0x10
     fce:	a32ff0ef          	jal	ra,200 <memset>
     fd2:	010a5a13          	srli	s4,s4,0x10
     fd6:	010ada93          	srli	s5,s5,0x10
     fda:	08098c63          	beqz	s3,1072 <LCD_ShowChar+0x118>
     fde:	86d6                	mv	a3,s5
     fe0:	85a6                	mv	a1,s1
     fe2:	8652                	mv	a2,s4
     fe4:	8522                	mv	a0,s0
     fe6:	6a99                	lui	s5,0x6
     fe8:	3161                	jal	c70 <LCD_AddressSetWrite>
     fea:	0912                	slli	s2,s2,0x4
     fec:	4481                	li	s1,0
     fee:	f30a8a93          	addi	s5,s5,-208 # 5f30 <asc2_1608>
     ff2:	4be1                	li	s7,24
     ff4:	20000cb7          	lui	s9,0x20000
     ff8:	4b41                	li	s6,16
     ffa:	03748433          	mul	s0,s1,s7
     ffe:	009907b3          	add	a5,s2,s1
    1002:	97d6                	add	a5,a5,s5
    1004:	0007cd03          	lbu	s10,0(a5)
    1008:	4a21                	li	s4,8
    100a:	940a                	add	s0,s0,sp
    100c:	018d1793          	slli	a5,s10,0x18
    1010:	87e1                	srai	a5,a5,0x18
    1012:	0807d463          	bgez	a5,109a <LCD_ShowChar+0x140>
    1016:	070cd503          	lhu	a0,112(s9) # 20000070 <FORE_COLOR>
    101a:	1a7d                	addi	s4,s4,-1
    101c:	0a42                	slli	s4,s4,0x10
    101e:	0d06                	slli	s10,s10,0x1
    1020:	010a5a13          	srli	s4,s4,0x10
    1024:	a19ff0ef          	jal	ra,a3c <LCD_WriteHalfWord>
    1028:	0ffd7d13          	andi	s10,s10,255
    102c:	040d                	addi	s0,s0,3
    102e:	fc0a1fe3          	bnez	s4,100c <LCD_ShowChar+0xb2>
    1032:	0485                	addi	s1,s1,1
    1034:	fd6493e3          	bne	s1,s6,ffa <LCD_ShowChar+0xa0>
    1038:	63c12083          	lw	ra,1596(sp)
    103c:	63812403          	lw	s0,1592(sp)
    1040:	63412483          	lw	s1,1588(sp)
    1044:	63012903          	lw	s2,1584(sp)
    1048:	62c12983          	lw	s3,1580(sp)
    104c:	62812a03          	lw	s4,1576(sp)
    1050:	62412a83          	lw	s5,1572(sp)
    1054:	62012b03          	lw	s6,1568(sp)
    1058:	61c12b83          	lw	s7,1564(sp)
    105c:	61812c03          	lw	s8,1560(sp)
    1060:	61412c83          	lw	s9,1556(sp)
    1064:	61012d03          	lw	s10,1552(sp)
    1068:	60c12d83          	lw	s11,1548(sp)
    106c:	64010113          	addi	sp,sp,1600
    1070:	8082                	ret
    1072:	86d6                	mv	a3,s5
    1074:	8652                	mv	a2,s4
    1076:	85a6                	mv	a1,s1
    1078:	8522                	mv	a0,s0
    107a:	3991                	jal	cce <LCD_AddressSetRead>
    107c:	9d7ff0ef          	jal	ra,a52 <LCD_ReadData>
    1080:	4b01                	li	s6,0
    1082:	18000b93          	li	s7,384
    1086:	9cdff0ef          	jal	ra,a52 <LCD_ReadData>
    108a:	016107b3          	add	a5,sp,s6
    108e:	00a78023          	sb	a0,0(a5)
    1092:	0b05                	addi	s6,s6,1
    1094:	ff7b19e3          	bne	s6,s7,1086 <LCD_ShowChar+0x12c>
    1098:	b799                	j	fde <LCD_ShowChar+0x84>
    109a:	00098563          	beqz	s3,10a4 <LCD_ShowChar+0x14a>
    109e:	82a1d503          	lhu	a0,-2006(gp) # 2000009a <BACK_COLOR>
    10a2:	bfa5                	j	101a <LCD_ShowChar+0xc0>
    10a4:	00044783          	lbu	a5,0(s0)
    10a8:	00144503          	lbu	a0,1(s0)
    10ac:	07c2                	slli	a5,a5,0x10
    10ae:	0522                	slli	a0,a0,0x8
    10b0:	8fc9                	or	a5,a5,a0
    10b2:	00244503          	lbu	a0,2(s0)
    10b6:	8d5d                	or	a0,a0,a5
    10b8:	3671                	jal	c44 <LCD_ConvertColor>
    10ba:	b785                	j	101a <LCD_ShowChar+0xc0>
    10bc:	47e1                	li	a5,24
    10be:	10f69563          	bne	a3,a5,11c8 <LCD_ShowChar+0x26e>
    10c2:	00b40a93          	addi	s5,s0,11
    10c6:	01748a13          	addi	s4,s1,23
    10ca:	36000613          	li	a2,864
    10ce:	4581                	li	a1,0
    10d0:	850a                	mv	a0,sp
    10d2:	0ac2                	slli	s5,s5,0x10
    10d4:	0a42                	slli	s4,s4,0x10
    10d6:	92aff0ef          	jal	ra,200 <memset>
    10da:	010ada93          	srli	s5,s5,0x10
    10de:	010a5a13          	srli	s4,s4,0x10
    10e2:	08098263          	beqz	s3,1166 <LCD_ShowChar+0x20c>
    10e6:	85a6                	mv	a1,s1
    10e8:	86d2                	mv	a3,s4
    10ea:	8656                	mv	a2,s5
    10ec:	8522                	mv	a0,s0
    10ee:	3649                	jal	c70 <LCD_AddressSetWrite>
    10f0:	18000793          	li	a5,384
    10f4:	02f90933          	mul	s2,s2,a5
    10f8:	6c19                	lui	s8,0x6
    10fa:	848a                	mv	s1,sp
    10fc:	4c81                	li	s9,0
    10fe:	510c0c13          	addi	s8,s8,1296 # 6510 <asc2_2412>
    1102:	20000db7          	lui	s11,0x20000
    1106:	00395913          	srli	s2,s2,0x3
    110a:	010c9b13          	slli	s6,s9,0x10
    110e:	03000793          	li	a5,48
    1112:	010b5b13          	srli	s6,s6,0x10
    1116:	f2fc81e3          	beq	s9,a5,1038 <LCD_ShowChar+0xde>
    111a:	01990733          	add	a4,s2,s9
    111e:	9762                	add	a4,a4,s8
    1120:	001b7b13          	andi	s6,s6,1
    1124:	00074a83          	lbu	s5,0(a4)
    1128:	4ba1                	li	s7,8
    112a:	000b0363          	beqz	s6,1130 <LCD_ShowChar+0x1d6>
    112e:	4b91                	li	s7,4
    1130:	0bc2                	slli	s7,s7,0x10
    1132:	8426                	mv	s0,s1
    1134:	4a01                	li	s4,0
    1136:	010bdb93          	srli	s7,s7,0x10
    113a:	018a9713          	slli	a4,s5,0x18
    113e:	8761                	srai	a4,a4,0x18
    1140:	04075763          	bgez	a4,118e <LCD_ShowChar+0x234>
    1144:	070dd503          	lhu	a0,112(s11) # 20000070 <FORE_COLOR>
    1148:	0a05                	addi	s4,s4,1
    114a:	0a42                	slli	s4,s4,0x10
    114c:	0a86                	slli	s5,s5,0x1
    114e:	010a5a13          	srli	s4,s4,0x10
    1152:	8ebff0ef          	jal	ra,a3c <LCD_WriteHalfWord>
    1156:	0ffafa93          	andi	s5,s5,255
    115a:	040d                	addi	s0,s0,3
    115c:	fd7a6fe3          	bltu	s4,s7,113a <LCD_ShowChar+0x1e0>
    1160:	0c85                	addi	s9,s9,1
    1162:	04c9                	addi	s1,s1,18
    1164:	b75d                	j	110a <LCD_ShowChar+0x1b0>
    1166:	86d2                	mv	a3,s4
    1168:	8656                	mv	a2,s5
    116a:	85a6                	mv	a1,s1
    116c:	8522                	mv	a0,s0
    116e:	3685                	jal	cce <LCD_AddressSetRead>
    1170:	8e3ff0ef          	jal	ra,a52 <LCD_ReadData>
    1174:	4b01                	li	s6,0
    1176:	36000b93          	li	s7,864
    117a:	8d9ff0ef          	jal	ra,a52 <LCD_ReadData>
    117e:	016107b3          	add	a5,sp,s6
    1182:	00a78023          	sb	a0,0(a5)
    1186:	0b05                	addi	s6,s6,1
    1188:	ff7b19e3          	bne	s6,s7,117a <LCD_ShowChar+0x220>
    118c:	bfa9                	j	10e6 <LCD_ShowChar+0x18c>
    118e:	00098563          	beqz	s3,1198 <LCD_ShowChar+0x23e>
    1192:	82a1d503          	lhu	a0,-2006(gp) # 2000009a <BACK_COLOR>
    1196:	bf4d                	j	1148 <LCD_ShowChar+0x1ee>
    1198:	000b1e63          	bnez	s6,11b4 <LCD_ShowChar+0x25a>
    119c:	00044703          	lbu	a4,0(s0)
    11a0:	00144503          	lbu	a0,1(s0)
    11a4:	0742                	slli	a4,a4,0x10
    11a6:	0522                	slli	a0,a0,0x8
    11a8:	8f49                	or	a4,a4,a0
    11aa:	00244503          	lbu	a0,2(s0)
    11ae:	8d59                	or	a0,a0,a4
    11b0:	3c51                	jal	c44 <LCD_ConvertColor>
    11b2:	bf59                	j	1148 <LCD_ShowChar+0x1ee>
    11b4:	00644703          	lbu	a4,6(s0)
    11b8:	00744503          	lbu	a0,7(s0)
    11bc:	0742                	slli	a4,a4,0x10
    11be:	0522                	slli	a0,a0,0x8
    11c0:	8f49                	or	a4,a4,a0
    11c2:	00844503          	lbu	a0,8(s0)
    11c6:	b7e5                	j	11ae <LCD_ShowChar+0x254>
    11c8:	02000793          	li	a5,32
    11cc:	0cf69b63          	bne	a3,a5,12a2 <LCD_ShowChar+0x348>
    11d0:	00f40a13          	addi	s4,s0,15
    11d4:	01f48a93          	addi	s5,s1,31
    11d8:	60000613          	li	a2,1536
    11dc:	4581                	li	a1,0
    11de:	850a                	mv	a0,sp
    11e0:	0a42                	slli	s4,s4,0x10
    11e2:	0ac2                	slli	s5,s5,0x10
    11e4:	81cff0ef          	jal	ra,200 <memset>
    11e8:	010a5a13          	srli	s4,s4,0x10
    11ec:	010ada93          	srli	s5,s5,0x10
    11f0:	06098263          	beqz	s3,1254 <LCD_ShowChar+0x2fa>
    11f4:	86d6                	mv	a3,s5
    11f6:	85a6                	mv	a1,s1
    11f8:	8652                	mv	a2,s4
    11fa:	8522                	mv	a0,s0
    11fc:	6a9d                	lui	s5,0x7
    11fe:	a73ff0ef          	jal	ra,c70 <LCD_AddressSetWrite>
    1202:	091a                	slli	s2,s2,0x6
    1204:	4481                	li	s1,0
    1206:	6b0a8a93          	addi	s5,s5,1712 # 76b0 <asc2_3216>
    120a:	4be1                	li	s7,24
    120c:	20000cb7          	lui	s9,0x20000
    1210:	04000b13          	li	s6,64
    1214:	03748433          	mul	s0,s1,s7
    1218:	009907b3          	add	a5,s2,s1
    121c:	97d6                	add	a5,a5,s5
    121e:	0007cd03          	lbu	s10,0(a5)
    1222:	4a21                	li	s4,8
    1224:	940a                	add	s0,s0,sp
    1226:	018d1793          	slli	a5,s10,0x18
    122a:	87e1                	srai	a5,a5,0x18
    122c:	0407d963          	bgez	a5,127e <LCD_ShowChar+0x324>
    1230:	070cd503          	lhu	a0,112(s9) # 20000070 <FORE_COLOR>
    1234:	1a7d                	addi	s4,s4,-1
    1236:	0a42                	slli	s4,s4,0x10
    1238:	0d06                	slli	s10,s10,0x1
    123a:	010a5a13          	srli	s4,s4,0x10
    123e:	ffeff0ef          	jal	ra,a3c <LCD_WriteHalfWord>
    1242:	0ffd7d13          	andi	s10,s10,255
    1246:	040d                	addi	s0,s0,3
    1248:	fc0a1fe3          	bnez	s4,1226 <LCD_ShowChar+0x2cc>
    124c:	0485                	addi	s1,s1,1
    124e:	fd6493e3          	bne	s1,s6,1214 <LCD_ShowChar+0x2ba>
    1252:	b3dd                	j	1038 <LCD_ShowChar+0xde>
    1254:	86d6                	mv	a3,s5
    1256:	8652                	mv	a2,s4
    1258:	85a6                	mv	a1,s1
    125a:	8522                	mv	a0,s0
    125c:	a73ff0ef          	jal	ra,cce <LCD_AddressSetRead>
    1260:	ff2ff0ef          	jal	ra,a52 <LCD_ReadData>
    1264:	4b01                	li	s6,0
    1266:	60000b93          	li	s7,1536
    126a:	fe8ff0ef          	jal	ra,a52 <LCD_ReadData>
    126e:	016107b3          	add	a5,sp,s6
    1272:	00a78023          	sb	a0,0(a5)
    1276:	0b05                	addi	s6,s6,1
    1278:	ff7b19e3          	bne	s6,s7,126a <LCD_ShowChar+0x310>
    127c:	bfa5                	j	11f4 <LCD_ShowChar+0x29a>
    127e:	00098563          	beqz	s3,1288 <LCD_ShowChar+0x32e>
    1282:	82a1d503          	lhu	a0,-2006(gp) # 2000009a <BACK_COLOR>
    1286:	b77d                	j	1234 <LCD_ShowChar+0x2da>
    1288:	00044783          	lbu	a5,0(s0)
    128c:	00144503          	lbu	a0,1(s0)
    1290:	07c2                	slli	a5,a5,0x10
    1292:	0522                	slli	a0,a0,0x8
    1294:	8fc9                	or	a5,a5,a0
    1296:	00244503          	lbu	a0,2(s0)
    129a:	8d5d                	or	a0,a0,a5
    129c:	9a9ff0ef          	jal	ra,c44 <LCD_ConvertColor>
    12a0:	bf51                	j	1234 <LCD_ShowChar+0x2da>
    12a2:	63812403          	lw	s0,1592(sp)
    12a6:	63c12083          	lw	ra,1596(sp)
    12aa:	63412483          	lw	s1,1588(sp)
    12ae:	63012903          	lw	s2,1584(sp)
    12b2:	62c12983          	lw	s3,1580(sp)
    12b6:	62812a03          	lw	s4,1576(sp)
    12ba:	62412a83          	lw	s5,1572(sp)
    12be:	62012b03          	lw	s6,1568(sp)
    12c2:	61c12b83          	lw	s7,1564(sp)
    12c6:	61812c03          	lw	s8,1560(sp)
    12ca:	61412c83          	lw	s9,1556(sp)
    12ce:	61012d03          	lw	s10,1552(sp)
    12d2:	60c12d83          	lw	s11,1548(sp)
    12d6:	00006537          	lui	a0,0x6
    12da:	ec450513          	addi	a0,a0,-316 # 5ec4 <_read+0x92>
    12de:	64010113          	addi	sp,sp,1600
    12e2:	3d20306f          	j	46b4 <iprintf>
    12e6:	8082                	ret

000012e8 <LCD_ShowString>:
    12e8:	7155                	addi	sp,sp,-208
    12ea:	db26                	sw	s1,180(sp)
    12ec:	d94a                	sw	s2,176(sp)
    12ee:	d74e                	sw	s3,172(sp)
    12f0:	84aa                	mv	s1,a0
    12f2:	89b2                	mv	s3,a2
    12f4:	892e                	mv	s2,a1
    12f6:	08000613          	li	a2,128
    12fa:	4581                	li	a1,0
    12fc:	0808                	addi	a0,sp,16
    12fe:	dd22                	sw	s0,184(sp)
    1300:	cf5e                	sw	s7,156(sp)
    1302:	843a                	mv	s0,a4
    1304:	c3be                	sw	a5,196(sp)
    1306:	df06                	sw	ra,188(sp)
    1308:	d552                	sw	s4,168(sp)
    130a:	d356                	sw	s5,164(sp)
    130c:	d15a                	sw	s6,160(sp)
    130e:	cd62                	sw	s8,152(sp)
    1310:	8bb6                	mv	s7,a3
    1312:	c5c2                	sw	a6,200(sp)
    1314:	c7c6                	sw	a7,204(sp)
    1316:	eebfe0ef          	jal	ra,200 <memset>
    131a:	ff79f713          	andi	a4,s3,-9
    131e:	47c1                	li	a5,16
    1320:	00f70d63          	beq	a4,a5,133a <LCD_ShowString+0x52>
    1324:	02000793          	li	a5,32
    1328:	00f98963          	beq	s3,a5,133a <LCD_ShowString+0x52>
    132c:	00006537          	lui	a0,0x6
    1330:	85ce                	mv	a1,s3
    1332:	f1050513          	addi	a0,a0,-240 # 5f10 <_read+0xde>
    1336:	37e030ef          	jal	ra,46b4 <iprintf>
    133a:	01d4                	addi	a3,sp,196
    133c:	8622                	mv	a2,s0
    133e:	06400593          	li	a1,100
    1342:	0808                	addi	a0,sp,16
    1344:	c636                	sw	a3,12(sp)
    1346:	4f4030ef          	jal	ra,483a <vsniprintf>
    134a:	0019d713          	srli	a4,s3,0x1
    134e:	0f000793          	li	a5,240
    1352:	01071b13          	slli	s6,a4,0x10
    1356:	6a41                	lui	s4,0x10
    1358:	40e78c33          	sub	s8,a5,a4
    135c:	010b5b13          	srli	s6,s6,0x10
    1360:	0800                	addi	s0,sp,16
    1362:	41378ab3          	sub	s5,a5,s3
    1366:	800a0a13          	addi	s4,s4,-2048 # f800 <_data_lma+0x6510>
    136a:	00044783          	lbu	a5,0(s0)
    136e:	ef89                	bnez	a5,1388 <LCD_ShowString+0xa0>
    1370:	50fa                	lw	ra,188(sp)
    1372:	546a                	lw	s0,184(sp)
    1374:	54da                	lw	s1,180(sp)
    1376:	594a                	lw	s2,176(sp)
    1378:	59ba                	lw	s3,172(sp)
    137a:	5a2a                	lw	s4,168(sp)
    137c:	5a9a                	lw	s5,164(sp)
    137e:	5b0a                	lw	s6,160(sp)
    1380:	4bfa                	lw	s7,156(sp)
    1382:	4c6a                	lw	s8,152(sp)
    1384:	6169                	addi	sp,sp,208
    1386:	8082                	ret
    1388:	009c7763          	bgeu	s8,s1,1396 <LCD_ShowString+0xae>
    138c:	994e                	add	s2,s2,s3
    138e:	0942                	slli	s2,s2,0x10
    1390:	01095913          	srli	s2,s2,0x10
    1394:	4481                	li	s1,0
    1396:	012af763          	bgeu	s5,s2,13a4 <LCD_ShowString+0xbc>
    139a:	8552                	mv	a0,s4
    139c:	991ff0ef          	jal	ra,d2c <LCD_Clear>
    13a0:	4901                	li	s2,0
    13a2:	4481                	li	s1,0
    13a4:	00044603          	lbu	a2,0(s0)
    13a8:	8526                	mv	a0,s1
    13aa:	94da                	add	s1,s1,s6
    13ac:	875e                	mv	a4,s7
    13ae:	86ce                	mv	a3,s3
    13b0:	85ca                	mv	a1,s2
    13b2:	04c2                	slli	s1,s1,0x10
    13b4:	365d                	jal	f5a <LCD_ShowChar>
    13b6:	80c1                	srli	s1,s1,0x10
    13b8:	0405                	addi	s0,s0,1
    13ba:	bf45                	j	136a <LCD_ShowString+0x82>

000013bc <DMA_SRAMLCD_Init>:
    13bc:	7139                	addi	sp,sp,-64
    13be:	da26                	sw	s1,52(sp)
    13c0:	4585                	li	a1,1
    13c2:	84aa                	mv	s1,a0
    13c4:	4509                	li	a0,2
    13c6:	de06                	sw	ra,60(sp)
    13c8:	dc22                	sw	s0,56(sp)
    13ca:	7f6010ef          	jal	ra,2bc0 <RCC_AHBPeriphClockCmd>
    13ce:	40020437          	lui	s0,0x40020
    13d2:	45840513          	addi	a0,s0,1112 # 40020458 <_eusrstack+0x20018458>
    13d6:	024010ef          	jal	ra,23fa <DMA_DeInit>
    13da:	600207b7          	lui	a5,0x60020
    13de:	c43e                	sw	a5,8(sp)
    13e0:	04000793          	li	a5,64
    13e4:	ca3e                	sw	a5,20(sp)
    13e6:	6785                	lui	a5,0x1
    13e8:	d43e                	sw	a5,40(sp)
    13ea:	004c                	addi	a1,sp,4
    13ec:	6791                	lui	a5,0x4
    13ee:	45840513          	addi	a0,s0,1112
    13f2:	c226                	sw	s1,4(sp)
    13f4:	c602                	sw	zero,12(sp)
    13f6:	c802                	sw	zero,16(sp)
    13f8:	cc02                	sw	zero,24(sp)
    13fa:	ce02                	sw	zero,28(sp)
    13fc:	d002                	sw	zero,32(sp)
    13fe:	d202                	sw	zero,36(sp)
    1400:	d63e                	sw	a5,44(sp)
    1402:	164010ef          	jal	ra,2566 <DMA_Init>
    1406:	50f2                	lw	ra,60(sp)
    1408:	5462                	lw	s0,56(sp)
    140a:	54d2                	lw	s1,52(sp)
    140c:	6121                	addi	sp,sp,64
    140e:	8082                	ret

00001410 <DVP_Init>:
    1410:	1101                	addi	sp,sp,-32
    1412:	4585                	li	a1,1
    1414:	6509                	lui	a0,0x2
    1416:	ce06                	sw	ra,28(sp)
    1418:	cc22                	sw	s0,24(sp)
    141a:	7a6010ef          	jal	ra,2bc0 <RCC_AHBPeriphClockCmd>
    141e:	50050437          	lui	s0,0x50050
    1422:	00044783          	lbu	a5,0(s0) # 50050000 <_eusrstack+0x30048000>
    1426:	0028                	addi	a0,sp,8
    1428:	0cf7f793          	andi	a5,a5,207
    142c:	00f40023          	sb	a5,0(s0)
    1430:	00044783          	lbu	a5,0(s0)
    1434:	0127e793          	ori	a5,a5,18
    1438:	00f40023          	sb	a5,0(s0)
    143c:	00144783          	lbu	a5,1(s0)
    1440:	0f97f793          	andi	a5,a5,249
    1444:	00f400a3          	sb	a5,1(s0)
    1448:	0f000793          	li	a5,240
    144c:	00f41223          	sh	a5,4(s0)
    1450:	3c000793          	li	a5,960
    1454:	00f41323          	sh	a5,6(s0)
    1458:	8041a783          	lw	a5,-2044(gp) # 20000074 <RGB565_DVPDMAaddr0>
    145c:	c41c                	sw	a5,8(s0)
    145e:	8081a783          	lw	a5,-2040(gp) # 20000078 <RGB565_DVPDMAaddr1>
    1462:	c45c                	sw	a5,12(s0)
    1464:	00144783          	lbu	a5,1(s0)
    1468:	03f7f793          	andi	a5,a5,63
    146c:	00f400a3          	sb	a5,1(s0)
    1470:	00144783          	lbu	a5,1(s0)
    1474:	0ff7f793          	andi	a5,a5,255
    1478:	00f400a3          	sb	a5,1(s0)
    147c:	00244783          	lbu	a5,2(s0)
    1480:	0107e793          	ori	a5,a5,16
    1484:	00f40123          	sb	a5,2(s0)
    1488:	00244783          	lbu	a5,2(s0)
    148c:	0087e793          	ori	a5,a5,8
    1490:	00f40123          	sb	a5,2(s0)
    1494:	00244783          	lbu	a5,2(s0)
    1498:	0047e793          	ori	a5,a5,4
    149c:	00f40123          	sb	a5,2(s0)
    14a0:	00244783          	lbu	a5,2(s0)
    14a4:	0027e793          	ori	a5,a5,2
    14a8:	00f40123          	sb	a5,2(s0)
    14ac:	00244783          	lbu	a5,2(s0)
    14b0:	0017e793          	ori	a5,a5,1
    14b4:	00f40123          	sb	a5,2(s0)
    14b8:	05600793          	li	a5,86
    14bc:	00f11423          	sh	a5,8(sp)
    14c0:	4785                	li	a5,1
    14c2:	c63e                	sw	a5,12(sp)
    14c4:	00010523          	sb	zero,10(sp)
    14c8:	532010ef          	jal	ra,29fa <NVIC_Init>
    14cc:	00144783          	lbu	a5,1(s0)
    14d0:	0017e793          	ori	a5,a5,1
    14d4:	00f400a3          	sb	a5,1(s0)
    14d8:	00044783          	lbu	a5,0(s0)
    14dc:	0017e793          	ori	a5,a5,1
    14e0:	00f40023          	sb	a5,0(s0)
    14e4:	40f2                	lw	ra,28(sp)
    14e6:	4462                	lw	s0,24(sp)
    14e8:	6105                	addi	sp,sp,32
    14ea:	8082                	ret

000014ec <DVP_IRQHandler>:
    14ec:	1141                	addi	sp,sp,-16
    14ee:	c622                	sw	s0,12(sp)
    14f0:	c426                	sw	s1,8(sp)
    14f2:	500507b7          	lui	a5,0x50050
    14f6:	0107c703          	lbu	a4,16(a5) # 50050010 <_eusrstack+0x30048010>
    14fa:	8b09                	andi	a4,a4,2
    14fc:	cf35                	beqz	a4,1578 <DVP_IRQHandler+0x8c>
    14fe:	0107c703          	lbu	a4,16(a5)
    1502:	0fd77713          	andi	a4,a4,253
    1506:	00e78823          	sb	a4,16(a5)
    150a:	82c18793          	addi	a5,gp,-2004 # 2000009c <addr_cnt>
    150e:	4398                	lw	a4,0(a5)
    1510:	8b05                	andi	a4,a4,1
    1512:	0e070763          	beqz	a4,1600 <DVP_IRQHandler+0x114>
    1516:	4398                	lw	a4,0(a5)
    1518:	40020537          	lui	a0,0x40020
    151c:	4581                	li	a1,0
    151e:	0705                	addi	a4,a4,1
    1520:	45850513          	addi	a0,a0,1112 # 40020458 <_eusrstack+0x20018458>
    1524:	c398                	sw	a4,0(a5)
    1526:	078010ef          	jal	ra,259e <DMA_Cmd>
    152a:	4781                	li	a5,0
    152c:	1e000693          	li	a3,480
    1530:	80418493          	addi	s1,gp,-2044 # 20000074 <RGB565_DVPDMAaddr0>
    1534:	4090                	lw	a2,0(s1)
    1536:	00179713          	slli	a4,a5,0x1
    153a:	9732                	add	a4,a4,a2
    153c:	40f70633          	sub	a2,a4,a5
    1540:	00075703          	lhu	a4,0(a4)
    1544:	0785                	addi	a5,a5,1
    1546:	8309                	srli	a4,a4,0x2
    1548:	00e60023          	sb	a4,0(a2)
    154c:	fed792e3          	bne	a5,a3,1530 <DVP_IRQHandler+0x44>
    1550:	40020437          	lui	s0,0x40020
    1554:	45840513          	addi	a0,s0,1112 # 40020458 <_eusrstack+0x20018458>
    1558:	1e000593          	li	a1,480
    155c:	056010ef          	jal	ra,25b2 <DMA_SetCurrDataCounter>
    1560:	409c                	lw	a5,0(s1)
    1562:	45840513          	addi	a0,s0,1112
    1566:	4585                	li	a1,1
    1568:	c51c                	sw	a5,8(a0)
    156a:	034010ef          	jal	ra,259e <DMA_Cmd>
    156e:	83818793          	addi	a5,gp,-1992 # 200000a8 <href_cnt>
    1572:	4398                	lw	a4,0(a5)
    1574:	0705                	addi	a4,a4,1
    1576:	c398                	sw	a4,0(a5)
    1578:	500507b7          	lui	a5,0x50050
    157c:	0107c703          	lbu	a4,16(a5) # 50050010 <_eusrstack+0x30048010>
    1580:	8b11                	andi	a4,a4,4
    1582:	cb19                	beqz	a4,1598 <DVP_IRQHandler+0xac>
    1584:	0107c703          	lbu	a4,16(a5)
    1588:	0fb77713          	andi	a4,a4,251
    158c:	00e78823          	sb	a4,16(a5)
    1590:	8201a623          	sw	zero,-2004(gp) # 2000009c <addr_cnt>
    1594:	8201ac23          	sw	zero,-1992(gp) # 200000a8 <href_cnt>
    1598:	500507b7          	lui	a5,0x50050
    159c:	0107c703          	lbu	a4,16(a5) # 50050010 <_eusrstack+0x30048010>
    15a0:	8b05                	andi	a4,a4,1
    15a2:	cf01                	beqz	a4,15ba <DVP_IRQHandler+0xce>
    15a4:	0107c703          	lbu	a4,16(a5)
    15a8:	0fe77713          	andi	a4,a4,254
    15ac:	00e78823          	sb	a4,16(a5)
    15b0:	83418793          	addi	a5,gp,-1996 # 200000a4 <frame_cnt>
    15b4:	4398                	lw	a4,0(a5)
    15b6:	0705                	addi	a4,a4,1
    15b8:	c398                	sw	a4,0(a5)
    15ba:	500507b7          	lui	a5,0x50050
    15be:	0107c703          	lbu	a4,16(a5) # 50050010 <_eusrstack+0x30048010>
    15c2:	8b41                	andi	a4,a4,16
    15c4:	c719                	beqz	a4,15d2 <DVP_IRQHandler+0xe6>
    15c6:	0107c703          	lbu	a4,16(a5)
    15ca:	0ef77713          	andi	a4,a4,239
    15ce:	00e78823          	sb	a4,16(a5)
    15d2:	500507b7          	lui	a5,0x50050
    15d6:	0107c703          	lbu	a4,16(a5) # 50050010 <_eusrstack+0x30048010>
    15da:	8b21                	andi	a4,a4,8
    15dc:	cf09                	beqz	a4,15f6 <DVP_IRQHandler+0x10a>
    15de:	0107c703          	lbu	a4,16(a5)
    15e2:	00009537          	lui	a0,0x9
    15e6:	e3050513          	addi	a0,a0,-464 # 8e30 <asc2_3216+0x1780>
    15ea:	0f777713          	andi	a4,a4,247
    15ee:	00e78823          	sb	a4,16(a5)
    15f2:	1dc030ef          	jal	ra,47ce <puts>
    15f6:	4432                	lw	s0,12(sp)
    15f8:	44a2                	lw	s1,8(sp)
    15fa:	0141                	addi	sp,sp,16
    15fc:	30200073          	mret
    1600:	4398                	lw	a4,0(a5)
    1602:	40020537          	lui	a0,0x40020
    1606:	4581                	li	a1,0
    1608:	0705                	addi	a4,a4,1
    160a:	45850513          	addi	a0,a0,1112 # 40020458 <_eusrstack+0x20018458>
    160e:	c398                	sw	a4,0(a5)
    1610:	78f000ef          	jal	ra,259e <DMA_Cmd>
    1614:	4781                	li	a5,0
    1616:	1e000693          	li	a3,480
    161a:	80818493          	addi	s1,gp,-2040 # 20000078 <RGB565_DVPDMAaddr1>
    161e:	4090                	lw	a2,0(s1)
    1620:	00179713          	slli	a4,a5,0x1
    1624:	9732                	add	a4,a4,a2
    1626:	40f70633          	sub	a2,a4,a5
    162a:	00075703          	lhu	a4,0(a4)
    162e:	0785                	addi	a5,a5,1
    1630:	8309                	srli	a4,a4,0x2
    1632:	00e60023          	sb	a4,0(a2)
    1636:	fed792e3          	bne	a5,a3,161a <DVP_IRQHandler+0x12e>
    163a:	bf19                	j	1550 <DVP_IRQHandler+0x64>

0000163c <sqrt32>:
    163c:	46c1                	li	a3,16
    163e:	67a1                	lui	a5,0x8
    1640:	6721                	lui	a4,0x8
    1642:	02f78633          	mul	a2,a5,a5
    1646:	00c57363          	bgeu	a0,a2,164c <sqrt32+0x10>
    164a:	8fb9                	xor	a5,a5,a4
    164c:	16fd                	addi	a3,a3,-1
    164e:	8305                	srli	a4,a4,0x1
    1650:	c299                	beqz	a3,1656 <sqrt32+0x1a>
    1652:	8fd9                	or	a5,a5,a4
    1654:	b7fd                	j	1642 <sqrt32+0x6>
    1656:	853e                	mv	a0,a5
    1658:	8082                	ret

0000165a <main>:
    165a:	715d                	addi	sp,sp,-80
    165c:	4509                	li	a0,2
    165e:	c686                	sw	ra,76(sp)
    1660:	c4a2                	sw	s0,72(sp)
    1662:	c2a6                	sw	s1,68(sp)
    1664:	c0ca                	sw	s2,64(sp)
    1666:	de4e                	sw	s3,60(sp)
    1668:	dc52                	sw	s4,56(sp)
    166a:	da56                	sw	s5,52(sp)
    166c:	d85a                	sw	s6,48(sp)
    166e:	d65e                	sw	s7,44(sp)
    1670:	d462                	sw	s8,40(sp)
    1672:	d266                	sw	s9,36(sp)
    1674:	d06a                	sw	s10,32(sp)
    1676:	ce6e                	sw	s11,28(sp)
    1678:	37c010ef          	jal	ra,29f4 <NVIC_PriorityGroupConfig>
    167c:	0cb010ef          	jal	ra,2f46 <Delay_Init>
    1680:	6571                	lui	a0,0x1c
    1682:	20050513          	addi	a0,a0,512 # 1c200 <_data_lma+0x12f10>
    1686:	143010ef          	jal	ra,2fc8 <USART_Printf_Init>
    168a:	8141a603          	lw	a2,-2028(gp) # 20000084 <SystemCoreClock>
    168e:	000f47b7          	lui	a5,0xf4
    1692:	24078793          	addi	a5,a5,576 # f4240 <_data_lma+0xeaf50>
    1696:	02f65433          	divu	s0,a2,a5
    169a:	00009537          	lui	a0,0x9
    169e:	e4450513          	addi	a0,a0,-444 # 8e44 <asc2_3216+0x1794>
    16a2:	6a41                	lui	s4,0x10
    16a4:	6909                	lui	s2,0x2
    16a6:	4485                	li	s1,1
    16a8:	00009c37          	lui	s8,0x9
    16ac:	00009cb7          	lui	s9,0x9
    16b0:	02f67633          	remu	a2,a2,a5
    16b4:	3e800793          	li	a5,1000
    16b8:	85a2                	mv	a1,s0
    16ba:	147d                	addi	s0,s0,-1
    16bc:	0442                	slli	s0,s0,0x10
    16be:	8041                	srli	s0,s0,0x10
    16c0:	02f65633          	divu	a2,a2,a5
    16c4:	7f1020ef          	jal	ra,46b4 <iprintf>
    16c8:	eb0ff0ef          	jal	ra,d78 <LCD_Init>
    16cc:	06400513          	li	a0,100
    16d0:	0cb010ef          	jal	ra,2f9a <Delay_Ms>
    16d4:	04b00513          	li	a0,75
    16d8:	d50ff0ef          	jal	ra,c28 <LCD_SetBrightness>
    16dc:	fffa0593          	addi	a1,s4,-1 # ffff <_data_lma+0x6d0f>
    16e0:	8e390513          	addi	a0,s2,-1821 # 18e3 <main+0x289>
    16e4:	82918923          	sb	s1,-1998(gp) # 200000a2 <crack_repair_flag>
    16e8:	d7aff0ef          	jal	ra,c62 <LCD_SetColor>
    16ec:	00009737          	lui	a4,0x9
    16f0:	e6870713          	addi	a4,a4,-408 # 8e68 <asc2_3216+0x17b8>
    16f4:	4685                	li	a3,1
    16f6:	4661                	li	a2,24
    16f8:	4581                	li	a1,0
    16fa:	4529                	li	a0,10
    16fc:	36f5                	jal	12e8 <LCD_ShowString>
    16fe:	fffa0593          	addi	a1,s4,-1
    1702:	8e390513          	addi	a0,s2,-1821
    1706:	d5cff0ef          	jal	ra,c62 <LCD_SetColor>
    170a:	00009737          	lui	a4,0x9
    170e:	e7c70713          	addi	a4,a4,-388 # 8e7c <asc2_3216+0x17cc>
    1712:	4685                	li	a3,1
    1714:	4641                	li	a2,16
    1716:	06400593          	li	a1,100
    171a:	4551                	li	a0,20
    171c:	36f1                	jal	12e8 <LCD_ShowString>
    171e:	a94ff0ef          	jal	ra,9b2 <IMU_Init>
    1722:	4509                	li	a0,2
    1724:	8f8ff0ef          	jal	ra,81c <IMU_SetGyroFsr>
    1728:	450d                	li	a0,3
    172a:	902ff0ef          	jal	ra,82c <IMU_SetAccelFsr>
    172e:	3e800513          	li	a0,1000
    1732:	93eff0ef          	jal	ra,870 <IMU_SetRate>
    1736:	1f400513          	li	a0,500
    173a:	902ff0ef          	jal	ra,83c <IMU_SetLPF>
    173e:	82918ea3          	sb	s1,-1987(gp) # 200000ad <tick>
    1742:	82918e23          	sb	s1,-1988(gp) # 200000ac <refresh_flag>
    1746:	8801a223          	sw	zero,-1916(gp) # 200000f4 <time>
    174a:	b65fe0ef          	jal	ra,2ae <Button_INT_Init>
    174e:	85a2                	mv	a1,s0
    1750:	3e700513          	li	a0,999
    1754:	227000ef          	jal	ra,217a <Tick_TIM_Init>
    1758:	2dd000ef          	jal	ra,2234 <Tick_TIM_INT_Init>
    175c:	6521                	lui	a0,0x8
    175e:	85a2                	mv	a1,s0
    1760:	23450513          	addi	a0,a0,564 # 8234 <asc2_3216+0xb84>
    1764:	271000ef          	jal	ra,21d4 <Refresh_TIM_Init>
    1768:	2f1000ef          	jal	ra,2258 <Refresh_TIM_INT_Init>
    176c:	00009537          	lui	a0,0x9
    1770:	e9050513          	addi	a0,a0,-368 # 8e90 <asc2_3216+0x17e0>
    1774:	05a030ef          	jal	ra,47ce <puts>
    1778:	00009537          	lui	a0,0x9
    177c:	eac50513          	addi	a0,a0,-340 # 8eac <asc2_3216+0x17fc>
    1780:	04e030ef          	jal	ra,47ce <puts>
    1784:	000097b7          	lui	a5,0x9
    1788:	e3c7ab03          	lw	s6,-452(a5) # 8e3c <asc2_3216+0x178c>
    178c:	000097b7          	lui	a5,0x9
    1790:	e407ab83          	lw	s7,-448(a5) # 8e40 <asc2_3216+0x1790>
    1794:	83218993          	addi	s3,gp,-1998 # 200000a2 <crack_repair_flag>
    1798:	83d18a13          	addi	s4,gp,-1987 # 200000ad <tick>
    179c:	83c18913          	addi	s2,gp,-1988 # 200000ac <refresh_flag>
    17a0:	4529                	li	a0,10
    17a2:	7ca010ef          	jal	ra,2f6c <Delay_Us>
    17a6:	6509                	lui	a0,0x2
    17a8:	4581                	li	a1,0
    17aa:	8e350513          	addi	a0,a0,-1821 # 18e3 <main+0x289>
    17ae:	cb4ff0ef          	jal	ra,c62 <LCD_SetColor>
    17b2:	000a4783          	lbu	a5,0(s4)
    17b6:	16078163          	beqz	a5,1918 <main+0x2be>
    17ba:	8301c783          	lbu	a5,-2000(gp) # 200000a0 <crack_flag>
    17be:	83018413          	addi	s0,gp,-2000 # 200000a0 <crack_flag>
    17c2:	14079963          	bnez	a5,1914 <main+0x2ba>
    17c6:	85818613          	addi	a2,gp,-1960 # 200000c8 <acc+0x8>
    17ca:	85418593          	addi	a1,gp,-1964 # 200000c4 <acc+0x4>
    17ce:	85018513          	addi	a0,gp,-1968 # 200000c0 <acc>
    17d2:	eeffe0ef          	jal	ra,6c0 <IMU_GetAccelerometer>
    17d6:	87c18613          	addi	a2,gp,-1924 # 200000ec <gyro+0x8>
    17da:	87818593          	addi	a1,gp,-1928 # 200000e8 <gyro+0x4>
    17de:	87418513          	addi	a0,gp,-1932 # 200000e4 <gyro>
    17e2:	e6bfe0ef          	jal	ra,64c <IMU_GetGyroscope>
    17e6:	85018793          	addi	a5,gp,-1968 # 200000c0 <acc>
    17ea:	8501a483          	lw	s1,-1968(gp) # 200000c0 <acc>
    17ee:	4798                	lw	a4,8(a5)
    17f0:	0047ad03          	lw	s10,4(a5)
    17f4:	85a6                	mv	a1,s1
    17f6:	8526                	mv	a0,s1
    17f8:	c43a                	sw	a4,8(sp)
    17fa:	077020ef          	jal	ra,4070 <__mulsf3>
    17fe:	c22a                	sw	a0,4(sp)
    1800:	85ea                	mv	a1,s10
    1802:	856a                	mv	a0,s10
    1804:	06d020ef          	jal	ra,4070 <__mulsf3>
    1808:	4792                	lw	a5,4(sp)
    180a:	85aa                	mv	a1,a0
    180c:	853e                	mv	a0,a5
    180e:	472020ef          	jal	ra,3c80 <__addsf3>
    1812:	4722                	lw	a4,8(sp)
    1814:	c22a                	sw	a0,4(sp)
    1816:	85ba                	mv	a1,a4
    1818:	853a                	mv	a0,a4
    181a:	057020ef          	jal	ra,4070 <__mulsf3>
    181e:	4792                	lw	a5,4(sp)
    1820:	85aa                	mv	a1,a0
    1822:	853e                	mv	a0,a5
    1824:	45c020ef          	jal	ra,3c80 <__addsf3>
    1828:	85da                	mv	a1,s6
    182a:	047020ef          	jal	ra,4070 <__mulsf3>
    182e:	2d3020ef          	jal	ra,4300 <__fixsfsi>
    1832:	3529                	jal	163c <sqrt32>
    1834:	8741a583          	lw	a1,-1932(gp) # 200000e4 <gyro>
    1838:	87418d93          	addi	s11,gp,-1932 # 200000e4 <gyro>
    183c:	004da683          	lw	a3,4(s11)
    1840:	84a1ae23          	sw	a0,-1956(gp) # 200000cc <acc_total_100x>
    1844:	008da703          	lw	a4,8(s11)
    1848:	c62a                	sw	a0,12(sp)
    184a:	852e                	mv	a0,a1
    184c:	c23a                	sw	a4,4(sp)
    184e:	c436                	sw	a3,8(sp)
    1850:	021020ef          	jal	ra,4070 <__mulsf3>
    1854:	46a2                	lw	a3,8(sp)
    1856:	8daa                	mv	s11,a0
    1858:	85b6                	mv	a1,a3
    185a:	8536                	mv	a0,a3
    185c:	015020ef          	jal	ra,4070 <__mulsf3>
    1860:	85aa                	mv	a1,a0
    1862:	856e                	mv	a0,s11
    1864:	41c020ef          	jal	ra,3c80 <__addsf3>
    1868:	4712                	lw	a4,4(sp)
    186a:	8daa                	mv	s11,a0
    186c:	85ba                	mv	a1,a4
    186e:	853a                	mv	a0,a4
    1870:	001020ef          	jal	ra,4070 <__mulsf3>
    1874:	85aa                	mv	a1,a0
    1876:	856e                	mv	a0,s11
    1878:	408020ef          	jal	ra,3c80 <__addsf3>
    187c:	85de                	mv	a1,s7
    187e:	7f2020ef          	jal	ra,4070 <__mulsf3>
    1882:	27f020ef          	jal	ra,4300 <__fixsfsi>
    1886:	3b5d                	jal	163c <sqrt32>
    1888:	88a1a423          	sw	a0,-1912(gp) # 200000f8 <gyro_total_10x>
    188c:	8101a703          	lw	a4,-2032(gp) # 20000080 <acc_threshold_warning_100x>
    1890:	47b2                	lw	a5,12(sp)
    1892:	18f75b63          	bge	a4,a5,1a28 <main+0x3ce>
    1896:	8841a683          	lw	a3,-1916(gp) # 200000f4 <time>
    189a:	88d1a023          	sw	a3,-1920(gp) # 200000f0 <time_stamp_trigger>
    189e:	4605                	li	a2,1
    18a0:	82c18f23          	sb	a2,-1986(gp) # 200000ae <warning_flag>
    18a4:	8941a603          	lw	a2,-1900(gp) # 20000104 <acc_record_100x>
    18a8:	00f64a63          	blt	a2,a5,18bc <main+0x262>
    18ac:	8701a603          	lw	a2,-1936(gp) # 200000e0 <time_stamp_record>
    18b0:	3e800513          	li	a0,1000
    18b4:	40c68633          	sub	a2,a3,a2
    18b8:	00c57663          	bgeu	a0,a2,18c4 <main+0x26a>
    18bc:	86d1a823          	sw	a3,-1936(gp) # 200000e0 <time_stamp_record>
    18c0:	88f1aa23          	sw	a5,-1900(gp) # 20000104 <acc_record_100x>
    18c4:	80c1a703          	lw	a4,-2036(gp) # 2000007c <acc_threshold_crack_100x>
    18c8:	04f75663          	bge	a4,a5,1914 <main+0x2ba>
    18cc:	8526                	mv	a0,s1
    18ce:	233020ef          	jal	ra,4300 <__fixsfsi>
    18d2:	41f55d93          	srai	s11,a0,0x1f
    18d6:	00adc533          	xor	a0,s11,a0
    18da:	41b50db3          	sub	s11,a0,s11
    18de:	856a                	mv	a0,s10
    18e0:	221020ef          	jal	ra,4300 <__fixsfsi>
    18e4:	41f55793          	srai	a5,a0,0x1f
    18e8:	8d3d                	xor	a0,a0,a5
    18ea:	8d1d                	sub	a0,a0,a5
    18ec:	00000593          	li	a1,0
    18f0:	17b55463          	bge	a0,s11,1a58 <main+0x3fe>
    18f4:	8526                	mv	a0,s1
    18f6:	6f4020ef          	jal	ra,3fea <__gesf2>
    18fa:	00000593          	li	a1,0
    18fe:	14a05363          	blez	a0,1a44 <main+0x3ea>
    1902:	856a                	mv	a0,s10
    1904:	6e6020ef          	jal	ra,3fea <__gesf2>
    1908:	47c9                	li	a5,18
    190a:	00a04363          	bgtz	a0,1910 <main+0x2b6>
    190e:	47e1                	li	a5,24
    1910:	00f40023          	sb	a5,0(s0)
    1914:	000a0023          	sb	zero,0(s4)
    1918:	00094783          	lbu	a5,0(s2)
    191c:	e80782e3          	beqz	a5,17a0 <main+0x146>
    1920:	8311c783          	lbu	a5,-1999(gp) # 200000a1 <crack_halt_flag>
    1924:	e6079ee3          	bnez	a5,17a0 <main+0x146>
    1928:	0009c783          	lbu	a5,0(s3)
    192c:	cb99                	beqz	a5,1942 <main+0x2e8>
    192e:	65a1                	lui	a1,0x8
    1930:	6509                	lui	a0,0x2
    1932:	43058593          	addi	a1,a1,1072 # 8430 <asc2_3216+0xd80>
    1936:	8e350513          	addi	a0,a0,-1821 # 18e3 <main+0x289>
    193a:	b28ff0ef          	jal	ra,c62 <LCD_SetColor>
    193e:	00098023          	sb	zero,0(s3)
    1942:	83e1c783          	lbu	a5,-1986(gp) # 200000ae <warning_flag>
    1946:	00009437          	lui	s0,0x9
    194a:	14078263          	beqz	a5,1a8e <main+0x434>
    194e:	6489                	lui	s1,0x2
    1950:	45fd                	li	a1,31
    1952:	8e348513          	addi	a0,s1,-1821 # 18e3 <main+0x289>
    1956:	b0cff0ef          	jal	ra,c62 <LCD_SetColor>
    195a:	00009737          	lui	a4,0x9
    195e:	02800593          	li	a1,40
    1962:	4551                	li	a0,20
    1964:	eb070713          	addi	a4,a4,-336 # 8eb0 <asc2_3216+0x1800>
    1968:	4685                	li	a3,1
    196a:	4641                	li	a2,16
    196c:	97dff0ef          	jal	ra,12e8 <LCD_ShowString>
    1970:	65c1                	lui	a1,0x10
    1972:	15fd                	addi	a1,a1,-1
    1974:	8e348513          	addi	a0,s1,-1821
    1978:	aeaff0ef          	jal	ra,c62 <LCD_SetColor>
    197c:	ebc40713          	addi	a4,s0,-324 # 8ebc <asc2_3216+0x180c>
    1980:	4685                	li	a3,1
    1982:	4641                	li	a2,16
    1984:	05000593          	li	a1,80
    1988:	4529                	li	a0,10
    198a:	95fff0ef          	jal	ra,12e8 <LCD_ShowString>
    198e:	8301c783          	lbu	a5,-2000(gp) # 200000a0 <crack_flag>
    1992:	cbc1                	beqz	a5,1a22 <main+0x3c8>
    1994:	6441                	lui	s0,0x10
    1996:	6489                	lui	s1,0x2
    1998:	80040593          	addi	a1,s0,-2048 # f800 <_data_lma+0x6510>
    199c:	8e348513          	addi	a0,s1,-1821 # 18e3 <main+0x289>
    19a0:	ac2ff0ef          	jal	ra,c62 <LCD_SetColor>
    19a4:	00009737          	lui	a4,0x9
    19a8:	ee870713          	addi	a4,a4,-280 # 8ee8 <asc2_3216+0x1838>
    19ac:	4685                	li	a3,1
    19ae:	4641                	li	a2,16
    19b0:	02800593          	li	a1,40
    19b4:	4551                	li	a0,20
    19b6:	933ff0ef          	jal	ra,12e8 <LCD_ShowString>
    19ba:	00009737          	lui	a4,0x9
    19be:	ef470713          	addi	a4,a4,-268 # 8ef4 <asc2_3216+0x1844>
    19c2:	4685                	li	a3,1
    19c4:	4641                	li	a2,16
    19c6:	05000593          	li	a1,80
    19ca:	4501                	li	a0,0
    19cc:	91dff0ef          	jal	ra,12e8 <LCD_ShowString>
    19d0:	80040593          	addi	a1,s0,-2048
    19d4:	4501                	li	a0,0
    19d6:	a8cff0ef          	jal	ra,c62 <LCD_SetColor>
    19da:	147d                	addi	s0,s0,-1
    19dc:	8e348493          	addi	s1,s1,-1821
    19e0:	29c9                	jal	1eb2 <OV2640_Init>
    19e2:	0c051963          	bnez	a0,1ab4 <main+0x45a>
    19e6:	0ef00693          	li	a3,239
    19ea:	0ef00613          	li	a2,239
    19ee:	07800593          	li	a1,120
    19f2:	a7eff0ef          	jal	ra,c70 <LCD_AddressSetWrite>
    19f6:	06400513          	li	a0,100
    19fa:	5a0010ef          	jal	ra,2f9a <Delay_Ms>
    19fe:	668000ef          	jal	ra,2066 <RGB565_Mode_Init>
    1a02:	06400513          	li	a0,100
    1a06:	594010ef          	jal	ra,2f9a <Delay_Ms>
    1a0a:	00009537          	lui	a0,0x9
    1a0e:	f2c50513          	addi	a0,a0,-212 # 8f2c <asc2_3216+0x187c>
    1a12:	5bd020ef          	jal	ra,47ce <puts>
    1a16:	8041a503          	lw	a0,-2044(gp) # 20000074 <RGB565_DVPDMAaddr0>
    1a1a:	9a3ff0ef          	jal	ra,13bc <DMA_SRAMLCD_Init>
    1a1e:	9f3ff0ef          	jal	ra,1410 <DVP_Init>
    1a22:	00090023          	sb	zero,0(s2)
    1a26:	bbad                	j	17a0 <main+0x146>
    1a28:	8801a683          	lw	a3,-1920(gp) # 200000f0 <time_stamp_trigger>
    1a2c:	8841a703          	lw	a4,-1916(gp) # 200000f4 <time>
    1a30:	8f15                	sub	a4,a4,a3
    1a32:	3e700693          	li	a3,999
    1a36:	e8e6f7e3          	bgeu	a3,a4,18c4 <main+0x26a>
    1a3a:	82018f23          	sb	zero,-1986(gp) # 200000ae <warning_flag>
    1a3e:	8801aa23          	sw	zero,-1900(gp) # 20000104 <acc_record_100x>
    1a42:	b549                	j	18c4 <main+0x26a>
    1a44:	856a                	mv	a0,s10
    1a46:	5a4020ef          	jal	ra,3fea <__gesf2>
    1a4a:	04200793          	li	a5,66
    1a4e:	eca041e3          	bgtz	a0,1910 <main+0x2b6>
    1a52:	04800793          	li	a5,72
    1a56:	bd6d                	j	1910 <main+0x2b6>
    1a58:	856a                	mv	a0,s10
    1a5a:	590020ef          	jal	ra,3fea <__gesf2>
    1a5e:	00000593          	li	a1,0
    1a62:	00a05c63          	blez	a0,1a7a <main+0x420>
    1a66:	8526                	mv	a0,s1
    1a68:	582020ef          	jal	ra,3fea <__gesf2>
    1a6c:	02100793          	li	a5,33
    1a70:	eaa040e3          	bgtz	a0,1910 <main+0x2b6>
    1a74:	02400793          	li	a5,36
    1a78:	bd61                	j	1910 <main+0x2b6>
    1a7a:	8526                	mv	a0,s1
    1a7c:	56e020ef          	jal	ra,3fea <__gesf2>
    1a80:	f8100793          	li	a5,-127
    1a84:	e8a046e3          	bgtz	a0,1910 <main+0x2b6>
    1a88:	f8400793          	li	a5,-124
    1a8c:	b551                	j	1910 <main+0x2b6>
    1a8e:	65c1                	lui	a1,0x10
    1a90:	6509                	lui	a0,0x2
    1a92:	15fd                	addi	a1,a1,-1
    1a94:	8e350513          	addi	a0,a0,-1821 # 18e3 <main+0x289>
    1a98:	9caff0ef          	jal	ra,c62 <LCD_SetColor>
    1a9c:	00009737          	lui	a4,0x9
    1aa0:	edc70713          	addi	a4,a4,-292 # 8edc <asc2_3216+0x182c>
    1aa4:	4685                	li	a3,1
    1aa6:	4641                	li	a2,16
    1aa8:	02800593          	li	a1,40
    1aac:	4551                	li	a0,20
    1aae:	83bff0ef          	jal	ra,12e8 <LCD_ShowString>
    1ab2:	b5e9                	j	197c <main+0x322>
    1ab4:	85a2                	mv	a1,s0
    1ab6:	8526                	mv	a0,s1
    1ab8:	9aaff0ef          	jal	ra,c62 <LCD_SetColor>
    1abc:	f14c0713          	addi	a4,s8,-236 # 8f14 <asc2_3216+0x1864>
    1ac0:	4685                	li	a3,1
    1ac2:	4661                	li	a2,24
    1ac4:	03200593          	li	a1,50
    1ac8:	4529                	li	a0,10
    1aca:	81fff0ef          	jal	ra,12e8 <LCD_ShowString>
    1ace:	1f400513          	li	a0,500
    1ad2:	4c8010ef          	jal	ra,2f9a <Delay_Ms>
    1ad6:	85a2                	mv	a1,s0
    1ad8:	8526                	mv	a0,s1
    1ada:	988ff0ef          	jal	ra,c62 <LCD_SetColor>
    1ade:	f20c8713          	addi	a4,s9,-224 # 8f20 <asc2_3216+0x1870>
    1ae2:	4685                	li	a3,1
    1ae4:	4661                	li	a2,24
    1ae6:	03200593          	li	a1,50
    1aea:	4529                	li	a0,10
    1aec:	ffcff0ef          	jal	ra,12e8 <LCD_ShowString>
    1af0:	bdc5                	j	19e0 <main+0x386>

00001af2 <SCCB_GPIO_Init>:
    1af2:	400117b7          	lui	a5,0x40011
    1af6:	c047a703          	lw	a4,-1020(a5) # 40010c04 <_eusrstack+0x20008c04>
    1afa:	76fd                	lui	a3,0xfffff
    1afc:	0ff68693          	addi	a3,a3,255 # fffff0ff <_eusrstack+0xdfff70ff>
    1b00:	8f75                	and	a4,a4,a3
    1b02:	c0e7a223          	sw	a4,-1020(a5)
    1b06:	c047a703          	lw	a4,-1020(a5)
    1b0a:	76c5                	lui	a3,0xffff1
    1b0c:	16fd                	addi	a3,a3,-1
    1b0e:	30076713          	ori	a4,a4,768
    1b12:	c0e7a223          	sw	a4,-1020(a5)
    1b16:	c047a703          	lw	a4,-1020(a5)
    1b1a:	8f75                	and	a4,a4,a3
    1b1c:	c0e7a223          	sw	a4,-1020(a5)
    1b20:	c047a703          	lw	a4,-1020(a5)
    1b24:	668d                	lui	a3,0x3
    1b26:	8f55                	or	a4,a4,a3
    1b28:	c0e7a223          	sw	a4,-1020(a5)
    1b2c:	40000713          	li	a4,1024
    1b30:	c0e7a823          	sw	a4,-1008(a5)
    1b34:	6705                	lui	a4,0x1
    1b36:	80070713          	addi	a4,a4,-2048 # 800 <__stack_size>
    1b3a:	c0e7a823          	sw	a4,-1008(a5)
    1b3e:	8082                	ret

00001b40 <SCCB_Start>:
    1b40:	1141                	addi	sp,sp,-16
    1b42:	c226                	sw	s1,4(sp)
    1b44:	6485                	lui	s1,0x1
    1b46:	c606                	sw	ra,12(sp)
    1b48:	c422                	sw	s0,8(sp)
    1b4a:	c04a                	sw	s2,0(sp)
    1b4c:	40011437          	lui	s0,0x40011
    1b50:	80048493          	addi	s1,s1,-2048 # 800 <__stack_size>
    1b54:	c0942823          	sw	s1,-1008(s0) # 40010c10 <_eusrstack+0x20008c10>
    1b58:	40000913          	li	s2,1024
    1b5c:	c1242823          	sw	s2,-1008(s0)
    1b60:	03200513          	li	a0,50
    1b64:	408010ef          	jal	ra,2f6c <Delay_Us>
    1b68:	03200513          	li	a0,50
    1b6c:	c0942a23          	sw	s1,-1004(s0)
    1b70:	3fc010ef          	jal	ra,2f6c <Delay_Us>
    1b74:	40b2                	lw	ra,12(sp)
    1b76:	c1242a23          	sw	s2,-1004(s0)
    1b7a:	4422                	lw	s0,8(sp)
    1b7c:	4492                	lw	s1,4(sp)
    1b7e:	4902                	lw	s2,0(sp)
    1b80:	0141                	addi	sp,sp,16
    1b82:	8082                	ret

00001b84 <SCCB_Stop>:
    1b84:	1141                	addi	sp,sp,-16
    1b86:	c226                	sw	s1,4(sp)
    1b88:	6485                	lui	s1,0x1
    1b8a:	c606                	sw	ra,12(sp)
    1b8c:	c422                	sw	s0,8(sp)
    1b8e:	80048493          	addi	s1,s1,-2048 # 800 <__stack_size>
    1b92:	40011437          	lui	s0,0x40011
    1b96:	c0942a23          	sw	s1,-1004(s0) # 40010c14 <_eusrstack+0x20008c14>
    1b9a:	03200513          	li	a0,50
    1b9e:	3ce010ef          	jal	ra,2f6c <Delay_Us>
    1ba2:	40000793          	li	a5,1024
    1ba6:	c0f42823          	sw	a5,-1008(s0)
    1baa:	03200513          	li	a0,50
    1bae:	3be010ef          	jal	ra,2f6c <Delay_Us>
    1bb2:	c0942823          	sw	s1,-1008(s0)
    1bb6:	4422                	lw	s0,8(sp)
    1bb8:	40b2                	lw	ra,12(sp)
    1bba:	4492                	lw	s1,4(sp)
    1bbc:	03200513          	li	a0,50
    1bc0:	0141                	addi	sp,sp,16
    1bc2:	3aa0106f          	j	2f6c <Delay_Us>

00001bc6 <SCCB_No_Ack>:
    1bc6:	1141                	addi	sp,sp,-16
    1bc8:	c226                	sw	s1,4(sp)
    1bca:	6485                	lui	s1,0x1
    1bcc:	c422                	sw	s0,8(sp)
    1bce:	80048493          	addi	s1,s1,-2048 # 800 <__stack_size>
    1bd2:	40011437          	lui	s0,0x40011
    1bd6:	03200513          	li	a0,50
    1bda:	c606                	sw	ra,12(sp)
    1bdc:	c04a                	sw	s2,0(sp)
    1bde:	38e010ef          	jal	ra,2f6c <Delay_Us>
    1be2:	40000913          	li	s2,1024
    1be6:	c0942823          	sw	s1,-1008(s0) # 40010c10 <_eusrstack+0x20008c10>
    1bea:	c1242823          	sw	s2,-1008(s0)
    1bee:	03200513          	li	a0,50
    1bf2:	37a010ef          	jal	ra,2f6c <Delay_Us>
    1bf6:	03200513          	li	a0,50
    1bfa:	c1242a23          	sw	s2,-1004(s0)
    1bfe:	36e010ef          	jal	ra,2f6c <Delay_Us>
    1c02:	c0942a23          	sw	s1,-1004(s0)
    1c06:	4422                	lw	s0,8(sp)
    1c08:	40b2                	lw	ra,12(sp)
    1c0a:	4492                	lw	s1,4(sp)
    1c0c:	4902                	lw	s2,0(sp)
    1c0e:	03200513          	li	a0,50
    1c12:	0141                	addi	sp,sp,16
    1c14:	3580106f          	j	2f6c <Delay_Us>

00001c18 <SCCB_WR_Byte>:
    1c18:	1101                	addi	sp,sp,-32
    1c1a:	c452                	sw	s4,8(sp)
    1c1c:	6a05                	lui	s4,0x1
    1c1e:	ca26                	sw	s1,20(sp)
    1c20:	c84a                	sw	s2,16(sp)
    1c22:	c64e                	sw	s3,12(sp)
    1c24:	c256                	sw	s5,4(sp)
    1c26:	ce06                	sw	ra,28(sp)
    1c28:	cc22                	sw	s0,24(sp)
    1c2a:	892a                	mv	s2,a0
    1c2c:	44a1                	li	s1,8
    1c2e:	40011ab7          	lui	s5,0x40011
    1c32:	800a0a13          	addi	s4,s4,-2048 # 800 <__stack_size>
    1c36:	40000993          	li	s3,1024
    1c3a:	01891793          	slli	a5,s2,0x18
    1c3e:	87e1                	srai	a5,a5,0x18
    1c40:	c00a8713          	addi	a4,s5,-1024 # 40010c00 <_eusrstack+0x20008c00>
    1c44:	0807d863          	bgez	a5,1cd4 <SCCB_WR_Byte+0xbc>
    1c48:	01472823          	sw	s4,16(a4)
    1c4c:	03200513          	li	a0,50
    1c50:	31c010ef          	jal	ra,2f6c <Delay_Us>
    1c54:	03200513          	li	a0,50
    1c58:	c13aa823          	sw	s3,-1008(s5)
    1c5c:	14fd                	addi	s1,s1,-1
    1c5e:	0906                	slli	s2,s2,0x1
    1c60:	30c010ef          	jal	ra,2f6c <Delay_Us>
    1c64:	0ff4f493          	andi	s1,s1,255
    1c68:	c13aaa23          	sw	s3,-1004(s5)
    1c6c:	0ff97913          	andi	s2,s2,255
    1c70:	f4e9                	bnez	s1,1c3a <SCCB_WR_Byte+0x22>
    1c72:	c04aa783          	lw	a5,-1020(s5)
    1c76:	74c5                	lui	s1,0xffff1
    1c78:	14fd                	addi	s1,s1,-1
    1c7a:	8fe5                	and	a5,a5,s1
    1c7c:	c0faa223          	sw	a5,-1020(s5)
    1c80:	c04aa783          	lw	a5,-1020(s5)
    1c84:	6721                	lui	a4,0x8
    1c86:	03200513          	li	a0,50
    1c8a:	8fd9                	or	a5,a5,a4
    1c8c:	c0faa223          	sw	a5,-1020(s5)
    1c90:	2dc010ef          	jal	ra,2f6c <Delay_Us>
    1c94:	03200513          	li	a0,50
    1c98:	c13aa823          	sw	s3,-1008(s5)
    1c9c:	2d0010ef          	jal	ra,2f6c <Delay_Us>
    1ca0:	c08aa503          	lw	a0,-1016(s5)
    1ca4:	c13aaa23          	sw	s3,-1004(s5)
    1ca8:	c04aa783          	lw	a5,-1020(s5)
    1cac:	40f2                	lw	ra,28(sp)
    1cae:	4462                	lw	s0,24(sp)
    1cb0:	8cfd                	and	s1,s1,a5
    1cb2:	c09aa223          	sw	s1,-1020(s5)
    1cb6:	c04aa783          	lw	a5,-1020(s5)
    1cba:	670d                	lui	a4,0x3
    1cbc:	812d                	srli	a0,a0,0xb
    1cbe:	8fd9                	or	a5,a5,a4
    1cc0:	c0faa223          	sw	a5,-1020(s5)
    1cc4:	44d2                	lw	s1,20(sp)
    1cc6:	4942                	lw	s2,16(sp)
    1cc8:	49b2                	lw	s3,12(sp)
    1cca:	4a22                	lw	s4,8(sp)
    1ccc:	4a92                	lw	s5,4(sp)
    1cce:	8905                	andi	a0,a0,1
    1cd0:	6105                	addi	sp,sp,32
    1cd2:	8082                	ret
    1cd4:	01472a23          	sw	s4,20(a4) # 3014 <USART_Printf_Init+0x4c>
    1cd8:	bf95                	j	1c4c <SCCB_WR_Byte+0x34>

00001cda <SCCB_RD_Byte>:
    1cda:	400117b7          	lui	a5,0x40011
    1cde:	c047a703          	lw	a4,-1020(a5) # 40010c04 <_eusrstack+0x20008c04>
    1ce2:	76c5                	lui	a3,0xffff1
    1ce4:	1101                	addi	sp,sp,-32
    1ce6:	16fd                	addi	a3,a3,-1
    1ce8:	cc22                	sw	s0,24(sp)
    1cea:	ca26                	sw	s1,20(sp)
    1cec:	c84a                	sw	s2,16(sp)
    1cee:	c64e                	sw	s3,12(sp)
    1cf0:	c452                	sw	s4,8(sp)
    1cf2:	8f75                	and	a4,a4,a3
    1cf4:	ce06                	sw	ra,28(sp)
    1cf6:	c0e7a223          	sw	a4,-1020(a5)
    1cfa:	c047a703          	lw	a4,-1020(a5)
    1cfe:	66a1                	lui	a3,0x8
    1d00:	6905                	lui	s2,0x1
    1d02:	8f55                	or	a4,a4,a3
    1d04:	c0e7a223          	sw	a4,-1020(a5)
    1d08:	44a1                	li	s1,8
    1d0a:	4401                	li	s0,0
    1d0c:	40011a37          	lui	s4,0x40011
    1d10:	40000993          	li	s3,1024
    1d14:	80090913          	addi	s2,s2,-2048 # 800 <__stack_size>
    1d18:	03200513          	li	a0,50
    1d1c:	250010ef          	jal	ra,2f6c <Delay_Us>
    1d20:	c13a2823          	sw	s3,-1008(s4) # 40010c10 <_eusrstack+0x20008c10>
    1d24:	c08a2783          	lw	a5,-1016(s4)
    1d28:	0406                	slli	s0,s0,0x1
    1d2a:	0ff47413          	andi	s0,s0,255
    1d2e:	0127f7b3          	and	a5,a5,s2
    1d32:	c781                	beqz	a5,1d3a <SCCB_RD_Byte+0x60>
    1d34:	0405                	addi	s0,s0,1
    1d36:	0ff47413          	andi	s0,s0,255
    1d3a:	03200513          	li	a0,50
    1d3e:	14fd                	addi	s1,s1,-1
    1d40:	22c010ef          	jal	ra,2f6c <Delay_Us>
    1d44:	0ff4f493          	andi	s1,s1,255
    1d48:	c13a2a23          	sw	s3,-1004(s4)
    1d4c:	f4f1                	bnez	s1,1d18 <SCCB_RD_Byte+0x3e>
    1d4e:	c04a2703          	lw	a4,-1020(s4)
    1d52:	76c5                	lui	a3,0xffff1
    1d54:	16fd                	addi	a3,a3,-1
    1d56:	8f75                	and	a4,a4,a3
    1d58:	c0ea2223          	sw	a4,-1020(s4)
    1d5c:	c04a2703          	lw	a4,-1020(s4)
    1d60:	8522                	mv	a0,s0
    1d62:	40f2                	lw	ra,28(sp)
    1d64:	4462                	lw	s0,24(sp)
    1d66:	668d                	lui	a3,0x3
    1d68:	8f55                	or	a4,a4,a3
    1d6a:	c0ea2223          	sw	a4,-1020(s4)
    1d6e:	44d2                	lw	s1,20(sp)
    1d70:	4942                	lw	s2,16(sp)
    1d72:	49b2                	lw	s3,12(sp)
    1d74:	4a22                	lw	s4,8(sp)
    1d76:	6105                	addi	sp,sp,32
    1d78:	8082                	ret

00001d7a <SCCB_WR_Reg>:
    1d7a:	1101                	addi	sp,sp,-32
    1d7c:	ce06                	sw	ra,28(sp)
    1d7e:	c62e                	sw	a1,12(sp)
    1d80:	cc22                	sw	s0,24(sp)
    1d82:	ca26                	sw	s1,20(sp)
    1d84:	84aa                	mv	s1,a0
    1d86:	3b6d                	jal	1b40 <SCCB_Start>
    1d88:	06000513          	li	a0,96
    1d8c:	3571                	jal	1c18 <SCCB_WR_Byte>
    1d8e:	842a                	mv	s0,a0
    1d90:	06400513          	li	a0,100
    1d94:	1d8010ef          	jal	ra,2f6c <Delay_Us>
    1d98:	8526                	mv	a0,s1
    1d9a:	3dbd                	jal	1c18 <SCCB_WR_Byte>
    1d9c:	8c49                	or	s0,s0,a0
    1d9e:	06400513          	li	a0,100
    1da2:	1ca010ef          	jal	ra,2f6c <Delay_Us>
    1da6:	45b2                	lw	a1,12(sp)
    1da8:	852e                	mv	a0,a1
    1daa:	35bd                	jal	1c18 <SCCB_WR_Byte>
    1dac:	c909                	beqz	a0,1dbe <SCCB_WR_Reg+0x44>
    1dae:	4405                	li	s0,1
    1db0:	3bd1                	jal	1b84 <SCCB_Stop>
    1db2:	8522                	mv	a0,s0
    1db4:	40f2                	lw	ra,28(sp)
    1db6:	4462                	lw	s0,24(sp)
    1db8:	44d2                	lw	s1,20(sp)
    1dba:	6105                	addi	sp,sp,32
    1dbc:	8082                	ret
    1dbe:	0ff47413          	andi	s0,s0,255
    1dc2:	00803433          	snez	s0,s0
    1dc6:	b7ed                	j	1db0 <SCCB_WR_Reg+0x36>

00001dc8 <SCCB_RD_Reg>:
    1dc8:	1101                	addi	sp,sp,-32
    1dca:	ce06                	sw	ra,28(sp)
    1dcc:	cc22                	sw	s0,24(sp)
    1dce:	842a                	mv	s0,a0
    1dd0:	3b85                	jal	1b40 <SCCB_Start>
    1dd2:	06000513          	li	a0,96
    1dd6:	3589                	jal	1c18 <SCCB_WR_Byte>
    1dd8:	06400513          	li	a0,100
    1ddc:	190010ef          	jal	ra,2f6c <Delay_Us>
    1de0:	8522                	mv	a0,s0
    1de2:	3d1d                	jal	1c18 <SCCB_WR_Byte>
    1de4:	06400513          	li	a0,100
    1de8:	184010ef          	jal	ra,2f6c <Delay_Us>
    1dec:	3b61                	jal	1b84 <SCCB_Stop>
    1dee:	06400513          	li	a0,100
    1df2:	17a010ef          	jal	ra,2f6c <Delay_Us>
    1df6:	d4bff0ef          	jal	ra,1b40 <SCCB_Start>
    1dfa:	06100513          	li	a0,97
    1dfe:	3d29                	jal	1c18 <SCCB_WR_Byte>
    1e00:	06400513          	li	a0,100
    1e04:	168010ef          	jal	ra,2f6c <Delay_Us>
    1e08:	3dc9                	jal	1cda <SCCB_RD_Byte>
    1e0a:	c62a                	sw	a0,12(sp)
    1e0c:	3b6d                	jal	1bc6 <SCCB_No_Ack>
    1e0e:	3b9d                	jal	1b84 <SCCB_Stop>
    1e10:	40f2                	lw	ra,28(sp)
    1e12:	4462                	lw	s0,24(sp)
    1e14:	4532                	lw	a0,12(sp)
    1e16:	6105                	addi	sp,sp,32
    1e18:	8082                	ret

00001e1a <DVP_GPIO_Init>:
    1e1a:	7179                	addi	sp,sp,-48
    1e1c:	4585                	li	a1,1
    1e1e:	03c00513          	li	a0,60
    1e22:	d606                	sw	ra,44(sp)
    1e24:	d422                	sw	s0,40(sp)
    1e26:	d226                	sw	s1,36(sp)
    1e28:	d04a                	sw	s2,32(sp)
    1e2a:	ce4e                	sw	s3,28(sp)
    1e2c:	400114b7          	lui	s1,0x40011
    1e30:	5af000ef          	jal	ra,2bde <RCC_APB2PeriphClockCmd>
    1e34:	08000993          	li	s3,128
    1e38:	4941                	li	s2,16
    1e3a:	440d                	li	s0,3
    1e3c:	004c                	addi	a1,sp,4
    1e3e:	c0048513          	addi	a0,s1,-1024 # 40010c00 <_eusrstack+0x20008c00>
    1e42:	01311223          	sh	s3,4(sp)
    1e46:	c64a                	sw	s2,12(sp)
    1e48:	c422                	sw	s0,8(sp)
    1e4a:	0b9000ef          	jal	ra,2702 <GPIO_Init>
    1e4e:	004c                	addi	a1,sp,4
    1e50:	40011537          	lui	a0,0x40011
    1e54:	01311223          	sh	s3,4(sp)
    1e58:	c64a                	sw	s2,12(sp)
    1e5a:	c422                	sw	s0,8(sp)
    1e5c:	0a7000ef          	jal	ra,2702 <GPIO_Init>
    1e60:	04800413          	li	s0,72
    1e64:	67000793          	li	a5,1648
    1e68:	004c                	addi	a1,sp,4
    1e6a:	80048513          	addi	a0,s1,-2048
    1e6e:	00f11223          	sh	a5,4(sp)
    1e72:	c622                	sw	s0,12(sp)
    1e74:	08f000ef          	jal	ra,2702 <GPIO_Init>
    1e78:	6785                	lui	a5,0x1
    1e7a:	f4078793          	addi	a5,a5,-192 # f40 <LCD_Init+0x1c8>
    1e7e:	004c                	addi	a1,sp,4
    1e80:	c0048513          	addi	a0,s1,-1024
    1e84:	00f11223          	sh	a5,4(sp)
    1e88:	c622                	sw	s0,12(sp)
    1e8a:	079000ef          	jal	ra,2702 <GPIO_Init>
    1e8e:	6789                	lui	a5,0x2
    1e90:	f0078793          	addi	a5,a5,-256 # 1f00 <OV2640_Init+0x4e>
    1e94:	004c                	addi	a1,sp,4
    1e96:	40011537          	lui	a0,0x40011
    1e9a:	c622                	sw	s0,12(sp)
    1e9c:	00f11223          	sh	a5,4(sp)
    1ea0:	063000ef          	jal	ra,2702 <GPIO_Init>
    1ea4:	50b2                	lw	ra,44(sp)
    1ea6:	5422                	lw	s0,40(sp)
    1ea8:	5492                	lw	s1,36(sp)
    1eaa:	5902                	lw	s2,32(sp)
    1eac:	49f2                	lw	s3,28(sp)
    1eae:	6145                	addi	sp,sp,48
    1eb0:	8082                	ret

00001eb2 <OV2640_Init>:
    1eb2:	1141                	addi	sp,sp,-16
    1eb4:	c606                	sw	ra,12(sp)
    1eb6:	c422                	sw	s0,8(sp)
    1eb8:	c226                	sw	s1,4(sp)
    1eba:	40011437          	lui	s0,0x40011
    1ebe:	3fb1                	jal	1e1a <DVP_GPIO_Init>
    1ec0:	08000493          	li	s1,128
    1ec4:	c844                	sw	s1,20(s0)
    1ec6:	4529                	li	a0,10
    1ec8:	0d2010ef          	jal	ra,2f9a <Delay_Ms>
    1ecc:	4529                	li	a0,10
    1ece:	c0942a23          	sw	s1,-1004(s0) # 40010c14 <_eusrstack+0x20008c14>
    1ed2:	0c8010ef          	jal	ra,2f9a <Delay_Ms>
    1ed6:	c0942823          	sw	s1,-1008(s0)
    1eda:	c19ff0ef          	jal	ra,1af2 <SCCB_GPIO_Init>
    1ede:	4585                	li	a1,1
    1ee0:	0ff00513          	li	a0,255
    1ee4:	3d59                	jal	1d7a <SCCB_WR_Reg>
    1ee6:	08000593          	li	a1,128
    1eea:	4549                	li	a0,18
    1eec:	3579                	jal	1d7a <SCCB_WR_Reg>
    1eee:	03200513          	li	a0,50
    1ef2:	0a8010ef          	jal	ra,2f9a <Delay_Ms>
    1ef6:	4571                	li	a0,28
    1ef8:	3dc1                	jal	1dc8 <SCCB_RD_Reg>
    1efa:	01051413          	slli	s0,a0,0x10
    1efe:	8041                	srli	s0,s0,0x10
    1f00:	0422                	slli	s0,s0,0x8
    1f02:	0442                	slli	s0,s0,0x10
    1f04:	4575                	li	a0,29
    1f06:	35c9                	jal	1dc8 <SCCB_RD_Reg>
    1f08:	8041                	srli	s0,s0,0x10
    1f0a:	8d41                	or	a0,a0,s0
    1f0c:	01051593          	slli	a1,a0,0x10
    1f10:	67a1                	lui	a5,0x8
    1f12:	81c1                	srli	a1,a1,0x10
    1f14:	fa278793          	addi	a5,a5,-94 # 7fa2 <asc2_3216+0x8f2>
    1f18:	00f58e63          	beq	a1,a5,1f34 <OV2640_Init+0x82>
    1f1c:	00009537          	lui	a0,0x9
    1f20:	f3c50513          	addi	a0,a0,-196 # 8f3c <asc2_3216+0x188c>
    1f24:	790020ef          	jal	ra,46b4 <iprintf>
    1f28:	4505                	li	a0,1
    1f2a:	40b2                	lw	ra,12(sp)
    1f2c:	4422                	lw	s0,8(sp)
    1f2e:	4492                	lw	s1,4(sp)
    1f30:	0141                	addi	sp,sp,16
    1f32:	8082                	ret
    1f34:	4529                	li	a0,10
    1f36:	3d49                	jal	1dc8 <SCCB_RD_Reg>
    1f38:	01051413          	slli	s0,a0,0x10
    1f3c:	8041                	srli	s0,s0,0x10
    1f3e:	0422                	slli	s0,s0,0x8
    1f40:	0442                	slli	s0,s0,0x10
    1f42:	452d                	li	a0,11
    1f44:	3551                	jal	1dc8 <SCCB_RD_Reg>
    1f46:	8041                	srli	s0,s0,0x10
    1f48:	8d41                	or	a0,a0,s0
    1f4a:	01051593          	slli	a1,a0,0x10
    1f4e:	6789                	lui	a5,0x2
    1f50:	81c1                	srli	a1,a1,0x10
    1f52:	64278793          	addi	a5,a5,1602 # 2642 <FSMC_NORSRAMInit+0x18>
    1f56:	00f58a63          	beq	a1,a5,1f6a <OV2640_Init+0xb8>
    1f5a:	00009537          	lui	a0,0x9
    1f5e:	f4850513          	addi	a0,a0,-184 # 8f48 <asc2_3216+0x1898>
    1f62:	752020ef          	jal	ra,46b4 <iprintf>
    1f66:	4509                	li	a0,2
    1f68:	b7c9                	j	1f2a <OV2640_Init+0x78>
    1f6a:	6425                	lui	s0,0x9
    1f6c:	f5440413          	addi	s0,s0,-172 # 8f54 <OV2640_InitRegTbl>
    1f70:	16440493          	addi	s1,s0,356
    1f74:	00144583          	lbu	a1,1(s0)
    1f78:	00044503          	lbu	a0,0(s0)
    1f7c:	0409                	addi	s0,s0,2
    1f7e:	3bf5                	jal	1d7a <SCCB_WR_Reg>
    1f80:	fe941ae3          	bne	s0,s1,1f74 <OV2640_Init+0xc2>
    1f84:	4501                	li	a0,0
    1f86:	b755                	j	1f2a <OV2640_Init+0x78>

00001f88 <OV2640_RGB565_Mode>:
    1f88:	1141                	addi	sp,sp,-16
    1f8a:	c422                	sw	s0,8(sp)
    1f8c:	6425                	lui	s0,0x9
    1f8e:	0b840413          	addi	s0,s0,184 # 90b8 <OV2640_RGB565RegTbl>
    1f92:	c226                	sw	s1,4(sp)
    1f94:	c606                	sw	ra,12(sp)
    1f96:	01c40493          	addi	s1,s0,28
    1f9a:	00144583          	lbu	a1,1(s0)
    1f9e:	00044503          	lbu	a0,0(s0)
    1fa2:	0409                	addi	s0,s0,2
    1fa4:	dd7ff0ef          	jal	ra,1d7a <SCCB_WR_Reg>
    1fa8:	fe9419e3          	bne	s0,s1,1f9a <OV2640_RGB565_Mode+0x12>
    1fac:	40b2                	lw	ra,12(sp)
    1fae:	4422                	lw	s0,8(sp)
    1fb0:	4492                	lw	s1,4(sp)
    1fb2:	0141                	addi	sp,sp,16
    1fb4:	8082                	ret

00001fb6 <OV2640_OutSize_Set>:
    1fb6:	00b567b3          	or	a5,a0,a1
    1fba:	8b8d                	andi	a5,a5,3
    1fbc:	e7b5                	bnez	a5,2028 <OV2640_OutSize_Set+0x72>
    1fbe:	1141                	addi	sp,sp,-16
    1fc0:	c422                	sw	s0,8(sp)
    1fc2:	c226                	sw	s1,4(sp)
    1fc4:	842a                	mv	s0,a0
    1fc6:	84ae                	mv	s1,a1
    1fc8:	0ff00513          	li	a0,255
    1fcc:	4581                	li	a1,0
    1fce:	c606                	sw	ra,12(sp)
    1fd0:	dabff0ef          	jal	ra,1d7a <SCCB_WR_Reg>
    1fd4:	4591                	li	a1,4
    1fd6:	0e000513          	li	a0,224
    1fda:	da1ff0ef          	jal	ra,1d7a <SCCB_WR_Reg>
    1fde:	00245593          	srli	a1,s0,0x2
    1fe2:	0ff5f593          	andi	a1,a1,255
    1fe6:	05a00513          	li	a0,90
    1fea:	d91ff0ef          	jal	ra,1d7a <SCCB_WR_Reg>
    1fee:	0024d593          	srli	a1,s1,0x2
    1ff2:	0ff5f593          	andi	a1,a1,255
    1ff6:	05b00513          	li	a0,91
    1ffa:	d81ff0ef          	jal	ra,1d7a <SCCB_WR_Reg>
    1ffe:	0084d593          	srli	a1,s1,0x8
    2002:	8029                	srli	s0,s0,0xa
    2004:	880d                	andi	s0,s0,3
    2006:	8991                	andi	a1,a1,4
    2008:	8dc1                	or	a1,a1,s0
    200a:	05c00513          	li	a0,92
    200e:	d6dff0ef          	jal	ra,1d7a <SCCB_WR_Reg>
    2012:	4581                	li	a1,0
    2014:	0e000513          	li	a0,224
    2018:	d63ff0ef          	jal	ra,1d7a <SCCB_WR_Reg>
    201c:	40b2                	lw	ra,12(sp)
    201e:	4422                	lw	s0,8(sp)
    2020:	4492                	lw	s1,4(sp)
    2022:	4501                	li	a0,0
    2024:	0141                	addi	sp,sp,16
    2026:	8082                	ret
    2028:	4505                	li	a0,1
    202a:	8082                	ret

0000202c <OV2640_Speed_Set>:
    202c:	1141                	addi	sp,sp,-16
    202e:	c422                	sw	s0,8(sp)
    2030:	c226                	sw	s1,4(sp)
    2032:	842e                	mv	s0,a1
    2034:	84aa                	mv	s1,a0
    2036:	4581                	li	a1,0
    2038:	0ff00513          	li	a0,255
    203c:	c606                	sw	ra,12(sp)
    203e:	d3dff0ef          	jal	ra,1d7a <SCCB_WR_Reg>
    2042:	85a6                	mv	a1,s1
    2044:	0d300513          	li	a0,211
    2048:	d33ff0ef          	jal	ra,1d7a <SCCB_WR_Reg>
    204c:	4585                	li	a1,1
    204e:	0ff00513          	li	a0,255
    2052:	d29ff0ef          	jal	ra,1d7a <SCCB_WR_Reg>
    2056:	85a2                	mv	a1,s0
    2058:	4422                	lw	s0,8(sp)
    205a:	40b2                	lw	ra,12(sp)
    205c:	4492                	lw	s1,4(sp)
    205e:	4545                	li	a0,17
    2060:	0141                	addi	sp,sp,16
    2062:	d19ff06f          	j	1d7a <SCCB_WR_Reg>

00002066 <RGB565_Mode_Init>:
    2066:	1141                	addi	sp,sp,-16
    2068:	c606                	sw	ra,12(sp)
    206a:	3f39                	jal	1f88 <OV2640_RGB565_Mode>
    206c:	14000593          	li	a1,320
    2070:	0f000513          	li	a0,240
    2074:	3789                	jal	1fb6 <OV2640_OutSize_Set>
    2076:	40b2                	lw	ra,12(sp)
    2078:	458d                	li	a1,3
    207a:	453d                	li	a0,15
    207c:	0141                	addi	sp,sp,16
    207e:	b77d                	j	202c <OV2640_Speed_Set>

00002080 <SystemInit>:
    2080:	400217b7          	lui	a5,0x40021
    2084:	4398                	lw	a4,0(a5)
    2086:	f8ff06b7          	lui	a3,0xf8ff0
    208a:	1141                	addi	sp,sp,-16
    208c:	00176713          	ori	a4,a4,1
    2090:	c398                	sw	a4,0(a5)
    2092:	43d8                	lw	a4,4(a5)
    2094:	00020637          	lui	a2,0x20
    2098:	8f75                	and	a4,a4,a3
    209a:	c3d8                	sw	a4,4(a5)
    209c:	4398                	lw	a4,0(a5)
    209e:	fef706b7          	lui	a3,0xfef70
    20a2:	16fd                	addi	a3,a3,-1
    20a4:	8f75                	and	a4,a4,a3
    20a6:	c398                	sw	a4,0(a5)
    20a8:	4398                	lw	a4,0(a5)
    20aa:	fffc06b7          	lui	a3,0xfffc0
    20ae:	16fd                	addi	a3,a3,-1
    20b0:	8f75                	and	a4,a4,a3
    20b2:	c398                	sw	a4,0(a5)
    20b4:	43d8                	lw	a4,4(a5)
    20b6:	ff8106b7          	lui	a3,0xff810
    20ba:	16fd                	addi	a3,a3,-1
    20bc:	8f75                	and	a4,a4,a3
    20be:	c3d8                	sw	a4,4(a5)
    20c0:	4398                	lw	a4,0(a5)
    20c2:	ec0006b7          	lui	a3,0xec000
    20c6:	16fd                	addi	a3,a3,-1
    20c8:	8f75                	and	a4,a4,a3
    20ca:	c398                	sw	a4,0(a5)
    20cc:	00ff0737          	lui	a4,0xff0
    20d0:	c798                	sw	a4,8(a5)
    20d2:	0207a623          	sw	zero,44(a5) # 4002102c <_eusrstack+0x2001902c>
    20d6:	c402                	sw	zero,8(sp)
    20d8:	c602                	sw	zero,12(sp)
    20da:	4398                	lw	a4,0(a5)
    20dc:	66c1                	lui	a3,0x10
    20de:	8f55                	or	a4,a4,a3
    20e0:	c398                	sw	a4,0(a5)
    20e2:	400216b7          	lui	a3,0x40021
    20e6:	6705                	lui	a4,0x1
    20e8:	429c                	lw	a5,0(a3)
    20ea:	8ff1                	and	a5,a5,a2
    20ec:	c63e                	sw	a5,12(sp)
    20ee:	47a2                	lw	a5,8(sp)
    20f0:	0785                	addi	a5,a5,1
    20f2:	c43e                	sw	a5,8(sp)
    20f4:	47b2                	lw	a5,12(sp)
    20f6:	e781                	bnez	a5,20fe <SystemInit+0x7e>
    20f8:	47a2                	lw	a5,8(sp)
    20fa:	fee797e3          	bne	a5,a4,20e8 <SystemInit+0x68>
    20fe:	400217b7          	lui	a5,0x40021
    2102:	439c                	lw	a5,0(a5)
    2104:	00e79713          	slli	a4,a5,0xe
    2108:	06075763          	bgez	a4,2176 <SystemInit+0xf6>
    210c:	4785                	li	a5,1
    210e:	c63e                	sw	a5,12(sp)
    2110:	4732                	lw	a4,12(sp)
    2112:	4785                	li	a5,1
    2114:	04f71f63          	bne	a4,a5,2172 <SystemInit+0xf2>
    2118:	400217b7          	lui	a5,0x40021
    211c:	43d8                	lw	a4,4(a5)
    211e:	ffc106b7          	lui	a3,0xffc10
    2122:	16fd                	addi	a3,a3,-1
    2124:	c3d8                	sw	a4,4(a5)
    2126:	43d8                	lw	a4,4(a5)
    2128:	c3d8                	sw	a4,4(a5)
    212a:	43d8                	lw	a4,4(a5)
    212c:	40076713          	ori	a4,a4,1024
    2130:	c3d8                	sw	a4,4(a5)
    2132:	43d8                	lw	a4,4(a5)
    2134:	8f75                	and	a4,a4,a3
    2136:	c3d8                	sw	a4,4(a5)
    2138:	43d8                	lw	a4,4(a5)
    213a:	001d06b7          	lui	a3,0x1d0
    213e:	8f55                	or	a4,a4,a3
    2140:	c3d8                	sw	a4,4(a5)
    2142:	4398                	lw	a4,0(a5)
    2144:	010006b7          	lui	a3,0x1000
    2148:	8f55                	or	a4,a4,a3
    214a:	c398                	sw	a4,0(a5)
    214c:	4398                	lw	a4,0(a5)
    214e:	00671693          	slli	a3,a4,0x6
    2152:	fe06dde3          	bgez	a3,214c <SystemInit+0xcc>
    2156:	43d8                	lw	a4,4(a5)
    2158:	400216b7          	lui	a3,0x40021
    215c:	9b71                	andi	a4,a4,-4
    215e:	c3d8                	sw	a4,4(a5)
    2160:	43d8                	lw	a4,4(a5)
    2162:	00276713          	ori	a4,a4,2
    2166:	c3d8                	sw	a4,4(a5)
    2168:	4721                	li	a4,8
    216a:	42dc                	lw	a5,4(a3)
    216c:	8bb1                	andi	a5,a5,12
    216e:	fee79ee3          	bne	a5,a4,216a <SystemInit+0xea>
    2172:	0141                	addi	sp,sp,16
    2174:	8082                	ret
    2176:	c602                	sw	zero,12(sp)
    2178:	bf61                	j	2110 <SystemInit+0x90>

0000217a <Tick_TIM_Init>:
    217a:	1101                	addi	sp,sp,-32
    217c:	cc22                	sw	s0,24(sp)
    217e:	ca26                	sw	s1,20(sp)
    2180:	842e                	mv	s0,a1
    2182:	84aa                	mv	s1,a0
    2184:	4585                	li	a1,1
    2186:	4541                	li	a0,16
    2188:	ce06                	sw	ra,28(sp)
    218a:	273000ef          	jal	ra,2bfc <RCC_APB1PeriphClockCmd>
    218e:	47c1                	li	a5,16
    2190:	004c                	addi	a1,sp,4
    2192:	40001537          	lui	a0,0x40001
    2196:	00f11323          	sh	a5,6(sp)
    219a:	00911423          	sh	s1,8(sp)
    219e:	00811223          	sh	s0,4(sp)
    21a2:	00011523          	sh	zero,10(sp)
    21a6:	275000ef          	jal	ra,2c1a <TIM_TimeBaseInit>
    21aa:	4605                	li	a2,1
    21ac:	4585                	li	a1,1
    21ae:	40001537          	lui	a0,0x40001
    21b2:	427000ef          	jal	ra,2dd8 <TIM_ITConfig>
    21b6:	4585                	li	a1,1
    21b8:	40001537          	lui	a0,0x40001
    21bc:	433000ef          	jal	ra,2dee <TIM_ARRPreloadConfig>
    21c0:	4585                	li	a1,1
    21c2:	40001537          	lui	a0,0x40001
    21c6:	3e1000ef          	jal	ra,2da6 <TIM_Cmd>
    21ca:	40f2                	lw	ra,28(sp)
    21cc:	4462                	lw	s0,24(sp)
    21ce:	44d2                	lw	s1,20(sp)
    21d0:	6105                	addi	sp,sp,32
    21d2:	8082                	ret

000021d4 <Refresh_TIM_Init>:
    21d4:	1101                	addi	sp,sp,-32
    21d6:	cc22                	sw	s0,24(sp)
    21d8:	ca26                	sw	s1,20(sp)
    21da:	842e                	mv	s0,a1
    21dc:	84aa                	mv	s1,a0
    21de:	4585                	li	a1,1
    21e0:	02000513          	li	a0,32
    21e4:	ce06                	sw	ra,28(sp)
    21e6:	217000ef          	jal	ra,2bfc <RCC_APB1PeriphClockCmd>
    21ea:	00811223          	sh	s0,4(sp)
    21ee:	40001437          	lui	s0,0x40001
    21f2:	47c1                	li	a5,16
    21f4:	004c                	addi	a1,sp,4
    21f6:	40040513          	addi	a0,s0,1024 # 40001400 <_eusrstack+0x1fff9400>
    21fa:	00f11323          	sh	a5,6(sp)
    21fe:	00911423          	sh	s1,8(sp)
    2202:	00011523          	sh	zero,10(sp)
    2206:	215000ef          	jal	ra,2c1a <TIM_TimeBaseInit>
    220a:	4605                	li	a2,1
    220c:	40040513          	addi	a0,s0,1024
    2210:	4585                	li	a1,1
    2212:	3c7000ef          	jal	ra,2dd8 <TIM_ITConfig>
    2216:	40040513          	addi	a0,s0,1024
    221a:	4585                	li	a1,1
    221c:	3d3000ef          	jal	ra,2dee <TIM_ARRPreloadConfig>
    2220:	40040513          	addi	a0,s0,1024
    2224:	4585                	li	a1,1
    2226:	381000ef          	jal	ra,2da6 <TIM_Cmd>
    222a:	40f2                	lw	ra,28(sp)
    222c:	4462                	lw	s0,24(sp)
    222e:	44d2                	lw	s1,20(sp)
    2230:	6105                	addi	sp,sp,32
    2232:	8082                	ret

00002234 <Tick_TIM_INT_Init>:
    2234:	1101                	addi	sp,sp,-32
    2236:	14600793          	li	a5,326
    223a:	00011523          	sh	zero,10(sp)
    223e:	00f11423          	sh	a5,8(sp)
    2242:	4789                	li	a5,2
    2244:	00f10523          	sb	a5,10(sp)
    2248:	0028                	addi	a0,sp,8
    224a:	4785                	li	a5,1
    224c:	ce06                	sw	ra,28(sp)
    224e:	c63e                	sw	a5,12(sp)
    2250:	276d                	jal	29fa <NVIC_Init>
    2252:	40f2                	lw	ra,28(sp)
    2254:	6105                	addi	sp,sp,32
    2256:	8082                	ret

00002258 <Refresh_TIM_INT_Init>:
    2258:	1101                	addi	sp,sp,-32
    225a:	14700793          	li	a5,327
    225e:	00011523          	sh	zero,10(sp)
    2262:	00f11423          	sh	a5,8(sp)
    2266:	4789                	li	a5,2
    2268:	00f10523          	sb	a5,10(sp)
    226c:	0028                	addi	a0,sp,8
    226e:	4785                	li	a5,1
    2270:	ce06                	sw	ra,28(sp)
    2272:	c63e                	sw	a5,12(sp)
    2274:	2759                	jal	29fa <NVIC_Init>
    2276:	40f2                	lw	ra,28(sp)
    2278:	6105                	addi	sp,sp,32
    227a:	8082                	ret

0000227c <TIM6_IRQHandler>:
    227c:	4585                	li	a1,1
    227e:	40001537          	lui	a0,0x40001
    2282:	3ab000ef          	jal	ra,2e2c <TIM_ClearFlag>
    2286:	4705                	li	a4,1
    2288:	82e18ea3          	sb	a4,-1987(gp) # 200000ad <tick>
    228c:	8841a783          	lw	a5,-1916(gp) # 200000f4 <time>
    2290:	0785                	addi	a5,a5,1
    2292:	88f1a223          	sw	a5,-1916(gp) # 200000f4 <time>
    2296:	30200073          	mret

0000229a <TIM7_IRQHandler>:
    229a:	40001537          	lui	a0,0x40001
    229e:	4585                	li	a1,1
    22a0:	40050513          	addi	a0,a0,1024 # 40001400 <_eusrstack+0x1fff9400>
    22a4:	389000ef          	jal	ra,2e2c <TIM_ClearFlag>
    22a8:	4705                	li	a4,1
    22aa:	82e18e23          	sb	a4,-1988(gp) # 200000ac <refresh_flag>
    22ae:	30200073          	mret
    22b2:	a001                	j	22b2 <TIM7_IRQHandler+0x18>
    22b4:	a001                	j	22b4 <TIM7_IRQHandler+0x1a>

000022b6 <Ecall_M_Mode_Handler>:
    22b6:	a001                	j	22b6 <Ecall_M_Mode_Handler>

000022b8 <Ecall_U_Mode_Handler>:
    22b8:	a001                	j	22b8 <Ecall_U_Mode_Handler>

000022ba <Break_Point_Handler>:
    22ba:	a001                	j	22ba <Break_Point_Handler>

000022bc <SysTick_Handler>:
    22bc:	a001                	j	22bc <SysTick_Handler>

000022be <SW_Handler>:
    22be:	a001                	j	22be <SW_Handler>

000022c0 <WWDG_IRQHandler>:
    22c0:	a001                	j	22c0 <WWDG_IRQHandler>

000022c2 <PVD_IRQHandler>:
    22c2:	a001                	j	22c2 <PVD_IRQHandler>

000022c4 <TAMPER_IRQHandler>:
    22c4:	a001                	j	22c4 <TAMPER_IRQHandler>

000022c6 <RTC_IRQHandler>:
    22c6:	a001                	j	22c6 <RTC_IRQHandler>

000022c8 <FLASH_IRQHandler>:
    22c8:	a001                	j	22c8 <FLASH_IRQHandler>

000022ca <RCC_IRQHandler>:
    22ca:	a001                	j	22ca <RCC_IRQHandler>
    22cc:	a001                	j	22cc <RCC_IRQHandler+0x2>

000022ce <EXTI1_IRQHandler>:
    22ce:	a001                	j	22ce <EXTI1_IRQHandler>

000022d0 <EXTI2_IRQHandler>:
    22d0:	a001                	j	22d0 <EXTI2_IRQHandler>

000022d2 <EXTI3_IRQHandler>:
    22d2:	a001                	j	22d2 <EXTI3_IRQHandler>

000022d4 <EXTI4_IRQHandler>:
    22d4:	a001                	j	22d4 <EXTI4_IRQHandler>

000022d6 <DMA1_Channel1_IRQHandler>:
    22d6:	a001                	j	22d6 <DMA1_Channel1_IRQHandler>

000022d8 <DMA1_Channel2_IRQHandler>:
    22d8:	a001                	j	22d8 <DMA1_Channel2_IRQHandler>

000022da <DMA1_Channel3_IRQHandler>:
    22da:	a001                	j	22da <DMA1_Channel3_IRQHandler>

000022dc <DMA1_Channel4_IRQHandler>:
    22dc:	a001                	j	22dc <DMA1_Channel4_IRQHandler>

000022de <DMA1_Channel5_IRQHandler>:
    22de:	a001                	j	22de <DMA1_Channel5_IRQHandler>

000022e0 <DMA1_Channel6_IRQHandler>:
    22e0:	a001                	j	22e0 <DMA1_Channel6_IRQHandler>

000022e2 <DMA1_Channel7_IRQHandler>:
    22e2:	a001                	j	22e2 <DMA1_Channel7_IRQHandler>

000022e4 <ADC1_2_IRQHandler>:
    22e4:	a001                	j	22e4 <ADC1_2_IRQHandler>

000022e6 <USB_HP_CAN1_TX_IRQHandler>:
    22e6:	a001                	j	22e6 <USB_HP_CAN1_TX_IRQHandler>

000022e8 <USB_LP_CAN1_RX0_IRQHandler>:
    22e8:	a001                	j	22e8 <USB_LP_CAN1_RX0_IRQHandler>

000022ea <CAN1_RX1_IRQHandler>:
    22ea:	a001                	j	22ea <CAN1_RX1_IRQHandler>

000022ec <CAN1_SCE_IRQHandler>:
    22ec:	a001                	j	22ec <CAN1_SCE_IRQHandler>

000022ee <EXTI9_5_IRQHandler>:
    22ee:	a001                	j	22ee <EXTI9_5_IRQHandler>

000022f0 <TIM1_BRK_IRQHandler>:
    22f0:	a001                	j	22f0 <TIM1_BRK_IRQHandler>

000022f2 <TIM1_UP_IRQHandler>:
    22f2:	a001                	j	22f2 <TIM1_UP_IRQHandler>

000022f4 <TIM1_TRG_COM_IRQHandler>:
    22f4:	a001                	j	22f4 <TIM1_TRG_COM_IRQHandler>

000022f6 <TIM1_CC_IRQHandler>:
    22f6:	a001                	j	22f6 <TIM1_CC_IRQHandler>

000022f8 <TIM2_IRQHandler>:
    22f8:	a001                	j	22f8 <TIM2_IRQHandler>

000022fa <TIM3_IRQHandler>:
    22fa:	a001                	j	22fa <TIM3_IRQHandler>

000022fc <TIM4_IRQHandler>:
    22fc:	a001                	j	22fc <TIM4_IRQHandler>

000022fe <I2C1_EV_IRQHandler>:
    22fe:	a001                	j	22fe <I2C1_EV_IRQHandler>

00002300 <I2C1_ER_IRQHandler>:
    2300:	a001                	j	2300 <I2C1_ER_IRQHandler>

00002302 <I2C2_EV_IRQHandler>:
    2302:	a001                	j	2302 <I2C2_EV_IRQHandler>

00002304 <I2C2_ER_IRQHandler>:
    2304:	a001                	j	2304 <I2C2_ER_IRQHandler>

00002306 <SPI1_IRQHandler>:
    2306:	a001                	j	2306 <SPI1_IRQHandler>

00002308 <SPI2_IRQHandler>:
    2308:	a001                	j	2308 <SPI2_IRQHandler>

0000230a <USART1_IRQHandler>:
    230a:	a001                	j	230a <USART1_IRQHandler>

0000230c <USART2_IRQHandler>:
    230c:	a001                	j	230c <USART2_IRQHandler>

0000230e <USART3_IRQHandler>:
    230e:	a001                	j	230e <USART3_IRQHandler>

00002310 <EXTI15_10_IRQHandler>:
    2310:	a001                	j	2310 <EXTI15_10_IRQHandler>

00002312 <RTCAlarm_IRQHandler>:
    2312:	a001                	j	2312 <RTCAlarm_IRQHandler>

00002314 <USBWakeUp_IRQHandler>:
    2314:	a001                	j	2314 <USBWakeUp_IRQHandler>

00002316 <TIM8_BRK_IRQHandler>:
    2316:	a001                	j	2316 <TIM8_BRK_IRQHandler>

00002318 <TIM8_UP_IRQHandler>:
    2318:	a001                	j	2318 <TIM8_UP_IRQHandler>

0000231a <TIM8_TRG_COM_IRQHandler>:
    231a:	a001                	j	231a <TIM8_TRG_COM_IRQHandler>

0000231c <TIM8_CC_IRQHandler>:
    231c:	a001                	j	231c <TIM8_CC_IRQHandler>

0000231e <RNG_IRQHandler>:
    231e:	a001                	j	231e <RNG_IRQHandler>

00002320 <FSMC_IRQHandler>:
    2320:	a001                	j	2320 <FSMC_IRQHandler>

00002322 <SDIO_IRQHandler>:
    2322:	a001                	j	2322 <SDIO_IRQHandler>

00002324 <TIM5_IRQHandler>:
    2324:	a001                	j	2324 <TIM5_IRQHandler>

00002326 <SPI3_IRQHandler>:
    2326:	a001                	j	2326 <SPI3_IRQHandler>

00002328 <UART4_IRQHandler>:
    2328:	a001                	j	2328 <UART4_IRQHandler>

0000232a <UART5_IRQHandler>:
    232a:	a001                	j	232a <UART5_IRQHandler>
    232c:	a001                	j	232c <UART5_IRQHandler+0x2>
    232e:	a001                	j	232e <UART5_IRQHandler+0x4>

00002330 <DMA2_Channel1_IRQHandler>:
    2330:	a001                	j	2330 <DMA2_Channel1_IRQHandler>

00002332 <DMA2_Channel2_IRQHandler>:
    2332:	a001                	j	2332 <DMA2_Channel2_IRQHandler>

00002334 <DMA2_Channel3_IRQHandler>:
    2334:	a001                	j	2334 <DMA2_Channel3_IRQHandler>

00002336 <DMA2_Channel4_IRQHandler>:
    2336:	a001                	j	2336 <DMA2_Channel4_IRQHandler>

00002338 <DMA2_Channel5_IRQHandler>:
    2338:	a001                	j	2338 <DMA2_Channel5_IRQHandler>

0000233a <ETH_IRQHandler>:
    233a:	a001                	j	233a <ETH_IRQHandler>

0000233c <ETH_WKUP_IRQHandler>:
    233c:	a001                	j	233c <ETH_WKUP_IRQHandler>

0000233e <CAN2_TX_IRQHandler>:
    233e:	a001                	j	233e <CAN2_TX_IRQHandler>

00002340 <CAN2_RX0_IRQHandler>:
    2340:	a001                	j	2340 <CAN2_RX0_IRQHandler>

00002342 <CAN2_RX1_IRQHandler>:
    2342:	a001                	j	2342 <CAN2_RX1_IRQHandler>

00002344 <CAN2_SCE_IRQHandler>:
    2344:	a001                	j	2344 <CAN2_SCE_IRQHandler>

00002346 <OTG_FS_IRQHandler>:
    2346:	a001                	j	2346 <OTG_FS_IRQHandler>

00002348 <USBHSWakeup_IRQHandler>:
    2348:	a001                	j	2348 <USBHSWakeup_IRQHandler>

0000234a <USBHS_IRQHandler>:
    234a:	a001                	j	234a <USBHS_IRQHandler>
    234c:	a001                	j	234c <USBHS_IRQHandler+0x2>

0000234e <UART6_IRQHandler>:
    234e:	a001                	j	234e <UART6_IRQHandler>

00002350 <UART7_IRQHandler>:
    2350:	a001                	j	2350 <UART7_IRQHandler>

00002352 <UART8_IRQHandler>:
    2352:	a001                	j	2352 <UART8_IRQHandler>

00002354 <TIM9_BRK_IRQHandler>:
    2354:	a001                	j	2354 <TIM9_BRK_IRQHandler>

00002356 <TIM9_UP_IRQHandler>:
    2356:	a001                	j	2356 <TIM9_UP_IRQHandler>

00002358 <TIM9_TRG_COM_IRQHandler>:
    2358:	a001                	j	2358 <TIM9_TRG_COM_IRQHandler>

0000235a <TIM9_CC_IRQHandler>:
    235a:	a001                	j	235a <TIM9_CC_IRQHandler>

0000235c <TIM10_BRK_IRQHandler>:
    235c:	a001                	j	235c <TIM10_BRK_IRQHandler>

0000235e <TIM10_UP_IRQHandler>:
    235e:	a001                	j	235e <TIM10_UP_IRQHandler>

00002360 <TIM10_TRG_COM_IRQHandler>:
    2360:	a001                	j	2360 <TIM10_TRG_COM_IRQHandler>

00002362 <TIM10_CC_IRQHandler>:
    2362:	a001                	j	2362 <TIM10_CC_IRQHandler>

00002364 <DMA2_Channel6_IRQHandler>:
    2364:	a001                	j	2364 <DMA2_Channel6_IRQHandler>

00002366 <DMA2_Channel7_IRQHandler>:
    2366:	a001                	j	2366 <DMA2_Channel7_IRQHandler>

00002368 <DMA2_Channel8_IRQHandler>:
    2368:	a001                	j	2368 <DMA2_Channel8_IRQHandler>

0000236a <DMA2_Channel9_IRQHandler>:
    236a:	a001                	j	236a <DMA2_Channel9_IRQHandler>

0000236c <DMA2_Channel10_IRQHandler>:
    236c:	a001                	j	236c <DMA2_Channel10_IRQHandler>

0000236e <DMA2_Channel11_IRQHandler>:
    236e:	a001                	j	236e <DMA2_Channel11_IRQHandler>

00002370 <handle_reset>:
    2370:	1fffe197          	auipc	gp,0x1fffe
    2374:	50018193          	addi	gp,gp,1280 # 20000870 <__global_pointer$>
    2378:	20006117          	auipc	sp,0x20006
    237c:	c8810113          	addi	sp,sp,-888 # 20008000 <_eusrstack>
    2380:	00007517          	auipc	a0,0x7
    2384:	f7050513          	addi	a0,a0,-144 # 92f0 <_data_lma>
    2388:	1fffe597          	auipc	a1,0x1fffe
    238c:	c7858593          	addi	a1,a1,-904 # 20000000 <_data_vma>
    2390:	82818613          	addi	a2,gp,-2008 # 20000098 <_edata>
    2394:	00c5fa63          	bgeu	a1,a2,23a8 <handle_reset+0x38>
    2398:	00052283          	lw	t0,0(a0)
    239c:	0055a023          	sw	t0,0(a1)
    23a0:	0511                	addi	a0,a0,4
    23a2:	0591                	addi	a1,a1,4
    23a4:	fec5eae3          	bltu	a1,a2,2398 <handle_reset+0x28>
    23a8:	82818513          	addi	a0,gp,-2008 # 20000098 <_edata>
    23ac:	89c18593          	addi	a1,gp,-1892 # 2000010c <_ebss>
    23b0:	00b57763          	bgeu	a0,a1,23be <handle_reset+0x4e>
    23b4:	00052023          	sw	zero,0(a0)
    23b8:	0511                	addi	a0,a0,4
    23ba:	feb56de3          	bltu	a0,a1,23b4 <handle_reset+0x44>
    23be:	42fd                	li	t0,31
    23c0:	bc029073          	csrw	0xbc0,t0
    23c4:	42fd                	li	t0,31
    23c6:	80429073          	csrw	0x804,t0
    23ca:	000062b7          	lui	t0,0x6
    23ce:	08828293          	addi	t0,t0,136 # 6088 <asc2_1608+0x158>
    23d2:	3002a073          	csrs	mstatus,t0
    23d6:	ffffe297          	auipc	t0,0xffffe
    23da:	c6228293          	addi	t0,t0,-926 # 38 <_einit>
    23de:	0032e293          	ori	t0,t0,3
    23e2:	30529073          	csrw	mtvec,t0
    23e6:	c9bff0ef          	jal	ra,2080 <SystemInit>
    23ea:	fffff297          	auipc	t0,0xfffff
    23ee:	27028293          	addi	t0,t0,624 # 165a <main>
    23f2:	34129073          	csrw	mepc,t0
    23f6:	30200073          	mret

000023fa <DMA_DeInit>:
    23fa:	411c                	lw	a5,0(a0)
    23fc:	6741                	lui	a4,0x10
    23fe:	1779                	addi	a4,a4,-2
    2400:	8ff9                	and	a5,a5,a4
    2402:	c11c                	sw	a5,0(a0)
    2404:	00052023          	sw	zero,0(a0)
    2408:	00052223          	sw	zero,4(a0)
    240c:	00052423          	sw	zero,8(a0)
    2410:	400207b7          	lui	a5,0x40020
    2414:	00052623          	sw	zero,12(a0)
    2418:	00878713          	addi	a4,a5,8 # 40020008 <_eusrstack+0x20018008>
    241c:	00e51763          	bne	a0,a4,242a <DMA_DeInit+0x30>
    2420:	43d8                	lw	a4,4(a5)
    2422:	00f76713          	ori	a4,a4,15
    2426:	c3d8                	sw	a4,4(a5)
    2428:	8082                	ret
    242a:	01c78713          	addi	a4,a5,28
    242e:	00e51663          	bne	a0,a4,243a <DMA_DeInit+0x40>
    2432:	43d8                	lw	a4,4(a5)
    2434:	0f076713          	ori	a4,a4,240
    2438:	b7fd                	j	2426 <DMA_DeInit+0x2c>
    243a:	03078713          	addi	a4,a5,48
    243e:	00e51863          	bne	a0,a4,244e <DMA_DeInit+0x54>
    2442:	43d8                	lw	a4,4(a5)
    2444:	6685                	lui	a3,0x1
    2446:	f0068693          	addi	a3,a3,-256 # f00 <LCD_Init+0x188>
    244a:	8f55                	or	a4,a4,a3
    244c:	bfe9                	j	2426 <DMA_DeInit+0x2c>
    244e:	04478713          	addi	a4,a5,68
    2452:	00e51563          	bne	a0,a4,245c <DMA_DeInit+0x62>
    2456:	43d8                	lw	a4,4(a5)
    2458:	66bd                	lui	a3,0xf
    245a:	bfc5                	j	244a <DMA_DeInit+0x50>
    245c:	05878713          	addi	a4,a5,88
    2460:	00e51663          	bne	a0,a4,246c <DMA_DeInit+0x72>
    2464:	43d8                	lw	a4,4(a5)
    2466:	000f06b7          	lui	a3,0xf0
    246a:	b7c5                	j	244a <DMA_DeInit+0x50>
    246c:	06c78713          	addi	a4,a5,108
    2470:	00e51663          	bne	a0,a4,247c <DMA_DeInit+0x82>
    2474:	43d8                	lw	a4,4(a5)
    2476:	00f006b7          	lui	a3,0xf00
    247a:	bfc1                	j	244a <DMA_DeInit+0x50>
    247c:	08078713          	addi	a4,a5,128
    2480:	00e51663          	bne	a0,a4,248c <DMA_DeInit+0x92>
    2484:	43d8                	lw	a4,4(a5)
    2486:	0f0006b7          	lui	a3,0xf000
    248a:	b7c1                	j	244a <DMA_DeInit+0x50>
    248c:	40878713          	addi	a4,a5,1032
    2490:	00e51963          	bne	a0,a4,24a2 <DMA_DeInit+0xa8>
    2494:	4047a703          	lw	a4,1028(a5)
    2498:	00f76713          	ori	a4,a4,15
    249c:	40e7a223          	sw	a4,1028(a5)
    24a0:	8082                	ret
    24a2:	41c78713          	addi	a4,a5,1052
    24a6:	00e51763          	bne	a0,a4,24b4 <DMA_DeInit+0xba>
    24aa:	4047a703          	lw	a4,1028(a5)
    24ae:	0f076713          	ori	a4,a4,240
    24b2:	b7ed                	j	249c <DMA_DeInit+0xa2>
    24b4:	43078793          	addi	a5,a5,1072
    24b8:	00f51b63          	bne	a0,a5,24ce <DMA_DeInit+0xd4>
    24bc:	400207b7          	lui	a5,0x40020
    24c0:	4047a703          	lw	a4,1028(a5) # 40020404 <_eusrstack+0x20018404>
    24c4:	6685                	lui	a3,0x1
    24c6:	f0068693          	addi	a3,a3,-256 # f00 <LCD_Init+0x188>
    24ca:	8f55                	or	a4,a4,a3
    24cc:	bfc1                	j	249c <DMA_DeInit+0xa2>
    24ce:	400207b7          	lui	a5,0x40020
    24d2:	44478713          	addi	a4,a5,1092 # 40020444 <_eusrstack+0x20018444>
    24d6:	00e51663          	bne	a0,a4,24e2 <DMA_DeInit+0xe8>
    24da:	4047a703          	lw	a4,1028(a5)
    24de:	66bd                	lui	a3,0xf
    24e0:	b7ed                	j	24ca <DMA_DeInit+0xd0>
    24e2:	45878713          	addi	a4,a5,1112
    24e6:	00e51763          	bne	a0,a4,24f4 <DMA_DeInit+0xfa>
    24ea:	4047a703          	lw	a4,1028(a5)
    24ee:	000f06b7          	lui	a3,0xf0
    24f2:	bfe1                	j	24ca <DMA_DeInit+0xd0>
    24f4:	46c78713          	addi	a4,a5,1132
    24f8:	00e51763          	bne	a0,a4,2506 <DMA_DeInit+0x10c>
    24fc:	4047a703          	lw	a4,1028(a5)
    2500:	00f006b7          	lui	a3,0xf00
    2504:	b7d9                	j	24ca <DMA_DeInit+0xd0>
    2506:	48078713          	addi	a4,a5,1152
    250a:	00e51763          	bne	a0,a4,2518 <DMA_DeInit+0x11e>
    250e:	4047a703          	lw	a4,1028(a5)
    2512:	0f0006b7          	lui	a3,0xf000
    2516:	bf55                	j	24ca <DMA_DeInit+0xd0>
    2518:	49078713          	addi	a4,a5,1168
    251c:	00e51963          	bne	a0,a4,252e <DMA_DeInit+0x134>
    2520:	4d47a703          	lw	a4,1236(a5)
    2524:	00f76713          	ori	a4,a4,15
    2528:	4ce7aa23          	sw	a4,1236(a5)
    252c:	8082                	ret
    252e:	4a078713          	addi	a4,a5,1184
    2532:	00e51763          	bne	a0,a4,2540 <DMA_DeInit+0x146>
    2536:	4d47a703          	lw	a4,1236(a5)
    253a:	0f076713          	ori	a4,a4,240
    253e:	b7ed                	j	2528 <DMA_DeInit+0x12e>
    2540:	4b078713          	addi	a4,a5,1200
    2544:	00e51963          	bne	a0,a4,2556 <DMA_DeInit+0x15c>
    2548:	4d47a703          	lw	a4,1236(a5)
    254c:	6685                	lui	a3,0x1
    254e:	f0068693          	addi	a3,a3,-256 # f00 <LCD_Init+0x188>
    2552:	8f55                	or	a4,a4,a3
    2554:	bfd1                	j	2528 <DMA_DeInit+0x12e>
    2556:	4c078713          	addi	a4,a5,1216
    255a:	fce519e3          	bne	a0,a4,252c <DMA_DeInit+0x132>
    255e:	4d47a703          	lw	a4,1236(a5)
    2562:	66bd                	lui	a3,0xf
    2564:	b7fd                	j	2552 <DMA_DeInit+0x158>

00002566 <DMA_Init>:
    2566:	411c                	lw	a5,0(a0)
    2568:	7761                	lui	a4,0xffff8
    256a:	073d                	addi	a4,a4,15
    256c:	5194                	lw	a3,32(a1)
    256e:	8f7d                	and	a4,a4,a5
    2570:	459c                	lw	a5,8(a1)
    2572:	8fd5                	or	a5,a5,a3
    2574:	4994                	lw	a3,16(a1)
    2576:	8fd5                	or	a5,a5,a3
    2578:	49d4                	lw	a3,20(a1)
    257a:	8fd5                	or	a5,a5,a3
    257c:	4d94                	lw	a3,24(a1)
    257e:	8fd5                	or	a5,a5,a3
    2580:	4dd4                	lw	a3,28(a1)
    2582:	8fd5                	or	a5,a5,a3
    2584:	51d4                	lw	a3,36(a1)
    2586:	8fd5                	or	a5,a5,a3
    2588:	5594                	lw	a3,40(a1)
    258a:	8fd5                	or	a5,a5,a3
    258c:	8fd9                	or	a5,a5,a4
    258e:	c11c                	sw	a5,0(a0)
    2590:	45dc                	lw	a5,12(a1)
    2592:	c15c                	sw	a5,4(a0)
    2594:	419c                	lw	a5,0(a1)
    2596:	c51c                	sw	a5,8(a0)
    2598:	41dc                	lw	a5,4(a1)
    259a:	c55c                	sw	a5,12(a0)
    259c:	8082                	ret

0000259e <DMA_Cmd>:
    259e:	411c                	lw	a5,0(a0)
    25a0:	c589                	beqz	a1,25aa <DMA_Cmd+0xc>
    25a2:	0017e793          	ori	a5,a5,1
    25a6:	c11c                	sw	a5,0(a0)
    25a8:	8082                	ret
    25aa:	6741                	lui	a4,0x10
    25ac:	1779                	addi	a4,a4,-2
    25ae:	8ff9                	and	a5,a5,a4
    25b0:	bfdd                	j	25a6 <DMA_Cmd+0x8>

000025b2 <DMA_SetCurrDataCounter>:
    25b2:	c14c                	sw	a1,4(a0)
    25b4:	8082                	ret

000025b6 <EXTI_Init>:
    25b6:	4158                	lw	a4,4(a0)
    25b8:	00052803          	lw	a6,0(a0)
    25bc:	454c                	lw	a1,12(a0)
    25be:	40010637          	lui	a2,0x40010
    25c2:	40060793          	addi	a5,a2,1024 # 40010400 <_eusrstack+0x20008400>
    25c6:	973e                	add	a4,a4,a5
    25c8:	fff84693          	not	a3,a6
    25cc:	c5b1                	beqz	a1,2618 <EXTI_Init+0x62>
    25ce:	40062583          	lw	a1,1024(a2)
    25d2:	8df5                	and	a1,a1,a3
    25d4:	40b62023          	sw	a1,1024(a2)
    25d8:	43d0                	lw	a2,4(a5)
    25da:	8ef1                	and	a3,a3,a2
    25dc:	c3d4                	sw	a3,4(a5)
    25de:	4314                	lw	a3,0(a4)
    25e0:	0106e6b3          	or	a3,a3,a6
    25e4:	c314                	sw	a3,0(a4)
    25e6:	4118                	lw	a4,0(a0)
    25e8:	4790                	lw	a2,8(a5)
    25ea:	fff74693          	not	a3,a4
    25ee:	8e75                	and	a2,a2,a3
    25f0:	c790                	sw	a2,8(a5)
    25f2:	47d0                	lw	a2,12(a5)
    25f4:	8ef1                	and	a3,a3,a2
    25f6:	c7d4                	sw	a3,12(a5)
    25f8:	4514                	lw	a3,8(a0)
    25fa:	4641                	li	a2,16
    25fc:	00c69963          	bne	a3,a2,260e <EXTI_Init+0x58>
    2600:	4794                	lw	a3,8(a5)
    2602:	8ed9                	or	a3,a3,a4
    2604:	c794                	sw	a3,8(a5)
    2606:	47d4                	lw	a3,12(a5)
    2608:	8f55                	or	a4,a4,a3
    260a:	c7d8                	sw	a4,12(a5)
    260c:	8082                	ret
    260e:	97b6                	add	a5,a5,a3
    2610:	4394                	lw	a3,0(a5)
    2612:	8f55                	or	a4,a4,a3
    2614:	c398                	sw	a4,0(a5)
    2616:	8082                	ret
    2618:	431c                	lw	a5,0(a4)
    261a:	8ff5                	and	a5,a5,a3
    261c:	c31c                	sw	a5,0(a4)
    261e:	8082                	ret

00002620 <EXTI_ClearFlag>:
    2620:	400107b7          	lui	a5,0x40010
    2624:	40a7aa23          	sw	a0,1044(a5) # 40010414 <_eusrstack+0x20008414>
    2628:	8082                	ret

0000262a <FSMC_NORSRAMInit>:
    262a:	4514                	lw	a3,8(a0)
    262c:	415c                	lw	a5,4(a0)
    262e:	4558                	lw	a4,12(a0)
    2630:	02c52803          	lw	a6,44(a0)
    2634:	8fd5                	or	a5,a5,a3
    2636:	8fd9                	or	a5,a5,a4
    2638:	4918                	lw	a4,16(a0)
    263a:	a0000637          	lui	a2,0xa0000
    263e:	8fd9                	or	a5,a5,a4
    2640:	4958                	lw	a4,20(a0)
    2642:	8fd9                	or	a5,a5,a4
    2644:	4d18                	lw	a4,24(a0)
    2646:	8fd9                	or	a5,a5,a4
    2648:	4d58                	lw	a4,28(a0)
    264a:	8fd9                	or	a5,a5,a4
    264c:	5118                	lw	a4,32(a0)
    264e:	8fd9                	or	a5,a5,a4
    2650:	5158                	lw	a4,36(a0)
    2652:	8fd9                	or	a5,a5,a4
    2654:	5518                	lw	a4,40(a0)
    2656:	8fd9                	or	a5,a5,a4
    2658:	5918                	lw	a4,48(a0)
    265a:	0107e7b3          	or	a5,a5,a6
    265e:	8fd9                	or	a5,a5,a4
    2660:	4118                	lw	a4,0(a0)
    2662:	070a                	slli	a4,a4,0x2
    2664:	963a                	add	a2,a2,a4
    2666:	c21c                	sw	a5,0(a2)
    2668:	47a1                	li	a5,8
    266a:	00f69663          	bne	a3,a5,2676 <FSMC_NORSRAMInit+0x4c>
    266e:	421c                	lw	a5,0(a2)
    2670:	0407e793          	ori	a5,a5,64
    2674:	c21c                	sw	a5,0(a2)
    2676:	5954                	lw	a3,52(a0)
    2678:	4e8c                	lw	a1,24(a3)
    267a:	429c                	lw	a5,0(a3)
    267c:	8fcd                	or	a5,a5,a1
    267e:	42cc                	lw	a1,4(a3)
    2680:	0592                	slli	a1,a1,0x4
    2682:	8fcd                	or	a5,a5,a1
    2684:	468c                	lw	a1,8(a3)
    2686:	05a2                	slli	a1,a1,0x8
    2688:	8fcd                	or	a5,a5,a1
    268a:	46cc                	lw	a1,12(a3)
    268c:	05c2                	slli	a1,a1,0x10
    268e:	8fcd                	or	a5,a5,a1
    2690:	4a8c                	lw	a1,16(a3)
    2692:	4ad4                	lw	a3,20(a3)
    2694:	05d2                	slli	a1,a1,0x14
    2696:	8fcd                	or	a5,a5,a1
    2698:	06e2                	slli	a3,a3,0x18
    269a:	8fd5                	or	a5,a5,a3
    269c:	c25c                	sw	a5,4(a2)
    269e:	6791                	lui	a5,0x4
    26a0:	02f81963          	bne	a6,a5,26d2 <FSMC_NORSRAMInit+0xa8>
    26a4:	5d14                	lw	a3,56(a0)
    26a6:	4e90                	lw	a2,24(a3)
    26a8:	429c                	lw	a5,0(a3)
    26aa:	8fd1                	or	a5,a5,a2
    26ac:	42d0                	lw	a2,4(a3)
    26ae:	0612                	slli	a2,a2,0x4
    26b0:	8fd1                	or	a5,a5,a2
    26b2:	4690                	lw	a2,8(a3)
    26b4:	0622                	slli	a2,a2,0x8
    26b6:	8fd1                	or	a5,a5,a2
    26b8:	4a90                	lw	a2,16(a3)
    26ba:	4ad4                	lw	a3,20(a3)
    26bc:	0652                	slli	a2,a2,0x14
    26be:	06e2                	slli	a3,a3,0x18
    26c0:	8fd1                	or	a5,a5,a2
    26c2:	8fd5                	or	a5,a5,a3
    26c4:	a00006b7          	lui	a3,0xa0000
    26c8:	10468693          	addi	a3,a3,260 # a0000104 <_eusrstack+0x7fff8104>
    26cc:	9736                	add	a4,a4,a3
    26ce:	c31c                	sw	a5,0(a4)
    26d0:	8082                	ret
    26d2:	a00007b7          	lui	a5,0xa0000
    26d6:	10478793          	addi	a5,a5,260 # a0000104 <_eusrstack+0x7fff8104>
    26da:	973e                	add	a4,a4,a5
    26dc:	100007b7          	lui	a5,0x10000
    26e0:	17fd                	addi	a5,a5,-1
    26e2:	b7f5                	j	26ce <FSMC_NORSRAMInit+0xa4>

000026e4 <FSMC_NORSRAMCmd>:
    26e4:	a00007b7          	lui	a5,0xa0000
    26e8:	050a                	slli	a0,a0,0x2
    26ea:	953e                	add	a0,a0,a5
    26ec:	411c                	lw	a5,0(a0)
    26ee:	c589                	beqz	a1,26f8 <FSMC_NORSRAMCmd+0x14>
    26f0:	0017e793          	ori	a5,a5,1
    26f4:	c11c                	sw	a5,0(a0)
    26f6:	8082                	ret
    26f8:	00100737          	lui	a4,0x100
    26fc:	1779                	addi	a4,a4,-2
    26fe:	8ff9                	and	a5,a5,a4
    2700:	bfd5                	j	26f4 <FSMC_NORSRAMCmd+0x10>

00002702 <GPIO_Init>:
    2702:	459c                	lw	a5,8(a1)
    2704:	0107f713          	andi	a4,a5,16
    2708:	00f7f813          	andi	a6,a5,15
    270c:	c701                	beqz	a4,2714 <GPIO_Init+0x12>
    270e:	41d8                	lw	a4,4(a1)
    2710:	00e86833          	or	a6,a6,a4
    2714:	0005d583          	lhu	a1,0(a1)
    2718:	0ff5f713          	andi	a4,a1,255
    271c:	c339                	beqz	a4,2762 <GPIO_Init+0x60>
    271e:	4118                	lw	a4,0(a0)
    2720:	4681                	li	a3,0
    2722:	4e85                	li	t4,1
    2724:	4f3d                	li	t5,15
    2726:	02800f93          	li	t6,40
    272a:	04800293          	li	t0,72
    272e:	4e21                	li	t3,8
    2730:	00de9633          	sll	a2,t4,a3
    2734:	00c5f8b3          	and	a7,a1,a2
    2738:	03161163          	bne	a2,a7,275a <GPIO_Init+0x58>
    273c:	00269893          	slli	a7,a3,0x2
    2740:	011f1333          	sll	t1,t5,a7
    2744:	fff34313          	not	t1,t1
    2748:	00e37733          	and	a4,t1,a4
    274c:	011818b3          	sll	a7,a6,a7
    2750:	00e8e733          	or	a4,a7,a4
    2754:	05f79f63          	bne	a5,t6,27b2 <GPIO_Init+0xb0>
    2758:	c950                	sw	a2,20(a0)
    275a:	0685                	addi	a3,a3,1
    275c:	fdc69ae3          	bne	a3,t3,2730 <GPIO_Init+0x2e>
    2760:	c118                	sw	a4,0(a0)
    2762:	0ff00713          	li	a4,255
    2766:	04b77563          	bgeu	a4,a1,27b0 <GPIO_Init+0xae>
    276a:	4154                	lw	a3,4(a0)
    276c:	4621                	li	a2,8
    276e:	4e85                	li	t4,1
    2770:	4f3d                	li	t5,15
    2772:	02800f93          	li	t6,40
    2776:	04800293          	li	t0,72
    277a:	4e41                	li	t3,16
    277c:	00ce98b3          	sll	a7,t4,a2
    2780:	0115f733          	and	a4,a1,a7
    2784:	02e89263          	bne	a7,a4,27a8 <GPIO_Init+0xa6>
    2788:	00261713          	slli	a4,a2,0x2
    278c:	1701                	addi	a4,a4,-32
    278e:	00ef1333          	sll	t1,t5,a4
    2792:	fff34313          	not	t1,t1
    2796:	00d376b3          	and	a3,t1,a3
    279a:	00e81733          	sll	a4,a6,a4
    279e:	8ed9                	or	a3,a3,a4
    27a0:	01f79d63          	bne	a5,t6,27ba <GPIO_Init+0xb8>
    27a4:	01152a23          	sw	a7,20(a0)
    27a8:	0605                	addi	a2,a2,1
    27aa:	fdc619e3          	bne	a2,t3,277c <GPIO_Init+0x7a>
    27ae:	c154                	sw	a3,4(a0)
    27b0:	8082                	ret
    27b2:	fa5794e3          	bne	a5,t0,275a <GPIO_Init+0x58>
    27b6:	c910                	sw	a2,16(a0)
    27b8:	b74d                	j	275a <GPIO_Init+0x58>
    27ba:	fe5797e3          	bne	a5,t0,27a8 <GPIO_Init+0xa6>
    27be:	01152823          	sw	a7,16(a0)
    27c2:	b7dd                	j	27a8 <GPIO_Init+0xa6>

000027c4 <GPIO_ResetBits>:
    27c4:	c94c                	sw	a1,20(a0)
    27c6:	8082                	ret

000027c8 <GPIO_EXTILineConfig>:
    27c8:	0fc5f713          	andi	a4,a1,252
    27cc:	0035f793          	andi	a5,a1,3
    27d0:	400105b7          	lui	a1,0x40010
    27d4:	95ba                	add	a1,a1,a4
    27d6:	4594                	lw	a3,8(a1)
    27d8:	078a                	slli	a5,a5,0x2
    27da:	473d                	li	a4,15
    27dc:	00f71733          	sll	a4,a4,a5
    27e0:	fff74713          	not	a4,a4
    27e4:	8f75                	and	a4,a4,a3
    27e6:	c598                	sw	a4,8(a1)
    27e8:	4598                	lw	a4,8(a1)
    27ea:	00f51533          	sll	a0,a0,a5
    27ee:	8d59                	or	a0,a0,a4
    27f0:	c588                	sw	a0,8(a1)
    27f2:	8082                	ret

000027f4 <I2C_Init>:
    27f4:	7139                	addi	sp,sp,-64
    27f6:	dc22                	sw	s0,56(sp)
    27f8:	da26                	sw	s1,52(sp)
    27fa:	842a                	mv	s0,a0
    27fc:	00455483          	lhu	s1,4(a0)
    2800:	0868                	addi	a0,sp,28
    2802:	c62e                	sw	a1,12(sp)
    2804:	de06                	sw	ra,60(sp)
    2806:	2475                	jal	2ab2 <RCC_GetClocksFreq>
    2808:	5792                	lw	a5,36(sp)
    280a:	000f4737          	lui	a4,0xf4
    280e:	24070713          	addi	a4,a4,576 # f4240 <_data_lma+0xeaf50>
    2812:	02e7d733          	divu	a4,a5,a4
    2816:	04c2                	slli	s1,s1,0x10
    2818:	80c1                	srli	s1,s1,0x10
    281a:	fc04f493          	andi	s1,s1,-64
    281e:	04c2                	slli	s1,s1,0x10
    2820:	80c1                	srli	s1,s1,0x10
    2822:	45b2                	lw	a1,12(sp)
    2824:	6561                	lui	a0,0x18
    2826:	6a050513          	addi	a0,a0,1696 # 186a0 <_data_lma+0xf3b0>
    282a:	01071613          	slli	a2,a4,0x10
    282e:	8241                	srli	a2,a2,0x10
    2830:	8cd1                	or	s1,s1,a2
    2832:	00941223          	sh	s1,4(s0)
    2836:	00045683          	lhu	a3,0(s0)
    283a:	06c2                	slli	a3,a3,0x10
    283c:	82c1                	srli	a3,a3,0x10
    283e:	9af9                	andi	a3,a3,-2
    2840:	06c2                	slli	a3,a3,0x10
    2842:	82c1                	srli	a3,a3,0x10
    2844:	00d41023          	sh	a3,0(s0)
    2848:	4194                	lw	a3,0(a1)
    284a:	06d56663          	bltu	a0,a3,28b6 <I2C_Init+0xc2>
    284e:	0686                	slli	a3,a3,0x1
    2850:	02d7d7b3          	divu	a5,a5,a3
    2854:	4691                	li	a3,4
    2856:	01079713          	slli	a4,a5,0x10
    285a:	8341                	srli	a4,a4,0x10
    285c:	87ba                	mv	a5,a4
    285e:	00d77363          	bgeu	a4,a3,2864 <I2C_Init+0x70>
    2862:	4791                	li	a5,4
    2864:	0605                	addi	a2,a2,1
    2866:	0642                	slli	a2,a2,0x10
    2868:	07c2                	slli	a5,a5,0x10
    286a:	8241                	srli	a2,a2,0x10
    286c:	83c1                	srli	a5,a5,0x10
    286e:	02c41023          	sh	a2,32(s0)
    2872:	00f41e23          	sh	a5,28(s0)
    2876:	00045783          	lhu	a5,0(s0)
    287a:	0045d703          	lhu	a4,4(a1) # 40010004 <_eusrstack+0x20008004>
    287e:	00a5d683          	lhu	a3,10(a1)
    2882:	0017e793          	ori	a5,a5,1
    2886:	00f41023          	sh	a5,0(s0)
    288a:	00045783          	lhu	a5,0(s0)
    288e:	8f55                	or	a4,a4,a3
    2890:	50f2                	lw	ra,60(sp)
    2892:	07c2                	slli	a5,a5,0x10
    2894:	83c1                	srli	a5,a5,0x10
    2896:	bf57f793          	andi	a5,a5,-1035
    289a:	8fd9                	or	a5,a5,a4
    289c:	00f41023          	sh	a5,0(s0)
    28a0:	0085d703          	lhu	a4,8(a1)
    28a4:	00c5d783          	lhu	a5,12(a1)
    28a8:	54d2                	lw	s1,52(sp)
    28aa:	8fd9                	or	a5,a5,a4
    28ac:	00f41423          	sh	a5,8(s0)
    28b0:	5462                	lw	s0,56(sp)
    28b2:	6121                	addi	sp,sp,64
    28b4:	8082                	ret
    28b6:	0065d503          	lhu	a0,6(a1)
    28ba:	6631                	lui	a2,0xc
    28bc:	167d                	addi	a2,a2,-1
    28be:	02c51e63          	bne	a0,a2,28fa <I2C_Init+0x106>
    28c2:	460d                	li	a2,3
    28c4:	02c686b3          	mul	a3,a3,a2
    28c8:	02d7d7b3          	divu	a5,a5,a3
    28cc:	07c2                	slli	a5,a5,0x10
    28ce:	83c1                	srli	a5,a5,0x10
    28d0:	01479693          	slli	a3,a5,0x14
    28d4:	e299                	bnez	a3,28da <I2C_Init+0xe6>
    28d6:	0017e793          	ori	a5,a5,1
    28da:	66a1                	lui	a3,0x8
    28dc:	8fd5                	or	a5,a5,a3
    28de:	12c00693          	li	a3,300
    28e2:	02d70733          	mul	a4,a4,a3
    28e6:	3e800693          	li	a3,1000
    28ea:	02d74733          	div	a4,a4,a3
    28ee:	0705                	addi	a4,a4,1
    28f0:	0742                	slli	a4,a4,0x10
    28f2:	8341                	srli	a4,a4,0x10
    28f4:	02e41023          	sh	a4,32(s0)
    28f8:	bfad                	j	2872 <I2C_Init+0x7e>
    28fa:	4665                	li	a2,25
    28fc:	02c686b3          	mul	a3,a3,a2
    2900:	02d7d7b3          	divu	a5,a5,a3
    2904:	6691                	lui	a3,0x4
    2906:	07c2                	slli	a5,a5,0x10
    2908:	83c1                	srli	a5,a5,0x10
    290a:	8fd5                	or	a5,a5,a3
    290c:	b7d1                	j	28d0 <I2C_Init+0xdc>

0000290e <I2C_Cmd>:
    290e:	00055783          	lhu	a5,0(a0)
    2912:	c591                	beqz	a1,291e <I2C_Cmd+0x10>
    2914:	0017e793          	ori	a5,a5,1
    2918:	00f51023          	sh	a5,0(a0)
    291c:	8082                	ret
    291e:	07c2                	slli	a5,a5,0x10
    2920:	83c1                	srli	a5,a5,0x10
    2922:	9bf9                	andi	a5,a5,-2
    2924:	07c2                	slli	a5,a5,0x10
    2926:	83c1                	srli	a5,a5,0x10
    2928:	bfc5                	j	2918 <I2C_Cmd+0xa>

0000292a <I2C_GenerateSTART>:
    292a:	00055783          	lhu	a5,0(a0)
    292e:	c591                	beqz	a1,293a <I2C_GenerateSTART+0x10>
    2930:	1007e793          	ori	a5,a5,256
    2934:	00f51023          	sh	a5,0(a0)
    2938:	8082                	ret
    293a:	07c2                	slli	a5,a5,0x10
    293c:	83c1                	srli	a5,a5,0x10
    293e:	eff7f793          	andi	a5,a5,-257
    2942:	07c2                	slli	a5,a5,0x10
    2944:	83c1                	srli	a5,a5,0x10
    2946:	b7fd                	j	2934 <I2C_GenerateSTART+0xa>

00002948 <I2C_GenerateSTOP>:
    2948:	00055783          	lhu	a5,0(a0)
    294c:	c591                	beqz	a1,2958 <I2C_GenerateSTOP+0x10>
    294e:	2007e793          	ori	a5,a5,512
    2952:	00f51023          	sh	a5,0(a0)
    2956:	8082                	ret
    2958:	07c2                	slli	a5,a5,0x10
    295a:	83c1                	srli	a5,a5,0x10
    295c:	dff7f793          	andi	a5,a5,-513
    2960:	07c2                	slli	a5,a5,0x10
    2962:	83c1                	srli	a5,a5,0x10
    2964:	b7fd                	j	2952 <I2C_GenerateSTOP+0xa>

00002966 <I2C_AcknowledgeConfig>:
    2966:	00055783          	lhu	a5,0(a0)
    296a:	c591                	beqz	a1,2976 <I2C_AcknowledgeConfig+0x10>
    296c:	4007e793          	ori	a5,a5,1024
    2970:	00f51023          	sh	a5,0(a0)
    2974:	8082                	ret
    2976:	07c2                	slli	a5,a5,0x10
    2978:	83c1                	srli	a5,a5,0x10
    297a:	bff7f793          	andi	a5,a5,-1025
    297e:	07c2                	slli	a5,a5,0x10
    2980:	83c1                	srli	a5,a5,0x10
    2982:	b7fd                	j	2970 <I2C_AcknowledgeConfig+0xa>

00002984 <I2C_SendData>:
    2984:	00b51823          	sh	a1,16(a0)
    2988:	8082                	ret

0000298a <I2C_ReceiveData>:
    298a:	01055503          	lhu	a0,16(a0)
    298e:	0ff57513          	andi	a0,a0,255
    2992:	8082                	ret

00002994 <I2C_Send7bitAddress>:
    2994:	0fe5f793          	andi	a5,a1,254
    2998:	c219                	beqz	a2,299e <I2C_Send7bitAddress+0xa>
    299a:	0015e793          	ori	a5,a1,1
    299e:	07c2                	slli	a5,a5,0x10
    29a0:	83c1                	srli	a5,a5,0x10
    29a2:	00f51823          	sh	a5,16(a0)
    29a6:	8082                	ret

000029a8 <I2C_CheckEvent>:
    29a8:	01455783          	lhu	a5,20(a0)
    29ac:	01855503          	lhu	a0,24(a0)
    29b0:	0542                	slli	a0,a0,0x10
    29b2:	8d5d                	or	a0,a0,a5
    29b4:	8d6d                	and	a0,a0,a1
    29b6:	0522                	slli	a0,a0,0x8
    29b8:	8121                	srli	a0,a0,0x8
    29ba:	8d0d                	sub	a0,a0,a1
    29bc:	00153513          	seqz	a0,a0
    29c0:	8082                	ret

000029c2 <I2C_GetFlagStatus>:
    29c2:	1141                	addi	sp,sp,-16
    29c4:	c402                	sw	zero,8(sp)
    29c6:	c602                	sw	zero,12(sp)
    29c8:	01c5d793          	srli	a5,a1,0x1c
    29cc:	c62a                	sw	a0,12(sp)
    29ce:	c43e                	sw	a5,8(sp)
    29d0:	47a2                	lw	a5,8(sp)
    29d2:	05a2                	slli	a1,a1,0x8
    29d4:	81a1                	srli	a1,a1,0x8
    29d6:	cb99                	beqz	a5,29ec <I2C_GetFlagStatus+0x2a>
    29d8:	47b2                	lw	a5,12(sp)
    29da:	07d1                	addi	a5,a5,20
    29dc:	c63e                	sw	a5,12(sp)
    29de:	47b2                	lw	a5,12(sp)
    29e0:	4388                	lw	a0,0(a5)
    29e2:	0141                	addi	sp,sp,16
    29e4:	8d6d                	and	a0,a0,a1
    29e6:	00a03533          	snez	a0,a0
    29ea:	8082                	ret
    29ec:	47b2                	lw	a5,12(sp)
    29ee:	81c1                	srli	a1,a1,0x10
    29f0:	07e1                	addi	a5,a5,24
    29f2:	b7ed                	j	29dc <I2C_GetFlagStatus+0x1a>

000029f4 <NVIC_PriorityGroupConfig>:
    29f4:	84a1a023          	sw	a0,-1984(gp) # 200000b0 <NVIC_Priority_Group>
    29f8:	8082                	ret

000029fa <NVIC_Init>:
    29fa:	84018793          	addi	a5,gp,-1984 # 200000b0 <NVIC_Priority_Group>
    29fe:	4394                	lw	a3,0(a5)
    2a00:	00054703          	lbu	a4,0(a0)
    2a04:	e689                	bnez	a3,2a0e <NVIC_Init+0x14>
    2a06:	00254783          	lbu	a5,2(a0)
    2a0a:	0792                	slli	a5,a5,0x4
    2a0c:	a831                	j	2a28 <NVIC_Init+0x2e>
    2a0e:	4394                	lw	a3,0(a5)
    2a10:	4605                	li	a2,1
    2a12:	04c69163          	bne	a3,a2,2a54 <NVIC_Init+0x5a>
    2a16:	00254783          	lbu	a5,2(a0)
    2a1a:	00154603          	lbu	a2,1(a0)
    2a1e:	0792                	slli	a5,a5,0x4
    2a20:	00d61463          	bne	a2,a3,2a28 <NVIC_Init+0x2e>
    2a24:	f807e793          	ori	a5,a5,-128
    2a28:	e000e6b7          	lui	a3,0xe000e
    2a2c:	0ff7f793          	andi	a5,a5,255
    2a30:	96ba                	add	a3,a3,a4
    2a32:	40f68023          	sb	a5,1024(a3) # e000e400 <_eusrstack+0xc0006400>
    2a36:	4685                	li	a3,1
    2a38:	00575793          	srli	a5,a4,0x5
    2a3c:	00e69733          	sll	a4,a3,a4
    2a40:	4154                	lw	a3,4(a0)
    2a42:	c6ad                	beqz	a3,2aac <NVIC_Init+0xb2>
    2a44:	04078793          	addi	a5,a5,64 # a0000040 <_eusrstack+0x7fff8040>
    2a48:	078a                	slli	a5,a5,0x2
    2a4a:	e000e6b7          	lui	a3,0xe000e
    2a4e:	97b6                	add	a5,a5,a3
    2a50:	c398                	sw	a4,0(a5)
    2a52:	8082                	ret
    2a54:	438c                	lw	a1,0(a5)
    2a56:	4689                	li	a3,2
    2a58:	02d59363          	bne	a1,a3,2a7e <NVIC_Init+0x84>
    2a5c:	00154683          	lbu	a3,1(a0)
    2a60:	00254783          	lbu	a5,2(a0)
    2a64:	00d66563          	bltu	a2,a3,2a6e <NVIC_Init+0x74>
    2a68:	068a                	slli	a3,a3,0x2
    2a6a:	97b6                	add	a5,a5,a3
    2a6c:	bf79                	j	2a0a <NVIC_Init+0x10>
    2a6e:	03e68693          	addi	a3,a3,62 # e000e03e <_eusrstack+0xc000603e>
    2a72:	068a                	slli	a3,a3,0x2
    2a74:	97b6                	add	a5,a5,a3
    2a76:	0ff7f793          	andi	a5,a5,255
    2a7a:	0792                	slli	a5,a5,0x4
    2a7c:	b765                	j	2a24 <NVIC_Init+0x2a>
    2a7e:	4390                	lw	a2,0(a5)
    2a80:	468d                	li	a3,3
    2a82:	00d61e63          	bne	a2,a3,2a9e <NVIC_Init+0xa4>
    2a86:	00154683          	lbu	a3,1(a0)
    2a8a:	00254783          	lbu	a5,2(a0)
    2a8e:	00d66463          	bltu	a2,a3,2a96 <NVIC_Init+0x9c>
    2a92:	0686                	slli	a3,a3,0x1
    2a94:	bfd9                	j	2a6a <NVIC_Init+0x70>
    2a96:	07c68693          	addi	a3,a3,124
    2a9a:	0686                	slli	a3,a3,0x1
    2a9c:	bfe1                	j	2a74 <NVIC_Init+0x7a>
    2a9e:	4394                	lw	a3,0(a5)
    2aa0:	4791                	li	a5,4
    2aa2:	f8f69ae3          	bne	a3,a5,2a36 <NVIC_Init+0x3c>
    2aa6:	00154783          	lbu	a5,1(a0)
    2aaa:	b785                	j	2a0a <NVIC_Init+0x10>
    2aac:	06078793          	addi	a5,a5,96
    2ab0:	bf61                	j	2a48 <NVIC_Init+0x4e>

00002ab2 <RCC_GetClocksFreq>:
    2ab2:	40021737          	lui	a4,0x40021
    2ab6:	435c                	lw	a5,4(a4)
    2ab8:	4691                	li	a3,4
    2aba:	8bb1                	andi	a5,a5,12
    2abc:	00d78563          	beq	a5,a3,2ac6 <RCC_GetClocksFreq+0x14>
    2ac0:	46a1                	li	a3,8
    2ac2:	06d78663          	beq	a5,a3,2b2e <RCC_GetClocksFreq+0x7c>
    2ac6:	007a17b7          	lui	a5,0x7a1
    2aca:	20078793          	addi	a5,a5,512 # 7a1200 <_data_lma+0x797f10>
    2ace:	c11c                	sw	a5,0(a0)
    2ad0:	40021637          	lui	a2,0x40021
    2ad4:	425c                	lw	a5,4(a2)
    2ad6:	20000737          	lui	a4,0x20000
    2ada:	00070713          	mv	a4,a4
    2ade:	8391                	srli	a5,a5,0x4
    2ae0:	8bbd                	andi	a5,a5,15
    2ae2:	97ba                	add	a5,a5,a4
    2ae4:	0007c683          	lbu	a3,0(a5)
    2ae8:	411c                	lw	a5,0(a0)
    2aea:	00d7d7b3          	srl	a5,a5,a3
    2aee:	c15c                	sw	a5,4(a0)
    2af0:	4254                	lw	a3,4(a2)
    2af2:	82a1                	srli	a3,a3,0x8
    2af4:	8a9d                	andi	a3,a3,7
    2af6:	96ba                	add	a3,a3,a4
    2af8:	0006c683          	lbu	a3,0(a3)
    2afc:	00d7d6b3          	srl	a3,a5,a3
    2b00:	c514                	sw	a3,8(a0)
    2b02:	4254                	lw	a3,4(a2)
    2b04:	82ad                	srli	a3,a3,0xb
    2b06:	8a9d                	andi	a3,a3,7
    2b08:	9736                	add	a4,a4,a3
    2b0a:	00074703          	lbu	a4,0(a4) # 20000000 <_data_vma>
    2b0e:	00e7d7b3          	srl	a5,a5,a4
    2b12:	c55c                	sw	a5,12(a0)
    2b14:	4258                	lw	a4,4(a2)
    2b16:	8339                	srli	a4,a4,0xe
    2b18:	00377693          	andi	a3,a4,3
    2b1c:	81818713          	addi	a4,gp,-2024 # 20000088 <ADCPrescTable>
    2b20:	9736                	add	a4,a4,a3
    2b22:	00074703          	lbu	a4,0(a4)
    2b26:	02e7d7b3          	divu	a5,a5,a4
    2b2a:	c91c                	sw	a5,16(a0)
    2b2c:	8082                	ret
    2b2e:	435c                	lw	a5,4(a4)
    2b30:	4354                	lw	a3,4(a4)
    2b32:	6741                	lui	a4,0x10
    2b34:	83c9                	srli	a5,a5,0x12
    2b36:	8ef9                	and	a3,a3,a4
    2b38:	1ffff737          	lui	a4,0x1ffff
    2b3c:	70c72703          	lw	a4,1804(a4) # 1ffff70c <_data_lma+0x1fff641c>
    2b40:	8bbd                	andi	a5,a5,15
    2b42:	0789                	addi	a5,a5,2
    2b44:	01171613          	slli	a2,a4,0x11
    2b48:	00064863          	bltz	a2,2b58 <RCC_GetClocksFreq+0xa6>
    2b4c:	4645                	li	a2,17
    2b4e:	4701                	li	a4,0
    2b50:	02c79263          	bne	a5,a2,2b74 <RCC_GetClocksFreq+0xc2>
    2b54:	47c9                	li	a5,18
    2b56:	a839                	j	2b74 <RCC_GetClocksFreq+0xc2>
    2b58:	4709                	li	a4,2
    2b5a:	02e78963          	beq	a5,a4,2b8c <RCC_GetClocksFreq+0xda>
    2b5e:	473d                	li	a4,15
    2b60:	02e78863          	beq	a5,a4,2b90 <RCC_GetClocksFreq+0xde>
    2b64:	4741                	li	a4,16
    2b66:	02e78863          	beq	a5,a4,2b96 <RCC_GetClocksFreq+0xe4>
    2b6a:	4645                	li	a2,17
    2b6c:	4701                	li	a4,0
    2b6e:	00c79363          	bne	a5,a2,2b74 <RCC_GetClocksFreq+0xc2>
    2b72:	47c1                	li	a5,16
    2b74:	e685                	bnez	a3,2b9c <RCC_GetClocksFreq+0xea>
    2b76:	400246b7          	lui	a3,0x40024
    2b7a:	8006a683          	lw	a3,-2048(a3) # 40023800 <_eusrstack+0x2001b800>
    2b7e:	8ac1                	andi	a3,a3,16
    2b80:	c68d                	beqz	a3,2baa <RCC_GetClocksFreq+0xf8>
    2b82:	007a16b7          	lui	a3,0x7a1
    2b86:	20068693          	addi	a3,a3,512 # 7a1200 <_data_lma+0x797f10>
    2b8a:	a025                	j	2bb2 <RCC_GetClocksFreq+0x100>
    2b8c:	4701                	li	a4,0
    2b8e:	b7d9                	j	2b54 <RCC_GetClocksFreq+0xa2>
    2b90:	4705                	li	a4,1
    2b92:	47b5                	li	a5,13
    2b94:	b7c5                	j	2b74 <RCC_GetClocksFreq+0xc2>
    2b96:	4701                	li	a4,0
    2b98:	47bd                	li	a5,15
    2b9a:	bfe9                	j	2b74 <RCC_GetClocksFreq+0xc2>
    2b9c:	400216b7          	lui	a3,0x40021
    2ba0:	42d4                	lw	a3,4(a3)
    2ba2:	00e69613          	slli	a2,a3,0xe
    2ba6:	fc065ee3          	bgez	a2,2b82 <RCC_GetClocksFreq+0xd0>
    2baa:	003d16b7          	lui	a3,0x3d1
    2bae:	90068693          	addi	a3,a3,-1792 # 3d0900 <_data_lma+0x3c7610>
    2bb2:	02d787b3          	mul	a5,a5,a3
    2bb6:	c11c                	sw	a5,0(a0)
    2bb8:	df01                	beqz	a4,2ad0 <RCC_GetClocksFreq+0x1e>
    2bba:	411c                	lw	a5,0(a0)
    2bbc:	8385                	srli	a5,a5,0x1
    2bbe:	bf01                	j	2ace <RCC_GetClocksFreq+0x1c>

00002bc0 <RCC_AHBPeriphClockCmd>:
    2bc0:	c599                	beqz	a1,2bce <RCC_AHBPeriphClockCmd+0xe>
    2bc2:	40021737          	lui	a4,0x40021
    2bc6:	4b5c                	lw	a5,20(a4)
    2bc8:	8d5d                	or	a0,a0,a5
    2bca:	cb48                	sw	a0,20(a4)
    2bcc:	8082                	ret
    2bce:	400217b7          	lui	a5,0x40021
    2bd2:	4bd8                	lw	a4,20(a5)
    2bd4:	fff54513          	not	a0,a0
    2bd8:	8d79                	and	a0,a0,a4
    2bda:	cbc8                	sw	a0,20(a5)
    2bdc:	8082                	ret

00002bde <RCC_APB2PeriphClockCmd>:
    2bde:	c599                	beqz	a1,2bec <RCC_APB2PeriphClockCmd+0xe>
    2be0:	40021737          	lui	a4,0x40021
    2be4:	4f1c                	lw	a5,24(a4)
    2be6:	8d5d                	or	a0,a0,a5
    2be8:	cf08                	sw	a0,24(a4)
    2bea:	8082                	ret
    2bec:	400217b7          	lui	a5,0x40021
    2bf0:	4f98                	lw	a4,24(a5)
    2bf2:	fff54513          	not	a0,a0
    2bf6:	8d79                	and	a0,a0,a4
    2bf8:	cf88                	sw	a0,24(a5)
    2bfa:	8082                	ret

00002bfc <RCC_APB1PeriphClockCmd>:
    2bfc:	c599                	beqz	a1,2c0a <RCC_APB1PeriphClockCmd+0xe>
    2bfe:	40021737          	lui	a4,0x40021
    2c02:	4f5c                	lw	a5,28(a4)
    2c04:	8d5d                	or	a0,a0,a5
    2c06:	cf48                	sw	a0,28(a4)
    2c08:	8082                	ret
    2c0a:	400217b7          	lui	a5,0x40021
    2c0e:	4fd8                	lw	a4,28(a5)
    2c10:	fff54513          	not	a0,a0
    2c14:	8d79                	and	a0,a0,a4
    2c16:	cfc8                	sw	a0,28(a5)
    2c18:	8082                	ret

00002c1a <TIM_TimeBaseInit>:
    2c1a:	00055783          	lhu	a5,0(a0)
    2c1e:	40013737          	lui	a4,0x40013
    2c22:	c0070693          	addi	a3,a4,-1024 # 40012c00 <_eusrstack+0x2000ac00>
    2c26:	07c2                	slli	a5,a5,0x10
    2c28:	83c1                	srli	a5,a5,0x10
    2c2a:	04d50063          	beq	a0,a3,2c6a <TIM_TimeBaseInit+0x50>
    2c2e:	400006b7          	lui	a3,0x40000
    2c32:	02d50c63          	beq	a0,a3,2c6a <TIM_TimeBaseInit+0x50>
    2c36:	40068693          	addi	a3,a3,1024 # 40000400 <_eusrstack+0x1fff8400>
    2c3a:	02d50863          	beq	a0,a3,2c6a <TIM_TimeBaseInit+0x50>
    2c3e:	400016b7          	lui	a3,0x40001
    2c42:	80068613          	addi	a2,a3,-2048 # 40000800 <_eusrstack+0x1fff8800>
    2c46:	02c50263          	beq	a0,a2,2c6a <TIM_TimeBaseInit+0x50>
    2c4a:	c0068693          	addi	a3,a3,-1024
    2c4e:	00d50e63          	beq	a0,a3,2c6a <TIM_TimeBaseInit+0x50>
    2c52:	40070713          	addi	a4,a4,1024
    2c56:	00e50a63          	beq	a0,a4,2c6a <TIM_TimeBaseInit+0x50>
    2c5a:	40015737          	lui	a4,0x40015
    2c5e:	c0070693          	addi	a3,a4,-1024 # 40014c00 <_eusrstack+0x2000cc00>
    2c62:	00d50463          	beq	a0,a3,2c6a <TIM_TimeBaseInit+0x50>
    2c66:	00e51763          	bne	a0,a4,2c74 <TIM_TimeBaseInit+0x5a>
    2c6a:	0025d703          	lhu	a4,2(a1)
    2c6e:	f8f7f793          	andi	a5,a5,-113
    2c72:	8fd9                	or	a5,a5,a4
    2c74:	40001737          	lui	a4,0x40001
    2c78:	00e50d63          	beq	a0,a4,2c92 <TIM_TimeBaseInit+0x78>
    2c7c:	40070713          	addi	a4,a4,1024 # 40001400 <_eusrstack+0x1fff9400>
    2c80:	00e50963          	beq	a0,a4,2c92 <TIM_TimeBaseInit+0x78>
    2c84:	cff7f793          	andi	a5,a5,-769
    2c88:	0065d703          	lhu	a4,6(a1)
    2c8c:	07c2                	slli	a5,a5,0x10
    2c8e:	83c1                	srli	a5,a5,0x10
    2c90:	8fd9                	or	a5,a5,a4
    2c92:	00f51023          	sh	a5,0(a0)
    2c96:	0045d783          	lhu	a5,4(a1)
    2c9a:	02f51623          	sh	a5,44(a0)
    2c9e:	0005d783          	lhu	a5,0(a1)
    2ca2:	02f51423          	sh	a5,40(a0)
    2ca6:	400137b7          	lui	a5,0x40013
    2caa:	c0078713          	addi	a4,a5,-1024 # 40012c00 <_eusrstack+0x2000ac00>
    2cae:	00e50e63          	beq	a0,a4,2cca <TIM_TimeBaseInit+0xb0>
    2cb2:	40078793          	addi	a5,a5,1024
    2cb6:	00f50a63          	beq	a0,a5,2cca <TIM_TimeBaseInit+0xb0>
    2cba:	400157b7          	lui	a5,0x40015
    2cbe:	c0078713          	addi	a4,a5,-1024 # 40014c00 <_eusrstack+0x2000cc00>
    2cc2:	00e50463          	beq	a0,a4,2cca <TIM_TimeBaseInit+0xb0>
    2cc6:	00f51663          	bne	a0,a5,2cd2 <TIM_TimeBaseInit+0xb8>
    2cca:	0085c783          	lbu	a5,8(a1)
    2cce:	02f51823          	sh	a5,48(a0)
    2cd2:	4785                	li	a5,1
    2cd4:	00f51a23          	sh	a5,20(a0)
    2cd8:	8082                	ret

00002cda <TIM_OC2Init>:
    2cda:	02055783          	lhu	a5,32(a0)
    2cde:	7765                	lui	a4,0xffff9
    2ce0:	cff70713          	addi	a4,a4,-769 # ffff8cff <_eusrstack+0xdfff0cff>
    2ce4:	07c2                	slli	a5,a5,0x10
    2ce6:	83c1                	srli	a5,a5,0x10
    2ce8:	9bbd                	andi	a5,a5,-17
    2cea:	07c2                	slli	a5,a5,0x10
    2cec:	83c1                	srli	a5,a5,0x10
    2cee:	02f51023          	sh	a5,32(a0)
    2cf2:	02055783          	lhu	a5,32(a0)
    2cf6:	00455683          	lhu	a3,4(a0)
    2cfa:	0085d803          	lhu	a6,8(a1)
    2cfe:	07c2                	slli	a5,a5,0x10
    2d00:	01069613          	slli	a2,a3,0x10
    2d04:	01855683          	lhu	a3,24(a0)
    2d08:	83c1                	srli	a5,a5,0x10
    2d0a:	fdf7f793          	andi	a5,a5,-33
    2d0e:	8f75                	and	a4,a4,a3
    2d10:	0005d683          	lhu	a3,0(a1)
    2d14:	8241                	srli	a2,a2,0x10
    2d16:	06a2                	slli	a3,a3,0x8
    2d18:	8f55                	or	a4,a4,a3
    2d1a:	0025d683          	lhu	a3,2(a1)
    2d1e:	0742                	slli	a4,a4,0x10
    2d20:	8341                	srli	a4,a4,0x10
    2d22:	0106e6b3          	or	a3,a3,a6
    2d26:	0692                	slli	a3,a3,0x4
    2d28:	8fd5                	or	a5,a5,a3
    2d2a:	400136b7          	lui	a3,0x40013
    2d2e:	07c2                	slli	a5,a5,0x10
    2d30:	c0068813          	addi	a6,a3,-1024 # 40012c00 <_eusrstack+0x2000ac00>
    2d34:	83c1                	srli	a5,a5,0x10
    2d36:	01050e63          	beq	a0,a6,2d52 <TIM_OC2Init+0x78>
    2d3a:	40068693          	addi	a3,a3,1024
    2d3e:	00d50a63          	beq	a0,a3,2d52 <TIM_OC2Init+0x78>
    2d42:	400156b7          	lui	a3,0x40015
    2d46:	c0068813          	addi	a6,a3,-1024 # 40014c00 <_eusrstack+0x2000cc00>
    2d4a:	01050463          	beq	a0,a6,2d52 <TIM_OC2Init+0x78>
    2d4e:	04d51163          	bne	a0,a3,2d90 <TIM_OC2Init+0xb6>
    2d52:	00a5d683          	lhu	a3,10(a1)
    2d56:	f7f7f793          	andi	a5,a5,-129
    2d5a:	00c5d803          	lhu	a6,12(a1)
    2d5e:	0692                	slli	a3,a3,0x4
    2d60:	8fd5                	or	a5,a5,a3
    2d62:	0045d683          	lhu	a3,4(a1)
    2d66:	07c2                	slli	a5,a5,0x10
    2d68:	83c1                	srli	a5,a5,0x10
    2d6a:	0692                	slli	a3,a3,0x4
    2d6c:	fbf7f793          	andi	a5,a5,-65
    2d70:	8fd5                	or	a5,a5,a3
    2d72:	76fd                	lui	a3,0xfffff
    2d74:	3ff68693          	addi	a3,a3,1023 # fffff3ff <_eusrstack+0xdfff73ff>
    2d78:	8ef1                	and	a3,a3,a2
    2d7a:	00e5d603          	lhu	a2,14(a1)
    2d7e:	07c2                	slli	a5,a5,0x10
    2d80:	83c1                	srli	a5,a5,0x10
    2d82:	01066633          	or	a2,a2,a6
    2d86:	060a                	slli	a2,a2,0x2
    2d88:	8ed1                	or	a3,a3,a2
    2d8a:	01069613          	slli	a2,a3,0x10
    2d8e:	8241                	srli	a2,a2,0x10
    2d90:	00c51223          	sh	a2,4(a0)
    2d94:	00e51c23          	sh	a4,24(a0)
    2d98:	0065d703          	lhu	a4,6(a1)
    2d9c:	02e51c23          	sh	a4,56(a0)
    2da0:	02f51023          	sh	a5,32(a0)
    2da4:	8082                	ret

00002da6 <TIM_Cmd>:
    2da6:	00055783          	lhu	a5,0(a0)
    2daa:	c591                	beqz	a1,2db6 <TIM_Cmd+0x10>
    2dac:	0017e793          	ori	a5,a5,1
    2db0:	00f51023          	sh	a5,0(a0)
    2db4:	8082                	ret
    2db6:	07c2                	slli	a5,a5,0x10
    2db8:	83c1                	srli	a5,a5,0x10
    2dba:	9bf9                	andi	a5,a5,-2
    2dbc:	07c2                	slli	a5,a5,0x10
    2dbe:	83c1                	srli	a5,a5,0x10
    2dc0:	bfc5                	j	2db0 <TIM_Cmd+0xa>

00002dc2 <TIM_CtrlPWMOutputs>:
    2dc2:	04455783          	lhu	a5,68(a0)
    2dc6:	c591                	beqz	a1,2dd2 <TIM_CtrlPWMOutputs+0x10>
    2dc8:	6721                	lui	a4,0x8
    2dca:	8fd9                	or	a5,a5,a4
    2dcc:	04f51223          	sh	a5,68(a0)
    2dd0:	8082                	ret
    2dd2:	07c6                	slli	a5,a5,0x11
    2dd4:	83c5                	srli	a5,a5,0x11
    2dd6:	bfdd                	j	2dcc <TIM_CtrlPWMOutputs+0xa>

00002dd8 <TIM_ITConfig>:
    2dd8:	00c55783          	lhu	a5,12(a0)
    2ddc:	c609                	beqz	a2,2de6 <TIM_ITConfig+0xe>
    2dde:	8ddd                	or	a1,a1,a5
    2de0:	00b51623          	sh	a1,12(a0)
    2de4:	8082                	ret
    2de6:	fff5c593          	not	a1,a1
    2dea:	8dfd                	and	a1,a1,a5
    2dec:	bfd5                	j	2de0 <TIM_ITConfig+0x8>

00002dee <TIM_ARRPreloadConfig>:
    2dee:	00055783          	lhu	a5,0(a0)
    2df2:	c591                	beqz	a1,2dfe <TIM_ARRPreloadConfig+0x10>
    2df4:	0807e793          	ori	a5,a5,128
    2df8:	00f51023          	sh	a5,0(a0)
    2dfc:	8082                	ret
    2dfe:	07c2                	slli	a5,a5,0x10
    2e00:	83c1                	srli	a5,a5,0x10
    2e02:	f7f7f793          	andi	a5,a5,-129
    2e06:	07c2                	slli	a5,a5,0x10
    2e08:	83c1                	srli	a5,a5,0x10
    2e0a:	b7fd                	j	2df8 <TIM_ARRPreloadConfig+0xa>

00002e0c <TIM_OC2PreloadConfig>:
    2e0c:	01855703          	lhu	a4,24(a0)
    2e10:	77fd                	lui	a5,0xfffff
    2e12:	7ff78793          	addi	a5,a5,2047 # fffff7ff <_eusrstack+0xdfff77ff>
    2e16:	8ff9                	and	a5,a5,a4
    2e18:	05a2                	slli	a1,a1,0x8
    2e1a:	8fcd                	or	a5,a5,a1
    2e1c:	07c2                	slli	a5,a5,0x10
    2e1e:	83c1                	srli	a5,a5,0x10
    2e20:	00f51c23          	sh	a5,24(a0)
    2e24:	8082                	ret

00002e26 <TIM_SetCompare2>:
    2e26:	02b51c23          	sh	a1,56(a0)
    2e2a:	8082                	ret

00002e2c <TIM_ClearFlag>:
    2e2c:	fff5c593          	not	a1,a1
    2e30:	05c2                	slli	a1,a1,0x10
    2e32:	81c1                	srli	a1,a1,0x10
    2e34:	00b51823          	sh	a1,16(a0)
    2e38:	8082                	ret

00002e3a <USART_Init>:
    2e3a:	01055683          	lhu	a3,16(a0)
    2e3e:	77f5                	lui	a5,0xffffd
    2e40:	17fd                	addi	a5,a5,-1
    2e42:	8ff5                	and	a5,a5,a3
    2e44:	0065d683          	lhu	a3,6(a1)
    2e48:	7139                	addi	sp,sp,-64
    2e4a:	dc22                	sw	s0,56(sp)
    2e4c:	de06                	sw	ra,60(sp)
    2e4e:	8fd5                	or	a5,a5,a3
    2e50:	00c5d703          	lhu	a4,12(a1)
    2e54:	00f51823          	sh	a5,16(a0)
    2e58:	00c55683          	lhu	a3,12(a0)
    2e5c:	77fd                	lui	a5,0xfffff
    2e5e:	9f378793          	addi	a5,a5,-1549 # ffffe9f3 <_eusrstack+0xdfff69f3>
    2e62:	8ff5                	and	a5,a5,a3
    2e64:	0045d683          	lhu	a3,4(a1)
    2e68:	842a                	mv	s0,a0
    2e6a:	c62e                	sw	a1,12(sp)
    2e6c:	8fd5                	or	a5,a5,a3
    2e6e:	0085d683          	lhu	a3,8(a1)
    2e72:	8fd5                	or	a5,a5,a3
    2e74:	00a5d683          	lhu	a3,10(a1)
    2e78:	8fd5                	or	a5,a5,a3
    2e7a:	00f51623          	sh	a5,12(a0)
    2e7e:	01455783          	lhu	a5,20(a0)
    2e82:	07c2                	slli	a5,a5,0x10
    2e84:	83c1                	srli	a5,a5,0x10
    2e86:	cff7f793          	andi	a5,a5,-769
    2e8a:	8fd9                	or	a5,a5,a4
    2e8c:	00f51a23          	sh	a5,20(a0)
    2e90:	0868                	addi	a0,sp,28
    2e92:	c21ff0ef          	jal	ra,2ab2 <RCC_GetClocksFreq>
    2e96:	400147b7          	lui	a5,0x40014
    2e9a:	80078793          	addi	a5,a5,-2048 # 40013800 <_eusrstack+0x2000b800>
    2e9e:	45b2                	lw	a1,12(sp)
    2ea0:	04f41e63          	bne	s0,a5,2efc <USART_Init+0xc2>
    2ea4:	57a2                	lw	a5,40(sp)
    2ea6:	00c45683          	lhu	a3,12(s0)
    2eaa:	4765                	li	a4,25
    2eac:	02e787b3          	mul	a5,a5,a4
    2eb0:	06c2                	slli	a3,a3,0x10
    2eb2:	86c1                	srai	a3,a3,0x10
    2eb4:	4198                	lw	a4,0(a1)
    2eb6:	0406d563          	bgez	a3,2f00 <USART_Init+0xc6>
    2eba:	0706                	slli	a4,a4,0x1
    2ebc:	00c45603          	lhu	a2,12(s0)
    2ec0:	0642                	slli	a2,a2,0x10
    2ec2:	02e7d7b3          	divu	a5,a5,a4
    2ec6:	06400713          	li	a4,100
    2eca:	8641                	srai	a2,a2,0x10
    2ecc:	02e7d6b3          	divu	a3,a5,a4
    2ed0:	02e7f7b3          	remu	a5,a5,a4
    2ed4:	0692                	slli	a3,a3,0x4
    2ed6:	02065763          	bgez	a2,2f04 <USART_Init+0xca>
    2eda:	078e                	slli	a5,a5,0x3
    2edc:	03278793          	addi	a5,a5,50
    2ee0:	02e7d7b3          	divu	a5,a5,a4
    2ee4:	0077f713          	andi	a4,a5,7
    2ee8:	00d767b3          	or	a5,a4,a3
    2eec:	07c2                	slli	a5,a5,0x10
    2eee:	83c1                	srli	a5,a5,0x10
    2ef0:	00f41423          	sh	a5,8(s0)
    2ef4:	50f2                	lw	ra,60(sp)
    2ef6:	5462                	lw	s0,56(sp)
    2ef8:	6121                	addi	sp,sp,64
    2efa:	8082                	ret
    2efc:	5792                	lw	a5,36(sp)
    2efe:	b765                	j	2ea6 <USART_Init+0x6c>
    2f00:	070a                	slli	a4,a4,0x2
    2f02:	bf6d                	j	2ebc <USART_Init+0x82>
    2f04:	0792                	slli	a5,a5,0x4
    2f06:	03278793          	addi	a5,a5,50
    2f0a:	02e7d7b3          	divu	a5,a5,a4
    2f0e:	8bbd                	andi	a5,a5,15
    2f10:	8fd5                	or	a5,a5,a3
    2f12:	bfe9                	j	2eec <USART_Init+0xb2>

00002f14 <USART_Cmd>:
    2f14:	c981                	beqz	a1,2f24 <USART_Cmd+0x10>
    2f16:	00c55783          	lhu	a5,12(a0)
    2f1a:	6709                	lui	a4,0x2
    2f1c:	8fd9                	or	a5,a5,a4
    2f1e:	00f51623          	sh	a5,12(a0)
    2f22:	8082                	ret
    2f24:	00c55703          	lhu	a4,12(a0)
    2f28:	77f9                	lui	a5,0xffffe
    2f2a:	17fd                	addi	a5,a5,-1
    2f2c:	8ff9                	and	a5,a5,a4
    2f2e:	bfc5                	j	2f1e <USART_Cmd+0xa>

00002f30 <USART_SendData>:
    2f30:	1ff5f593          	andi	a1,a1,511
    2f34:	00b51223          	sh	a1,4(a0)
    2f38:	8082                	ret

00002f3a <USART_GetFlagStatus>:
    2f3a:	00055503          	lhu	a0,0(a0)
    2f3e:	8d6d                	and	a0,a0,a1
    2f40:	00a03533          	snez	a0,a0
    2f44:	8082                	ret

00002f46 <Delay_Init>:
    2f46:	8141a783          	lw	a5,-2028(gp) # 20000084 <SystemCoreClock>
    2f4a:	007a1737          	lui	a4,0x7a1
    2f4e:	20070713          	addi	a4,a4,512 # 7a1200 <_data_lma+0x797f10>
    2f52:	02e7d7b3          	divu	a5,a5,a4
    2f56:	0ff7f793          	andi	a5,a5,255
    2f5a:	84f18323          	sb	a5,-1978(gp) # 200000b6 <p_us>
    2f5e:	3e800713          	li	a4,1000
    2f62:	02e787b3          	mul	a5,a5,a4
    2f66:	84f19223          	sh	a5,-1980(gp) # 200000b4 <p_ms>
    2f6a:	8082                	ret

00002f6c <Delay_Us>:
    2f6c:	e000f7b7          	lui	a5,0xe000f
    2f70:	43d8                	lw	a4,4(a5)
    2f72:	4681                	li	a3,0
    2f74:	9b79                	andi	a4,a4,-2
    2f76:	c3d8                	sw	a4,4(a5)
    2f78:	8461c703          	lbu	a4,-1978(gp) # 200000b6 <p_us>
    2f7c:	02a70633          	mul	a2,a4,a0
    2f80:	cb90                	sw	a2,16(a5)
    2f82:	cbd4                	sw	a3,20(a5)
    2f84:	4398                	lw	a4,0(a5)
    2f86:	03176713          	ori	a4,a4,49
    2f8a:	c398                	sw	a4,0(a5)
    2f8c:	43d8                	lw	a4,4(a5)
    2f8e:	8b05                	andi	a4,a4,1
    2f90:	df75                	beqz	a4,2f8c <Delay_Us+0x20>
    2f92:	4398                	lw	a4,0(a5)
    2f94:	9b79                	andi	a4,a4,-2
    2f96:	c398                	sw	a4,0(a5)
    2f98:	8082                	ret

00002f9a <Delay_Ms>:
    2f9a:	e000f7b7          	lui	a5,0xe000f
    2f9e:	43d8                	lw	a4,4(a5)
    2fa0:	4681                	li	a3,0
    2fa2:	9b79                	andi	a4,a4,-2
    2fa4:	c3d8                	sw	a4,4(a5)
    2fa6:	8441d703          	lhu	a4,-1980(gp) # 200000b4 <p_ms>
    2faa:	02a70633          	mul	a2,a4,a0
    2fae:	cb90                	sw	a2,16(a5)
    2fb0:	cbd4                	sw	a3,20(a5)
    2fb2:	4398                	lw	a4,0(a5)
    2fb4:	03176713          	ori	a4,a4,49
    2fb8:	c398                	sw	a4,0(a5)
    2fba:	43d8                	lw	a4,4(a5)
    2fbc:	8b05                	andi	a4,a4,1
    2fbe:	df75                	beqz	a4,2fba <Delay_Ms+0x20>
    2fc0:	4398                	lw	a4,0(a5)
    2fc2:	9b79                	andi	a4,a4,-2
    2fc4:	c398                	sw	a4,0(a5)
    2fc6:	8082                	ret

00002fc8 <USART_Printf_Init>:
    2fc8:	7179                	addi	sp,sp,-48
    2fca:	d422                	sw	s0,40(sp)
    2fcc:	842a                	mv	s0,a0
    2fce:	6511                	lui	a0,0x4
    2fd0:	4585                	li	a1,1
    2fd2:	0511                	addi	a0,a0,4
    2fd4:	d606                	sw	ra,44(sp)
    2fd6:	c09ff0ef          	jal	ra,2bde <RCC_APB2PeriphClockCmd>
    2fda:	20000793          	li	a5,512
    2fde:	00f11223          	sh	a5,4(sp)
    2fe2:	40011537          	lui	a0,0x40011
    2fe6:	478d                	li	a5,3
    2fe8:	c43e                	sw	a5,8(sp)
    2fea:	004c                	addi	a1,sp,4
    2fec:	47e1                	li	a5,24
    2fee:	80050513          	addi	a0,a0,-2048 # 40010800 <_eusrstack+0x20008800>
    2ff2:	c63e                	sw	a5,12(sp)
    2ff4:	f0eff0ef          	jal	ra,2702 <GPIO_Init>
    2ff8:	c822                	sw	s0,16(sp)
    2ffa:	40014437          	lui	s0,0x40014
    2ffe:	000807b7          	lui	a5,0x80
    3002:	080c                	addi	a1,sp,16
    3004:	80040513          	addi	a0,s0,-2048 # 40013800 <_eusrstack+0x2000b800>
    3008:	cc3e                	sw	a5,24(sp)
    300a:	ca02                	sw	zero,20(sp)
    300c:	00011e23          	sh	zero,28(sp)
    3010:	e2bff0ef          	jal	ra,2e3a <USART_Init>
    3014:	80040513          	addi	a0,s0,-2048
    3018:	4585                	li	a1,1
    301a:	3ded                	jal	2f14 <USART_Cmd>
    301c:	50b2                	lw	ra,44(sp)
    301e:	5422                	lw	s0,40(sp)
    3020:	6145                	addi	sp,sp,48
    3022:	8082                	ret

00003024 <_write>:
    3024:	1101                	addi	sp,sp,-32
    3026:	ca26                	sw	s1,20(sp)
    3028:	400144b7          	lui	s1,0x40014
    302c:	cc22                	sw	s0,24(sp)
    302e:	c84a                	sw	s2,16(sp)
    3030:	c64e                	sw	s3,12(sp)
    3032:	ce06                	sw	ra,28(sp)
    3034:	89ae                	mv	s3,a1
    3036:	8932                	mv	s2,a2
    3038:	4401                	li	s0,0
    303a:	80048493          	addi	s1,s1,-2048 # 40013800 <_eusrstack+0x2000b800>
    303e:	01244a63          	blt	s0,s2,3052 <_write+0x2e>
    3042:	40f2                	lw	ra,28(sp)
    3044:	4462                	lw	s0,24(sp)
    3046:	854a                	mv	a0,s2
    3048:	44d2                	lw	s1,20(sp)
    304a:	4942                	lw	s2,16(sp)
    304c:	49b2                	lw	s3,12(sp)
    304e:	6105                	addi	sp,sp,32
    3050:	8082                	ret
    3052:	04000593          	li	a1,64
    3056:	8526                	mv	a0,s1
    3058:	35cd                	jal	2f3a <USART_GetFlagStatus>
    305a:	dd65                	beqz	a0,3052 <_write+0x2e>
    305c:	008987b3          	add	a5,s3,s0
    3060:	00078583          	lb	a1,0(a5) # 80000 <_data_lma+0x76d10>
    3064:	8526                	mv	a0,s1
    3066:	0405                	addi	s0,s0,1
    3068:	05c2                	slli	a1,a1,0x10
    306a:	81c1                	srli	a1,a1,0x10
    306c:	ec5ff0ef          	jal	ra,2f30 <USART_SendData>
    3070:	b7f9                	j	303e <_write+0x1a>

00003072 <_sbrk>:
    3072:	81c18713          	addi	a4,gp,-2020 # 2000008c <curbrk.5226>
    3076:	431c                	lw	a5,0(a4)
    3078:	89c18693          	addi	a3,gp,-1892 # 2000010c <_ebss>
    307c:	953e                	add	a0,a0,a5
    307e:	00d56b63          	bltu	a0,a3,3094 <_sbrk+0x22>
    3082:	200086b7          	lui	a3,0x20008
    3086:	80068693          	addi	a3,a3,-2048 # 20007800 <_heap_end>
    308a:	00a6e563          	bltu	a3,a0,3094 <_sbrk+0x22>
    308e:	c308                	sw	a0,0(a4)
    3090:	853e                	mv	a0,a5
    3092:	8082                	ret
    3094:	57fd                	li	a5,-1
    3096:	bfed                	j	3090 <_sbrk+0x1e>

00003098 <__adddf3>:
    3098:	00100837          	lui	a6,0x100
    309c:	1101                	addi	sp,sp,-32
    309e:	187d                	addi	a6,a6,-1
    30a0:	00b87733          	and	a4,a6,a1
    30a4:	ca26                	sw	s1,20(sp)
    30a6:	00d87833          	and	a6,a6,a3
    30aa:	0145d493          	srli	s1,a1,0x14
    30ae:	0146d313          	srli	t1,a3,0x14
    30b2:	00371e13          	slli	t3,a4,0x3
    30b6:	c64e                	sw	s3,12(sp)
    30b8:	01d55713          	srli	a4,a0,0x1d
    30bc:	080e                	slli	a6,a6,0x3
    30be:	01d65793          	srli	a5,a2,0x1d
    30c2:	7ff4f493          	andi	s1,s1,2047
    30c6:	7ff37313          	andi	t1,t1,2047
    30ca:	ce06                	sw	ra,28(sp)
    30cc:	cc22                	sw	s0,24(sp)
    30ce:	c84a                	sw	s2,16(sp)
    30d0:	01f5d993          	srli	s3,a1,0x1f
    30d4:	01f6de93          	srli	t4,a3,0x1f
    30d8:	01c76733          	or	a4,a4,t3
    30dc:	00351f13          	slli	t5,a0,0x3
    30e0:	0107e833          	or	a6,a5,a6
    30e4:	00361f93          	slli	t6,a2,0x3
    30e8:	40648e33          	sub	t3,s1,t1
    30ec:	19d98063          	beq	s3,t4,326c <__adddf3+0x1d4>
    30f0:	13c05663          	blez	t3,321c <__adddf3+0x184>
    30f4:	1c030463          	beqz	t1,32bc <__adddf3+0x224>
    30f8:	008006b7          	lui	a3,0x800
    30fc:	7ff00793          	li	a5,2047
    3100:	00d86833          	or	a6,a6,a3
    3104:	36f48f63          	beq	s1,a5,3482 <__adddf3+0x3ea>
    3108:	03800793          	li	a5,56
    310c:	35c7c063          	blt	a5,t3,344c <__adddf3+0x3b4>
    3110:	47fd                	li	a5,31
    3112:	47c7cd63          	blt	a5,t3,358c <__adddf3+0x4f4>
    3116:	02000513          	li	a0,32
    311a:	41c50533          	sub	a0,a0,t3
    311e:	01cfd7b3          	srl	a5,t6,t3
    3122:	00a816b3          	sll	a3,a6,a0
    3126:	00af9933          	sll	s2,t6,a0
    312a:	8edd                	or	a3,a3,a5
    312c:	01203933          	snez	s2,s2
    3130:	01c857b3          	srl	a5,a6,t3
    3134:	0126e933          	or	s2,a3,s2
    3138:	8f1d                	sub	a4,a4,a5
    313a:	412f0933          	sub	s2,t5,s2
    313e:	012f37b3          	sltu	a5,t5,s2
    3142:	40f70633          	sub	a2,a4,a5
    3146:	00861793          	slli	a5,a2,0x8
    314a:	2407d463          	bgez	a5,3392 <__adddf3+0x2fa>
    314e:	00800737          	lui	a4,0x800
    3152:	177d                	addi	a4,a4,-1
    3154:	00e67433          	and	s0,a2,a4
    3158:	2c040c63          	beqz	s0,3430 <__adddf3+0x398>
    315c:	8522                	mv	a0,s0
    315e:	4e0010ef          	jal	ra,463e <__clzsi2>
    3162:	ff850713          	addi	a4,a0,-8
    3166:	02000793          	li	a5,32
    316a:	8f99                	sub	a5,a5,a4
    316c:	00f957b3          	srl	a5,s2,a5
    3170:	00e41633          	sll	a2,s0,a4
    3174:	8fd1                	or	a5,a5,a2
    3176:	00e91933          	sll	s2,s2,a4
    317a:	2a974163          	blt	a4,s1,341c <__adddf3+0x384>
    317e:	40970533          	sub	a0,a4,s1
    3182:	00150613          	addi	a2,a0,1
    3186:	477d                	li	a4,31
    3188:	38c74d63          	blt	a4,a2,3522 <__adddf3+0x48a>
    318c:	02000713          	li	a4,32
    3190:	8f11                	sub	a4,a4,a2
    3192:	00c956b3          	srl	a3,s2,a2
    3196:	00e91933          	sll	s2,s2,a4
    319a:	00e79733          	sll	a4,a5,a4
    319e:	8f55                	or	a4,a4,a3
    31a0:	01203933          	snez	s2,s2
    31a4:	01276933          	or	s2,a4,s2
    31a8:	00c7d633          	srl	a2,a5,a2
    31ac:	4481                	li	s1,0
    31ae:	00797793          	andi	a5,s2,7
    31b2:	cf81                	beqz	a5,31ca <__adddf3+0x132>
    31b4:	00f97713          	andi	a4,s2,15
    31b8:	4791                	li	a5,4
    31ba:	00f70863          	beq	a4,a5,31ca <__adddf3+0x132>
    31be:	00490713          	addi	a4,s2,4
    31c2:	01273933          	sltu	s2,a4,s2
    31c6:	964a                	add	a2,a2,s2
    31c8:	893a                	mv	s2,a4
    31ca:	00861793          	slli	a5,a2,0x8
    31ce:	1c07d663          	bgez	a5,339a <__adddf3+0x302>
    31d2:	00148513          	addi	a0,s1,1
    31d6:	7ff00793          	li	a5,2047
    31da:	85ce                	mv	a1,s3
    31dc:	20f50463          	beq	a0,a5,33e4 <__adddf3+0x34c>
    31e0:	ff8007b7          	lui	a5,0xff800
    31e4:	17fd                	addi	a5,a5,-1
    31e6:	8ff1                	and	a5,a5,a2
    31e8:	01d79893          	slli	a7,a5,0x1d
    31ec:	00395913          	srli	s2,s2,0x3
    31f0:	07a6                	slli	a5,a5,0x9
    31f2:	0128e8b3          	or	a7,a7,s2
    31f6:	83b1                	srli	a5,a5,0xc
    31f8:	7ff57513          	andi	a0,a0,2047
    31fc:	00c79693          	slli	a3,a5,0xc
    3200:	0552                	slli	a0,a0,0x14
    3202:	40f2                	lw	ra,28(sp)
    3204:	4462                	lw	s0,24(sp)
    3206:	82b1                	srli	a3,a3,0xc
    3208:	05fe                	slli	a1,a1,0x1f
    320a:	8ec9                	or	a3,a3,a0
    320c:	8ecd                	or	a3,a3,a1
    320e:	44d2                	lw	s1,20(sp)
    3210:	4942                	lw	s2,16(sp)
    3212:	49b2                	lw	s3,12(sp)
    3214:	8546                	mv	a0,a7
    3216:	85b6                	mv	a1,a3
    3218:	6105                	addi	sp,sp,32
    321a:	8082                	ret
    321c:	0a0e1e63          	bnez	t3,32d8 <__adddf3+0x240>
    3220:	00148313          	addi	t1,s1,1
    3224:	7fe37313          	andi	t1,t1,2046
    3228:	22031763          	bnez	t1,3456 <__adddf3+0x3be>
    322c:	01e767b3          	or	a5,a4,t5
    3230:	01f868b3          	or	a7,a6,t6
    3234:	1a049d63          	bnez	s1,33ee <__adddf3+0x356>
    3238:	40078763          	beqz	a5,3646 <__adddf3+0x5ae>
    323c:	44088663          	beqz	a7,3688 <__adddf3+0x5f0>
    3240:	41ff0933          	sub	s2,t5,t6
    3244:	410707b3          	sub	a5,a4,a6
    3248:	012f3633          	sltu	a2,t5,s2
    324c:	40c78633          	sub	a2,a5,a2
    3250:	00861793          	slli	a5,a2,0x8
    3254:	4c07d663          	bgez	a5,3720 <__adddf3+0x688>
    3258:	41ef8933          	sub	s2,t6,t5
    325c:	40e807b3          	sub	a5,a6,a4
    3260:	012fb633          	sltu	a2,t6,s2
    3264:	40c78633          	sub	a2,a5,a2
    3268:	89f6                	mv	s3,t4
    326a:	b791                	j	31ae <__adddf3+0x116>
    326c:	0fc05063          	blez	t3,334c <__adddf3+0x2b4>
    3270:	0c030063          	beqz	t1,3330 <__adddf3+0x298>
    3274:	008006b7          	lui	a3,0x800
    3278:	7ff00793          	li	a5,2047
    327c:	00d86833          	or	a6,a6,a3
    3280:	3af48a63          	beq	s1,a5,3634 <__adddf3+0x59c>
    3284:	03800793          	li	a5,56
    3288:	13c7cb63          	blt	a5,t3,33be <__adddf3+0x326>
    328c:	47fd                	li	a5,31
    328e:	35c7df63          	bge	a5,t3,35ec <__adddf3+0x554>
    3292:	fe0e0913          	addi	s2,t3,-32
    3296:	02000793          	li	a5,32
    329a:	012856b3          	srl	a3,a6,s2
    329e:	00fe0a63          	beq	t3,a5,32b2 <__adddf3+0x21a>
    32a2:	04000913          	li	s2,64
    32a6:	41c90933          	sub	s2,s2,t3
    32aa:	01281933          	sll	s2,a6,s2
    32ae:	012fefb3          	or	t6,t6,s2
    32b2:	01f03933          	snez	s2,t6
    32b6:	00d96933          	or	s2,s2,a3
    32ba:	a231                	j	33c6 <__adddf3+0x32e>
    32bc:	01f867b3          	or	a5,a6,t6
    32c0:	1c078a63          	beqz	a5,3494 <__adddf3+0x3fc>
    32c4:	fffe0793          	addi	a5,t3,-1
    32c8:	38078c63          	beqz	a5,3660 <__adddf3+0x5c8>
    32cc:	7ff00693          	li	a3,2047
    32d0:	1ade0963          	beq	t3,a3,3482 <__adddf3+0x3ea>
    32d4:	8e3e                	mv	t3,a5
    32d6:	bd0d                	j	3108 <__adddf3+0x70>
    32d8:	409305b3          	sub	a1,t1,s1
    32dc:	22049163          	bnez	s1,34fe <__adddf3+0x466>
    32e0:	01e767b3          	or	a5,a4,t5
    32e4:	32078763          	beqz	a5,3612 <__adddf3+0x57a>
    32e8:	fff58793          	addi	a5,a1,-1
    32ec:	44078163          	beqz	a5,372e <__adddf3+0x696>
    32f0:	7ff00693          	li	a3,2047
    32f4:	20d58c63          	beq	a1,a3,350c <__adddf3+0x474>
    32f8:	85be                	mv	a1,a5
    32fa:	03800793          	li	a5,56
    32fe:	2ab7cc63          	blt	a5,a1,35b6 <__adddf3+0x51e>
    3302:	47fd                	li	a5,31
    3304:	3cb7cf63          	blt	a5,a1,36e2 <__adddf3+0x64a>
    3308:	02000793          	li	a5,32
    330c:	8f8d                	sub	a5,a5,a1
    330e:	00f71933          	sll	s2,a4,a5
    3312:	00bf56b3          	srl	a3,t5,a1
    3316:	00ff17b3          	sll	a5,t5,a5
    331a:	00d96933          	or	s2,s2,a3
    331e:	00f037b3          	snez	a5,a5
    3322:	00b75733          	srl	a4,a4,a1
    3326:	00f96933          	or	s2,s2,a5
    332a:	40e80833          	sub	a6,a6,a4
    332e:	ac41                	j	35be <__adddf3+0x526>
    3330:	01f867b3          	or	a5,a6,t6
    3334:	34078063          	beqz	a5,3674 <__adddf3+0x5dc>
    3338:	fffe0793          	addi	a5,t3,-1
    333c:	20078a63          	beqz	a5,3550 <__adddf3+0x4b8>
    3340:	7ff00693          	li	a3,2047
    3344:	2ede0863          	beq	t3,a3,3634 <__adddf3+0x59c>
    3348:	8e3e                	mv	t3,a5
    334a:	bf2d                	j	3284 <__adddf3+0x1ec>
    334c:	140e1e63          	bnez	t3,34a8 <__adddf3+0x410>
    3350:	00148693          	addi	a3,s1,1
    3354:	7fe6f793          	andi	a5,a3,2046
    3358:	34079163          	bnez	a5,369a <__adddf3+0x602>
    335c:	01e767b3          	or	a5,a4,t5
    3360:	2c049563          	bnez	s1,362a <__adddf3+0x592>
    3364:	3e078063          	beqz	a5,3744 <__adddf3+0x6ac>
    3368:	01f867b3          	or	a5,a6,t6
    336c:	30078e63          	beqz	a5,3688 <__adddf3+0x5f0>
    3370:	01ff0933          	add	s2,t5,t6
    3374:	010707b3          	add	a5,a4,a6
    3378:	01e93f33          	sltu	t5,s2,t5
    337c:	01e78633          	add	a2,a5,t5
    3380:	00861793          	slli	a5,a2,0x8
    3384:	0007d763          	bgez	a5,3392 <__adddf3+0x2fa>
    3388:	ff8007b7          	lui	a5,0xff800
    338c:	17fd                	addi	a5,a5,-1
    338e:	8e7d                	and	a2,a2,a5
    3390:	4485                	li	s1,1
    3392:	00797793          	andi	a5,s2,7
    3396:	e0079fe3          	bnez	a5,31b4 <__adddf3+0x11c>
    339a:	01d61793          	slli	a5,a2,0x1d
    339e:	00395893          	srli	a7,s2,0x3
    33a2:	00f8e8b3          	or	a7,a7,a5
    33a6:	00365793          	srli	a5,a2,0x3
    33aa:	7ff00713          	li	a4,2047
    33ae:	04e48d63          	beq	s1,a4,3408 <__adddf3+0x370>
    33b2:	07b2                	slli	a5,a5,0xc
    33b4:	83b1                	srli	a5,a5,0xc
    33b6:	7ff4f513          	andi	a0,s1,2047
    33ba:	85ce                	mv	a1,s3
    33bc:	b581                	j	31fc <__adddf3+0x164>
    33be:	01f86933          	or	s2,a6,t6
    33c2:	01203933          	snez	s2,s2
    33c6:	997a                	add	s2,s2,t5
    33c8:	01e937b3          	sltu	a5,s2,t5
    33cc:	00e78633          	add	a2,a5,a4
    33d0:	00861793          	slli	a5,a2,0x8
    33d4:	fa07dfe3          	bgez	a5,3392 <__adddf3+0x2fa>
    33d8:	0485                	addi	s1,s1,1
    33da:	7ff00793          	li	a5,2047
    33de:	18f49663          	bne	s1,a5,356a <__adddf3+0x4d2>
    33e2:	85ce                	mv	a1,s3
    33e4:	7ff00513          	li	a0,2047
    33e8:	4781                	li	a5,0
    33ea:	4881                	li	a7,0
    33ec:	bd01                	j	31fc <__adddf3+0x164>
    33ee:	ebc1                	bnez	a5,347e <__adddf3+0x3e6>
    33f0:	3a088463          	beqz	a7,3798 <__adddf3+0x700>
    33f4:	00361693          	slli	a3,a2,0x3
    33f8:	01d81793          	slli	a5,a6,0x1d
    33fc:	828d                	srli	a3,a3,0x3
    33fe:	00d7e8b3          	or	a7,a5,a3
    3402:	89f6                	mv	s3,t4
    3404:	00385793          	srli	a5,a6,0x3
    3408:	00f8e7b3          	or	a5,a7,a5
    340c:	dbf9                	beqz	a5,33e2 <__adddf3+0x34a>
    340e:	4581                	li	a1,0
    3410:	7ff00513          	li	a0,2047
    3414:	000807b7          	lui	a5,0x80
    3418:	4881                	li	a7,0
    341a:	b3cd                	j	31fc <__adddf3+0x164>
    341c:	ff800637          	lui	a2,0xff800
    3420:	167d                	addi	a2,a2,-1
    3422:	8e7d                	and	a2,a2,a5
    3424:	00797793          	andi	a5,s2,7
    3428:	8c99                	sub	s1,s1,a4
    342a:	d80795e3          	bnez	a5,31b4 <__adddf3+0x11c>
    342e:	b7b5                	j	339a <__adddf3+0x302>
    3430:	854a                	mv	a0,s2
    3432:	20c010ef          	jal	ra,463e <__clzsi2>
    3436:	01850713          	addi	a4,a0,24
    343a:	47fd                	li	a5,31
    343c:	d2e7d5e3          	bge	a5,a4,3166 <__adddf3+0xce>
    3440:	ff850613          	addi	a2,a0,-8
    3444:	00c917b3          	sll	a5,s2,a2
    3448:	4901                	li	s2,0
    344a:	bb05                	j	317a <__adddf3+0xe2>
    344c:	01f86933          	or	s2,a6,t6
    3450:	01203933          	snez	s2,s2
    3454:	b1dd                	j	313a <__adddf3+0xa2>
    3456:	41ff0933          	sub	s2,t5,t6
    345a:	41070633          	sub	a2,a4,a6
    345e:	012f3433          	sltu	s0,t5,s2
    3462:	40860433          	sub	s0,a2,s0
    3466:	00841793          	slli	a5,s0,0x8
    346a:	2407cd63          	bltz	a5,36c4 <__adddf3+0x62c>
    346e:	008968b3          	or	a7,s2,s0
    3472:	ce0893e3          	bnez	a7,3158 <__adddf3+0xc0>
    3476:	4781                	li	a5,0
    3478:	4981                	li	s3,0
    347a:	4481                	li	s1,0
    347c:	bf1d                	j	33b2 <__adddf3+0x31a>
    347e:	f80898e3          	bnez	a7,340e <__adddf3+0x376>
    3482:	050e                	slli	a0,a0,0x3
    3484:	01d71793          	slli	a5,a4,0x1d
    3488:	810d                	srli	a0,a0,0x3
    348a:	00a7e8b3          	or	a7,a5,a0
    348e:	00375793          	srli	a5,a4,0x3
    3492:	bf9d                	j	3408 <__adddf3+0x370>
    3494:	050e                	slli	a0,a0,0x3
    3496:	01d71793          	slli	a5,a4,0x1d
    349a:	810d                	srli	a0,a0,0x3
    349c:	00a7e8b3          	or	a7,a5,a0
    34a0:	84f2                	mv	s1,t3
    34a2:	00375793          	srli	a5,a4,0x3
    34a6:	b711                	j	33aa <__adddf3+0x312>
    34a8:	40930533          	sub	a0,t1,s1
    34ac:	12048263          	beqz	s1,35d0 <__adddf3+0x538>
    34b0:	008006b7          	lui	a3,0x800
    34b4:	7ff00793          	li	a5,2047
    34b8:	8f55                	or	a4,a4,a3
    34ba:	2ef30d63          	beq	t1,a5,37b4 <__adddf3+0x71c>
    34be:	03800793          	li	a5,56
    34c2:	20a7cb63          	blt	a5,a0,36d8 <__adddf3+0x640>
    34c6:	47fd                	li	a5,31
    34c8:	2aa7c363          	blt	a5,a0,376e <__adddf3+0x6d6>
    34cc:	02000793          	li	a5,32
    34d0:	8f89                	sub	a5,a5,a0
    34d2:	00f71933          	sll	s2,a4,a5
    34d6:	00af56b3          	srl	a3,t5,a0
    34da:	00ff17b3          	sll	a5,t5,a5
    34de:	00d96933          	or	s2,s2,a3
    34e2:	00f037b3          	snez	a5,a5
    34e6:	00a75733          	srl	a4,a4,a0
    34ea:	00f96933          	or	s2,s2,a5
    34ee:	983a                	add	a6,a6,a4
    34f0:	997e                	add	s2,s2,t6
    34f2:	01f937b3          	sltu	a5,s2,t6
    34f6:	01078633          	add	a2,a5,a6
    34fa:	849a                	mv	s1,t1
    34fc:	bdd1                	j	33d0 <__adddf3+0x338>
    34fe:	008006b7          	lui	a3,0x800
    3502:	7ff00793          	li	a5,2047
    3506:	8f55                	or	a4,a4,a3
    3508:	def319e3          	bne	t1,a5,32fa <__adddf3+0x262>
    350c:	00361793          	slli	a5,a2,0x3
    3510:	838d                	srli	a5,a5,0x3
    3512:	01d81893          	slli	a7,a6,0x1d
    3516:	0117e8b3          	or	a7,a5,a7
    351a:	89f6                	mv	s3,t4
    351c:	00385793          	srli	a5,a6,0x3
    3520:	b5e5                	j	3408 <__adddf3+0x370>
    3522:	fe150713          	addi	a4,a0,-31
    3526:	02000693          	li	a3,32
    352a:	00e7d733          	srl	a4,a5,a4
    352e:	00d60a63          	beq	a2,a3,3542 <__adddf3+0x4aa>
    3532:	04000693          	li	a3,64
    3536:	40c68633          	sub	a2,a3,a2
    353a:	00c79633          	sll	a2,a5,a2
    353e:	00c96933          	or	s2,s2,a2
    3542:	01203933          	snez	s2,s2
    3546:	00e96933          	or	s2,s2,a4
    354a:	4601                	li	a2,0
    354c:	4481                	li	s1,0
    354e:	b591                	j	3392 <__adddf3+0x2fa>
    3550:	01ff0933          	add	s2,t5,t6
    3554:	010707b3          	add	a5,a4,a6
    3558:	01e93633          	sltu	a2,s2,t5
    355c:	963e                	add	a2,a2,a5
    355e:	00861793          	slli	a5,a2,0x8
    3562:	4485                	li	s1,1
    3564:	e207d7e3          	bgez	a5,3392 <__adddf3+0x2fa>
    3568:	4489                	li	s1,2
    356a:	ff8007b7          	lui	a5,0xff800
    356e:	17fd                	addi	a5,a5,-1
    3570:	8ff1                	and	a5,a5,a2
    3572:	00195713          	srli	a4,s2,0x1
    3576:	00197913          	andi	s2,s2,1
    357a:	01276933          	or	s2,a4,s2
    357e:	01f79893          	slli	a7,a5,0x1f
    3582:	0128e933          	or	s2,a7,s2
    3586:	0017d613          	srli	a2,a5,0x1
    358a:	b115                	j	31ae <__adddf3+0x116>
    358c:	fe0e0913          	addi	s2,t3,-32
    3590:	02000793          	li	a5,32
    3594:	012856b3          	srl	a3,a6,s2
    3598:	00fe0a63          	beq	t3,a5,35ac <__adddf3+0x514>
    359c:	04000913          	li	s2,64
    35a0:	41c90933          	sub	s2,s2,t3
    35a4:	01281933          	sll	s2,a6,s2
    35a8:	012fefb3          	or	t6,t6,s2
    35ac:	01f03933          	snez	s2,t6
    35b0:	00d96933          	or	s2,s2,a3
    35b4:	b659                	j	313a <__adddf3+0xa2>
    35b6:	01e76933          	or	s2,a4,t5
    35ba:	01203933          	snez	s2,s2
    35be:	412f8933          	sub	s2,t6,s2
    35c2:	012fb7b3          	sltu	a5,t6,s2
    35c6:	40f80633          	sub	a2,a6,a5
    35ca:	849a                	mv	s1,t1
    35cc:	89f6                	mv	s3,t4
    35ce:	bea5                	j	3146 <__adddf3+0xae>
    35d0:	01e767b3          	or	a5,a4,t5
    35d4:	18078263          	beqz	a5,3758 <__adddf3+0x6c0>
    35d8:	fff50793          	addi	a5,a0,-1
    35dc:	1c078463          	beqz	a5,37a4 <__adddf3+0x70c>
    35e0:	7ff00693          	li	a3,2047
    35e4:	12d50463          	beq	a0,a3,370c <__adddf3+0x674>
    35e8:	853e                	mv	a0,a5
    35ea:	bdd1                	j	34be <__adddf3+0x426>
    35ec:	02000793          	li	a5,32
    35f0:	41c787b3          	sub	a5,a5,t3
    35f4:	00f816b3          	sll	a3,a6,a5
    35f8:	00ff9933          	sll	s2,t6,a5
    35fc:	01cfd633          	srl	a2,t6,t3
    3600:	8ed1                	or	a3,a3,a2
    3602:	01203933          	snez	s2,s2
    3606:	01c857b3          	srl	a5,a6,t3
    360a:	0126e933          	or	s2,a3,s2
    360e:	973e                	add	a4,a4,a5
    3610:	bb5d                	j	33c6 <__adddf3+0x32e>
    3612:	00361793          	slli	a5,a2,0x3
    3616:	838d                	srli	a5,a5,0x3
    3618:	01d81893          	slli	a7,a6,0x1d
    361c:	0117e8b3          	or	a7,a5,a7
    3620:	84ae                	mv	s1,a1
    3622:	00385793          	srli	a5,a6,0x3
    3626:	89f6                	mv	s3,t4
    3628:	b349                	j	33aa <__adddf3+0x312>
    362a:	c3ed                	beqz	a5,370c <__adddf3+0x674>
    362c:	01f86933          	or	s2,a6,t6
    3630:	dc091fe3          	bnez	s2,340e <__adddf3+0x376>
    3634:	050e                	slli	a0,a0,0x3
    3636:	01d71793          	slli	a5,a4,0x1d
    363a:	810d                	srli	a0,a0,0x3
    363c:	00f568b3          	or	a7,a0,a5
    3640:	00375793          	srli	a5,a4,0x3
    3644:	b3d1                	j	3408 <__adddf3+0x370>
    3646:	0e088163          	beqz	a7,3728 <__adddf3+0x690>
    364a:	00361693          	slli	a3,a2,0x3
    364e:	01d81793          	slli	a5,a6,0x1d
    3652:	828d                	srli	a3,a3,0x3
    3654:	00d7e8b3          	or	a7,a5,a3
    3658:	89f6                	mv	s3,t4
    365a:	00385793          	srli	a5,a6,0x3
    365e:	bb91                	j	33b2 <__adddf3+0x31a>
    3660:	41ff0933          	sub	s2,t5,t6
    3664:	410707b3          	sub	a5,a4,a6
    3668:	012f3f33          	sltu	t5,t5,s2
    366c:	41e78633          	sub	a2,a5,t5
    3670:	4485                	li	s1,1
    3672:	bcd1                	j	3146 <__adddf3+0xae>
    3674:	050e                	slli	a0,a0,0x3
    3676:	01d71793          	slli	a5,a4,0x1d
    367a:	810d                	srli	a0,a0,0x3
    367c:	00f568b3          	or	a7,a0,a5
    3680:	84f2                	mv	s1,t3
    3682:	00375793          	srli	a5,a4,0x3
    3686:	b315                	j	33aa <__adddf3+0x312>
    3688:	050e                	slli	a0,a0,0x3
    368a:	01d71793          	slli	a5,a4,0x1d
    368e:	810d                	srli	a0,a0,0x3
    3690:	00a7e8b3          	or	a7,a5,a0
    3694:	00375793          	srli	a5,a4,0x3
    3698:	bb29                	j	33b2 <__adddf3+0x31a>
    369a:	7ff00793          	li	a5,2047
    369e:	d4f682e3          	beq	a3,a5,33e2 <__adddf3+0x34a>
    36a2:	01ff0933          	add	s2,t5,t6
    36a6:	01e93633          	sltu	a2,s2,t5
    36aa:	010707b3          	add	a5,a4,a6
    36ae:	97b2                	add	a5,a5,a2
    36b0:	01f79893          	slli	a7,a5,0x1f
    36b4:	00195913          	srli	s2,s2,0x1
    36b8:	0128e933          	or	s2,a7,s2
    36bc:	0017d613          	srli	a2,a5,0x1
    36c0:	84b6                	mv	s1,a3
    36c2:	b9c1                	j	3392 <__adddf3+0x2fa>
    36c4:	41ef8933          	sub	s2,t6,t5
    36c8:	40e80733          	sub	a4,a6,a4
    36cc:	012fb633          	sltu	a2,t6,s2
    36d0:	40c70433          	sub	s0,a4,a2
    36d4:	89f6                	mv	s3,t4
    36d6:	b449                	j	3158 <__adddf3+0xc0>
    36d8:	01e76933          	or	s2,a4,t5
    36dc:	01203933          	snez	s2,s2
    36e0:	bd01                	j	34f0 <__adddf3+0x458>
    36e2:	fe058793          	addi	a5,a1,-32
    36e6:	02000693          	li	a3,32
    36ea:	00f757b3          	srl	a5,a4,a5
    36ee:	00d58a63          	beq	a1,a3,3702 <__adddf3+0x66a>
    36f2:	04000693          	li	a3,64
    36f6:	40b685b3          	sub	a1,a3,a1
    36fa:	00b71733          	sll	a4,a4,a1
    36fe:	00ef6f33          	or	t5,t5,a4
    3702:	01e03933          	snez	s2,t5
    3706:	00f96933          	or	s2,s2,a5
    370a:	bd55                	j	35be <__adddf3+0x526>
    370c:	00361793          	slli	a5,a2,0x3
    3710:	838d                	srli	a5,a5,0x3
    3712:	01d81893          	slli	a7,a6,0x1d
    3716:	0117e8b3          	or	a7,a5,a7
    371a:	00385793          	srli	a5,a6,0x3
    371e:	b1ed                	j	3408 <__adddf3+0x370>
    3720:	00c968b3          	or	a7,s2,a2
    3724:	c60897e3          	bnez	a7,3392 <__adddf3+0x2fa>
    3728:	4781                	li	a5,0
    372a:	4981                	li	s3,0
    372c:	b159                	j	33b2 <__adddf3+0x31a>
    372e:	41ef8933          	sub	s2,t6,t5
    3732:	40e807b3          	sub	a5,a6,a4
    3736:	012fb633          	sltu	a2,t6,s2
    373a:	40c78633          	sub	a2,a5,a2
    373e:	89f6                	mv	s3,t4
    3740:	4485                	li	s1,1
    3742:	b411                	j	3146 <__adddf3+0xae>
    3744:	00361693          	slli	a3,a2,0x3
    3748:	01d81793          	slli	a5,a6,0x1d
    374c:	828d                	srli	a3,a3,0x3
    374e:	00d7e8b3          	or	a7,a5,a3
    3752:	00385793          	srli	a5,a6,0x3
    3756:	b9b1                	j	33b2 <__adddf3+0x31a>
    3758:	00361693          	slli	a3,a2,0x3
    375c:	01d81793          	slli	a5,a6,0x1d
    3760:	828d                	srli	a3,a3,0x3
    3762:	00d7e8b3          	or	a7,a5,a3
    3766:	84aa                	mv	s1,a0
    3768:	00385793          	srli	a5,a6,0x3
    376c:	b93d                	j	33aa <__adddf3+0x312>
    376e:	fe050793          	addi	a5,a0,-32
    3772:	02000693          	li	a3,32
    3776:	00f757b3          	srl	a5,a4,a5
    377a:	00d50a63          	beq	a0,a3,378e <__adddf3+0x6f6>
    377e:	04000693          	li	a3,64
    3782:	40a68533          	sub	a0,a3,a0
    3786:	00a71733          	sll	a4,a4,a0
    378a:	00ef6f33          	or	t5,t5,a4
    378e:	01e03933          	snez	s2,t5
    3792:	00f96933          	or	s2,s2,a5
    3796:	bba9                	j	34f0 <__adddf3+0x458>
    3798:	4581                	li	a1,0
    379a:	7ff00513          	li	a0,2047
    379e:	000807b7          	lui	a5,0x80
    37a2:	bca9                	j	31fc <__adddf3+0x164>
    37a4:	01ff0933          	add	s2,t5,t6
    37a8:	010707b3          	add	a5,a4,a6
    37ac:	01f93633          	sltu	a2,s2,t6
    37b0:	963e                	add	a2,a2,a5
    37b2:	b375                	j	355e <__adddf3+0x4c6>
    37b4:	00361693          	slli	a3,a2,0x3
    37b8:	01d81793          	slli	a5,a6,0x1d
    37bc:	828d                	srli	a3,a3,0x3
    37be:	00d7e8b3          	or	a7,a5,a3
    37c2:	00385793          	srli	a5,a6,0x3
    37c6:	b189                	j	3408 <__adddf3+0x370>

000037c8 <__muldf3>:
    37c8:	7139                	addi	sp,sp,-64
    37ca:	d84a                	sw	s2,48(sp)
    37cc:	0145d913          	srli	s2,a1,0x14
    37d0:	d64e                	sw	s3,44(sp)
    37d2:	d452                	sw	s4,40(sp)
    37d4:	d256                	sw	s5,36(sp)
    37d6:	00c59993          	slli	s3,a1,0xc
    37da:	de06                	sw	ra,60(sp)
    37dc:	dc22                	sw	s0,56(sp)
    37de:	da26                	sw	s1,52(sp)
    37e0:	d05a                	sw	s6,32(sp)
    37e2:	ce5e                	sw	s7,28(sp)
    37e4:	7ff97913          	andi	s2,s2,2047
    37e8:	8a2a                	mv	s4,a0
    37ea:	00c9d993          	srli	s3,s3,0xc
    37ee:	01f5da93          	srli	s5,a1,0x1f
    37f2:	0e090d63          	beqz	s2,38ec <__muldf3+0x124>
    37f6:	7ff00793          	li	a5,2047
    37fa:	18f90663          	beq	s2,a5,3986 <__muldf3+0x1be>
    37fe:	01d55413          	srli	s0,a0,0x1d
    3802:	098e                	slli	s3,s3,0x3
    3804:	013469b3          	or	s3,s0,s3
    3808:	00800437          	lui	s0,0x800
    380c:	0089e433          	or	s0,s3,s0
    3810:	00351493          	slli	s1,a0,0x3
    3814:	c0190913          	addi	s2,s2,-1023
    3818:	4981                	li	s3,0
    381a:	4b81                	li	s7,0
    381c:	0146d713          	srli	a4,a3,0x14
    3820:	00c69a13          	slli	s4,a3,0xc
    3824:	7ff77713          	andi	a4,a4,2047
    3828:	85b2                	mv	a1,a2
    382a:	00ca5a13          	srli	s4,s4,0xc
    382e:	01f6db13          	srli	s6,a3,0x1f
    3832:	10070b63          	beqz	a4,3948 <__muldf3+0x180>
    3836:	7ff00793          	li	a5,2047
    383a:	04f70363          	beq	a4,a5,3880 <__muldf3+0xb8>
    383e:	01d65793          	srli	a5,a2,0x1d
    3842:	0a0e                	slli	s4,s4,0x3
    3844:	0147ea33          	or	s4,a5,s4
    3848:	c0170713          	addi	a4,a4,-1023 # 7ffc01 <_data_lma+0x7f6911>
    384c:	008007b7          	lui	a5,0x800
    3850:	00fa67b3          	or	a5,s4,a5
    3854:	00361593          	slli	a1,a2,0x3
    3858:	993a                	add	s2,s2,a4
    385a:	4881                	li	a7,0
    385c:	016ac733          	xor	a4,s5,s6
    3860:	46bd                	li	a3,15
    3862:	853a                	mv	a0,a4
    3864:	00190813          	addi	a6,s2,1
    3868:	1736e863          	bltu	a3,s3,39d8 <__muldf3+0x210>
    386c:	00006617          	auipc	a2,0x6
    3870:	86860613          	addi	a2,a2,-1944 # 90d4 <OV2640_RGB565RegTbl+0x1c>
    3874:	098a                	slli	s3,s3,0x2
    3876:	99b2                	add	s3,s3,a2
    3878:	0009a683          	lw	a3,0(s3)
    387c:	96b2                	add	a3,a3,a2
    387e:	8682                	jr	a3
    3880:	00ca67b3          	or	a5,s4,a2
    3884:	7ff90913          	addi	s2,s2,2047
    3888:	12079963          	bnez	a5,39ba <__muldf3+0x1f2>
    388c:	0029e993          	ori	s3,s3,2
    3890:	4581                	li	a1,0
    3892:	4889                	li	a7,2
    3894:	b7e1                	j	385c <__muldf3+0x94>
    3896:	4701                	li	a4,0
    3898:	7ff00793          	li	a5,2047
    389c:	00080437          	lui	s0,0x80
    38a0:	4481                	li	s1,0
    38a2:	0432                	slli	s0,s0,0xc
    38a4:	07d2                	slli	a5,a5,0x14
    38a6:	8031                	srli	s0,s0,0xc
    38a8:	077e                	slli	a4,a4,0x1f
    38aa:	8c5d                	or	s0,s0,a5
    38ac:	8c59                	or	s0,s0,a4
    38ae:	85a2                	mv	a1,s0
    38b0:	50f2                	lw	ra,60(sp)
    38b2:	5462                	lw	s0,56(sp)
    38b4:	8526                	mv	a0,s1
    38b6:	5942                	lw	s2,48(sp)
    38b8:	54d2                	lw	s1,52(sp)
    38ba:	59b2                	lw	s3,44(sp)
    38bc:	5a22                	lw	s4,40(sp)
    38be:	5a92                	lw	s5,36(sp)
    38c0:	5b02                	lw	s6,32(sp)
    38c2:	4bf2                	lw	s7,28(sp)
    38c4:	6121                	addi	sp,sp,64
    38c6:	8082                	ret
    38c8:	855a                	mv	a0,s6
    38ca:	843e                	mv	s0,a5
    38cc:	84ae                	mv	s1,a1
    38ce:	8bc6                	mv	s7,a7
    38d0:	4789                	li	a5,2
    38d2:	0efb8d63          	beq	s7,a5,39cc <__muldf3+0x204>
    38d6:	478d                	li	a5,3
    38d8:	fafb8fe3          	beq	s7,a5,3896 <__muldf3+0xce>
    38dc:	4785                	li	a5,1
    38de:	872a                	mv	a4,a0
    38e0:	38fb9e63          	bne	s7,a5,3c7c <__muldf3+0x4b4>
    38e4:	4781                	li	a5,0
    38e6:	4401                	li	s0,0
    38e8:	4481                	li	s1,0
    38ea:	bf65                	j	38a2 <__muldf3+0xda>
    38ec:	00a9e433          	or	s0,s3,a0
    38f0:	c061                	beqz	s0,39b0 <__muldf3+0x1e8>
    38f2:	c636                	sw	a3,12(sp)
    38f4:	c432                	sw	a2,8(sp)
    38f6:	2a098c63          	beqz	s3,3bae <__muldf3+0x3e6>
    38fa:	854e                	mv	a0,s3
    38fc:	543000ef          	jal	ra,463e <__clzsi2>
    3900:	4622                	lw	a2,8(sp)
    3902:	46b2                	lw	a3,12(sp)
    3904:	87aa                	mv	a5,a0
    3906:	ff550713          	addi	a4,a0,-11
    390a:	4475                	li	s0,29
    390c:	ff878493          	addi	s1,a5,-8 # 7ffff8 <_data_lma+0x7f6d08>
    3910:	8c19                	sub	s0,s0,a4
    3912:	009999b3          	sll	s3,s3,s1
    3916:	008a5433          	srl	s0,s4,s0
    391a:	01346433          	or	s0,s0,s3
    391e:	009a14b3          	sll	s1,s4,s1
    3922:	0146d713          	srli	a4,a3,0x14
    3926:	c0d00913          	li	s2,-1011
    392a:	00c69a13          	slli	s4,a3,0xc
    392e:	7ff77713          	andi	a4,a4,2047
    3932:	40f90933          	sub	s2,s2,a5
    3936:	4981                	li	s3,0
    3938:	4b81                	li	s7,0
    393a:	85b2                	mv	a1,a2
    393c:	00ca5a13          	srli	s4,s4,0xc
    3940:	01f6db13          	srli	s6,a3,0x1f
    3944:	ee0719e3          	bnez	a4,3836 <__muldf3+0x6e>
    3948:	00ca67b3          	or	a5,s4,a2
    394c:	c7b1                	beqz	a5,3998 <__muldf3+0x1d0>
    394e:	220a0f63          	beqz	s4,3b8c <__muldf3+0x3c4>
    3952:	8552                	mv	a0,s4
    3954:	c432                	sw	a2,8(sp)
    3956:	4e9000ef          	jal	ra,463e <__clzsi2>
    395a:	4622                	lw	a2,8(sp)
    395c:	872a                	mv	a4,a0
    395e:	ff550693          	addi	a3,a0,-11
    3962:	47f5                	li	a5,29
    3964:	ff870593          	addi	a1,a4,-8
    3968:	8f95                	sub	a5,a5,a3
    396a:	00ba1a33          	sll	s4,s4,a1
    396e:	00f657b3          	srl	a5,a2,a5
    3972:	0147e7b3          	or	a5,a5,s4
    3976:	00b615b3          	sll	a1,a2,a1
    397a:	40e90933          	sub	s2,s2,a4
    397e:	c0d90913          	addi	s2,s2,-1011
    3982:	4881                	li	a7,0
    3984:	bde1                	j	385c <__muldf3+0x94>
    3986:	00a9e433          	or	s0,s3,a0
    398a:	ec01                	bnez	s0,39a2 <__muldf3+0x1da>
    398c:	49a1                	li	s3,8
    398e:	4481                	li	s1,0
    3990:	7ff00913          	li	s2,2047
    3994:	4b89                	li	s7,2
    3996:	b559                	j	381c <__muldf3+0x54>
    3998:	0019e993          	ori	s3,s3,1
    399c:	4581                	li	a1,0
    399e:	4885                	li	a7,1
    39a0:	bd75                	j	385c <__muldf3+0x94>
    39a2:	844e                	mv	s0,s3
    39a4:	84aa                	mv	s1,a0
    39a6:	49b1                	li	s3,12
    39a8:	7ff00913          	li	s2,2047
    39ac:	4b8d                	li	s7,3
    39ae:	b5bd                	j	381c <__muldf3+0x54>
    39b0:	4991                	li	s3,4
    39b2:	4481                	li	s1,0
    39b4:	4901                	li	s2,0
    39b6:	4b85                	li	s7,1
    39b8:	b595                	j	381c <__muldf3+0x54>
    39ba:	0039e993          	ori	s3,s3,3
    39be:	87d2                	mv	a5,s4
    39c0:	488d                	li	a7,3
    39c2:	bd69                	j	385c <__muldf3+0x94>
    39c4:	4789                	li	a5,2
    39c6:	8556                	mv	a0,s5
    39c8:	f0fb97e3          	bne	s7,a5,38d6 <__muldf3+0x10e>
    39cc:	872a                	mv	a4,a0
    39ce:	7ff00793          	li	a5,2047
    39d2:	4401                	li	s0,0
    39d4:	4481                	li	s1,0
    39d6:	b5f1                	j	38a2 <__muldf3+0xda>
    39d8:	6ec1                	lui	t4,0x10
    39da:	fffe8613          	addi	a2,t4,-1 # ffff <_data_lma+0x6d0f>
    39de:	0104d693          	srli	a3,s1,0x10
    39e2:	0105de13          	srli	t3,a1,0x10
    39e6:	8cf1                	and	s1,s1,a2
    39e8:	8df1                	and	a1,a1,a2
    39ea:	02958633          	mul	a2,a1,s1
    39ee:	02b68333          	mul	t1,a3,a1
    39f2:	01065893          	srli	a7,a2,0x10
    39f6:	029e0533          	mul	a0,t3,s1
    39fa:	951a                	add	a0,a0,t1
    39fc:	98aa                	add	a7,a7,a0
    39fe:	03c682b3          	mul	t0,a3,t3
    3a02:	0068f363          	bgeu	a7,t1,3a08 <__muldf3+0x240>
    3a06:	92f6                	add	t0,t0,t4
    3a08:	6fc1                	lui	t6,0x10
    3a0a:	ffff8313          	addi	t1,t6,-1 # ffff <_data_lma+0x6d0f>
    3a0e:	0067f533          	and	a0,a5,t1
    3a12:	0107d393          	srli	t2,a5,0x10
    3a16:	0068f7b3          	and	a5,a7,t1
    3a1a:	07c2                	slli	a5,a5,0x10
    3a1c:	00667333          	and	t1,a2,t1
    3a20:	933e                	add	t1,t1,a5
    3a22:	02950633          	mul	a2,a0,s1
    3a26:	0108d893          	srli	a7,a7,0x10
    3a2a:	02a687b3          	mul	a5,a3,a0
    3a2e:	01065f13          	srli	t5,a2,0x10
    3a32:	029384b3          	mul	s1,t2,s1
    3a36:	94be                	add	s1,s1,a5
    3a38:	94fa                	add	s1,s1,t5
    3a3a:	02768eb3          	mul	t4,a3,t2
    3a3e:	00f4f363          	bgeu	s1,a5,3a44 <__muldf3+0x27c>
    3a42:	9efe                	add	t4,t4,t6
    3a44:	6a41                	lui	s4,0x10
    3a46:	fffa0793          	addi	a5,s4,-1 # ffff <_data_lma+0x6d0f>
    3a4a:	01045f93          	srli	t6,s0,0x10
    3a4e:	00f476b3          	and	a3,s0,a5
    3a52:	00f4f9b3          	and	s3,s1,a5
    3a56:	8e7d                	and	a2,a2,a5
    3a58:	80c1                	srli	s1,s1,0x10
    3a5a:	02d58433          	mul	s0,a1,a3
    3a5e:	09c2                	slli	s3,s3,0x10
    3a60:	01d48f33          	add	t5,s1,t4
    3a64:	99b2                	add	s3,s3,a2
    3a66:	98ce                	add	a7,a7,s3
    3a68:	02de07b3          	mul	a5,t3,a3
    3a6c:	01045e93          	srli	t4,s0,0x10
    3a70:	02bf85b3          	mul	a1,t6,a1
    3a74:	97ae                	add	a5,a5,a1
    3a76:	9ebe                	add	t4,t4,a5
    3a78:	03fe0e33          	mul	t3,t3,t6
    3a7c:	00bef363          	bgeu	t4,a1,3a82 <__muldf3+0x2ba>
    3a80:	9e52                	add	t3,t3,s4
    3a82:	67c1                	lui	a5,0x10
    3a84:	fff78593          	addi	a1,a5,-1 # ffff <_data_lma+0x6d0f>
    3a88:	00bef633          	and	a2,t4,a1
    3a8c:	8c6d                	and	s0,s0,a1
    3a8e:	0642                	slli	a2,a2,0x10
    3a90:	9622                	add	a2,a2,s0
    3a92:	010ede93          	srli	t4,t4,0x10
    3a96:	02d505b3          	mul	a1,a0,a3
    3a9a:	9e76                	add	t3,t3,t4
    3a9c:	02af8533          	mul	a0,t6,a0
    3aa0:	0105d413          	srli	s0,a1,0x10
    3aa4:	02d386b3          	mul	a3,t2,a3
    3aa8:	96aa                	add	a3,a3,a0
    3aaa:	96a2                	add	a3,a3,s0
    3aac:	03f38fb3          	mul	t6,t2,t6
    3ab0:	00a6f363          	bgeu	a3,a0,3ab6 <__muldf3+0x2ee>
    3ab4:	9fbe                	add	t6,t6,a5
    3ab6:	6541                	lui	a0,0x10
    3ab8:	157d                	addi	a0,a0,-1
    3aba:	00a6f7b3          	and	a5,a3,a0
    3abe:	07c2                	slli	a5,a5,0x10
    3ac0:	8d6d                	and	a0,a0,a1
    3ac2:	97aa                	add	a5,a5,a0
    3ac4:	005885b3          	add	a1,a7,t0
    3ac8:	0135b9b3          	sltu	s3,a1,s3
    3acc:	97fa                	add	a5,a5,t5
    3ace:	95b2                	add	a1,a1,a2
    3ad0:	01378433          	add	s0,a5,s3
    3ad4:	00c5b633          	sltu	a2,a1,a2
    3ad8:	01c40eb3          	add	t4,s0,t3
    3adc:	00ce8533          	add	a0,t4,a2
    3ae0:	01343433          	sltu	s0,s0,s3
    3ae4:	01e7b7b3          	sltu	a5,a5,t5
    3ae8:	8fc1                	or	a5,a5,s0
    3aea:	01cebe33          	sltu	t3,t4,t3
    3aee:	0106d413          	srli	s0,a3,0x10
    3af2:	00c53633          	sltu	a2,a0,a2
    3af6:	943e                	add	s0,s0,a5
    3af8:	00ce6633          	or	a2,t3,a2
    3afc:	00959493          	slli	s1,a1,0x9
    3b00:	9432                	add	s0,s0,a2
    3b02:	947e                	add	s0,s0,t6
    3b04:	0064e4b3          	or	s1,s1,t1
    3b08:	0426                	slli	s0,s0,0x9
    3b0a:	01755693          	srli	a3,a0,0x17
    3b0e:	009034b3          	snez	s1,s1
    3b12:	81dd                	srli	a1,a1,0x17
    3b14:	00951793          	slli	a5,a0,0x9
    3b18:	8ccd                	or	s1,s1,a1
    3b1a:	8c55                	or	s0,s0,a3
    3b1c:	8cdd                	or	s1,s1,a5
    3b1e:	00741793          	slli	a5,s0,0x7
    3b22:	0007db63          	bgez	a5,3b38 <__muldf3+0x370>
    3b26:	0014d793          	srli	a5,s1,0x1
    3b2a:	8885                	andi	s1,s1,1
    3b2c:	01f41693          	slli	a3,s0,0x1f
    3b30:	8cdd                	or	s1,s1,a5
    3b32:	8cd5                	or	s1,s1,a3
    3b34:	8005                	srli	s0,s0,0x1
    3b36:	8942                	mv	s2,a6
    3b38:	3ff90793          	addi	a5,s2,1023
    3b3c:	08f05963          	blez	a5,3bce <__muldf3+0x406>
    3b40:	0074f693          	andi	a3,s1,7
    3b44:	ce81                	beqz	a3,3b5c <__muldf3+0x394>
    3b46:	00f4f693          	andi	a3,s1,15
    3b4a:	4611                	li	a2,4
    3b4c:	00c68863          	beq	a3,a2,3b5c <__muldf3+0x394>
    3b50:	00448693          	addi	a3,s1,4
    3b54:	0096b4b3          	sltu	s1,a3,s1
    3b58:	9426                	add	s0,s0,s1
    3b5a:	84b6                	mv	s1,a3
    3b5c:	00741693          	slli	a3,s0,0x7
    3b60:	0006d863          	bgez	a3,3b70 <__muldf3+0x3a8>
    3b64:	ff0007b7          	lui	a5,0xff000
    3b68:	17fd                	addi	a5,a5,-1
    3b6a:	8c7d                	and	s0,s0,a5
    3b6c:	40090793          	addi	a5,s2,1024
    3b70:	7fe00693          	li	a3,2046
    3b74:	0ef6cf63          	blt	a3,a5,3c72 <__muldf3+0x4aa>
    3b78:	0034d693          	srli	a3,s1,0x3
    3b7c:	01d41493          	slli	s1,s0,0x1d
    3b80:	0426                	slli	s0,s0,0x9
    3b82:	8cd5                	or	s1,s1,a3
    3b84:	8031                	srli	s0,s0,0xc
    3b86:	7ff7f793          	andi	a5,a5,2047
    3b8a:	bb21                	j	38a2 <__muldf3+0xda>
    3b8c:	8532                	mv	a0,a2
    3b8e:	c432                	sw	a2,8(sp)
    3b90:	2af000ef          	jal	ra,463e <__clzsi2>
    3b94:	01550693          	addi	a3,a0,21 # 10015 <_data_lma+0x6d25>
    3b98:	47f1                	li	a5,28
    3b9a:	02050713          	addi	a4,a0,32
    3b9e:	4622                	lw	a2,8(sp)
    3ba0:	dcd7d1e3          	bge	a5,a3,3962 <__muldf3+0x19a>
    3ba4:	1561                	addi	a0,a0,-8
    3ba6:	00a617b3          	sll	a5,a2,a0
    3baa:	4581                	li	a1,0
    3bac:	b3f9                	j	397a <__muldf3+0x1b2>
    3bae:	291000ef          	jal	ra,463e <__clzsi2>
    3bb2:	01550713          	addi	a4,a0,21
    3bb6:	45f1                	li	a1,28
    3bb8:	02050793          	addi	a5,a0,32
    3bbc:	4622                	lw	a2,8(sp)
    3bbe:	46b2                	lw	a3,12(sp)
    3bc0:	d4e5d5e3          	bge	a1,a4,390a <__muldf3+0x142>
    3bc4:	1561                	addi	a0,a0,-8
    3bc6:	00aa1433          	sll	s0,s4,a0
    3bca:	4481                	li	s1,0
    3bcc:	bb99                	j	3922 <__muldf3+0x15a>
    3bce:	4685                	li	a3,1
    3bd0:	8e9d                	sub	a3,a3,a5
    3bd2:	e7b1                	bnez	a5,3c1e <__muldf3+0x456>
    3bd4:	41e90913          	addi	s2,s2,1054
    3bd8:	012497b3          	sll	a5,s1,s2
    3bdc:	00d4d4b3          	srl	s1,s1,a3
    3be0:	01241933          	sll	s2,s0,s2
    3be4:	00f037b3          	snez	a5,a5
    3be8:	009964b3          	or	s1,s2,s1
    3bec:	8cdd                	or	s1,s1,a5
    3bee:	0074f793          	andi	a5,s1,7
    3bf2:	00d456b3          	srl	a3,s0,a3
    3bf6:	cf81                	beqz	a5,3c0e <__muldf3+0x446>
    3bf8:	00f4f793          	andi	a5,s1,15
    3bfc:	4611                	li	a2,4
    3bfe:	00c78863          	beq	a5,a2,3c0e <__muldf3+0x446>
    3c02:	00448793          	addi	a5,s1,4
    3c06:	0097b4b3          	sltu	s1,a5,s1
    3c0a:	96a6                	add	a3,a3,s1
    3c0c:	84be                	mv	s1,a5
    3c0e:	00869793          	slli	a5,a3,0x8
    3c12:	0407d863          	bgez	a5,3c62 <__muldf3+0x49a>
    3c16:	4785                	li	a5,1
    3c18:	4401                	li	s0,0
    3c1a:	4481                	li	s1,0
    3c1c:	b159                	j	38a2 <__muldf3+0xda>
    3c1e:	03800613          	li	a2,56
    3c22:	ccd641e3          	blt	a2,a3,38e4 <__muldf3+0x11c>
    3c26:	467d                	li	a2,31
    3c28:	fad656e3          	bge	a2,a3,3bd4 <__muldf3+0x40c>
    3c2c:	5605                	li	a2,-31
    3c2e:	40f607b3          	sub	a5,a2,a5
    3c32:	02000593          	li	a1,32
    3c36:	00f45633          	srl	a2,s0,a5
    3c3a:	00b68763          	beq	a3,a1,3c48 <__muldf3+0x480>
    3c3e:	43e90913          	addi	s2,s2,1086
    3c42:	012417b3          	sll	a5,s0,s2
    3c46:	8cdd                	or	s1,s1,a5
    3c48:	009034b3          	snez	s1,s1
    3c4c:	8cd1                	or	s1,s1,a2
    3c4e:	0074f693          	andi	a3,s1,7
    3c52:	4401                	li	s0,0
    3c54:	ca99                	beqz	a3,3c6a <__muldf3+0x4a2>
    3c56:	00f4f793          	andi	a5,s1,15
    3c5a:	4611                	li	a2,4
    3c5c:	4681                	li	a3,0
    3c5e:	fac792e3          	bne	a5,a2,3c02 <__muldf3+0x43a>
    3c62:	00969413          	slli	s0,a3,0x9
    3c66:	8031                	srli	s0,s0,0xc
    3c68:	06f6                	slli	a3,a3,0x1d
    3c6a:	808d                	srli	s1,s1,0x3
    3c6c:	8cd5                	or	s1,s1,a3
    3c6e:	4781                	li	a5,0
    3c70:	b90d                	j	38a2 <__muldf3+0xda>
    3c72:	7ff00793          	li	a5,2047
    3c76:	4401                	li	s0,0
    3c78:	4481                	li	s1,0
    3c7a:	b125                	j	38a2 <__muldf3+0xda>
    3c7c:	8942                	mv	s2,a6
    3c7e:	bd6d                	j	3b38 <__muldf3+0x370>

00003c80 <__addsf3>:
    3c80:	1141                	addi	sp,sp,-16
    3c82:	00800737          	lui	a4,0x800
    3c86:	177d                	addi	a4,a4,-1
    3c88:	0175d813          	srli	a6,a1,0x17
    3c8c:	c226                	sw	s1,4(sp)
    3c8e:	01755493          	srli	s1,a0,0x17
    3c92:	00a77333          	and	t1,a4,a0
    3c96:	0ff4f493          	andi	s1,s1,255
    3c9a:	00b776b3          	and	a3,a4,a1
    3c9e:	c04a                	sw	s2,0(sp)
    3ca0:	0ff87813          	andi	a6,a6,255
    3ca4:	01f55913          	srli	s2,a0,0x1f
    3ca8:	c606                	sw	ra,12(sp)
    3caa:	c422                	sw	s0,8(sp)
    3cac:	81fd                	srli	a1,a1,0x1f
    3cae:	879a                	mv	a5,t1
    3cb0:	8526                	mv	a0,s1
    3cb2:	864a                	mv	a2,s2
    3cb4:	00331e13          	slli	t3,t1,0x3
    3cb8:	00369e93          	slli	t4,a3,0x3
    3cbc:	410488b3          	sub	a7,s1,a6
    3cc0:	0eb90a63          	beq	s2,a1,3db4 <__addsf3+0x134>
    3cc4:	0d105063          	blez	a7,3d84 <__addsf3+0x104>
    3cc8:	14080463          	beqz	a6,3e10 <__addsf3+0x190>
    3ccc:	0ff00793          	li	a5,255
    3cd0:	14f48b63          	beq	s1,a5,3e26 <__addsf3+0x1a6>
    3cd4:	040007b7          	lui	a5,0x4000
    3cd8:	00feeeb3          	or	t4,t4,a5
    3cdc:	47ed                	li	a5,27
    3cde:	2917c163          	blt	a5,a7,3f60 <__addsf3+0x2e0>
    3ce2:	02000793          	li	a5,32
    3ce6:	411787b3          	sub	a5,a5,a7
    3cea:	00fe97b3          	sll	a5,t4,a5
    3cee:	011ed8b3          	srl	a7,t4,a7
    3cf2:	00f037b3          	snez	a5,a5
    3cf6:	00f8e7b3          	or	a5,a7,a5
    3cfa:	40fe07b3          	sub	a5,t3,a5
    3cfe:	00579713          	slli	a4,a5,0x5
    3d02:	18075e63          	bgez	a4,3e9e <__addsf3+0x21e>
    3d06:	04000437          	lui	s0,0x4000
    3d0a:	147d                	addi	s0,s0,-1
    3d0c:	8c7d                	and	s0,s0,a5
    3d0e:	8522                	mv	a0,s0
    3d10:	12f000ef          	jal	ra,463e <__clzsi2>
    3d14:	156d                	addi	a0,a0,-5
    3d16:	00a417b3          	sll	a5,s0,a0
    3d1a:	1a954863          	blt	a0,s1,3eca <__addsf3+0x24a>
    3d1e:	8d05                	sub	a0,a0,s1
    3d20:	00150413          	addi	s0,a0,1
    3d24:	02000713          	li	a4,32
    3d28:	8f01                	sub	a4,a4,s0
    3d2a:	00e79733          	sll	a4,a5,a4
    3d2e:	00e03733          	snez	a4,a4
    3d32:	0087d7b3          	srl	a5,a5,s0
    3d36:	8fd9                	or	a5,a5,a4
    3d38:	4481                	li	s1,0
    3d3a:	0077f713          	andi	a4,a5,7
    3d3e:	c719                	beqz	a4,3d4c <__addsf3+0xcc>
    3d40:	00f7f713          	andi	a4,a5,15
    3d44:	4691                	li	a3,4
    3d46:	00d70363          	beq	a4,a3,3d4c <__addsf3+0xcc>
    3d4a:	0791                	addi	a5,a5,4
    3d4c:	00579713          	slli	a4,a5,0x5
    3d50:	14075b63          	bgez	a4,3ea6 <__addsf3+0x226>
    3d54:	0485                	addi	s1,s1,1
    3d56:	0ff00713          	li	a4,255
    3d5a:	864a                	mv	a2,s2
    3d5c:	16e48363          	beq	s1,a4,3ec2 <__addsf3+0x242>
    3d60:	079a                	slli	a5,a5,0x6
    3d62:	83a5                	srli	a5,a5,0x9
    3d64:	0ff4f513          	andi	a0,s1,255
    3d68:	40b2                	lw	ra,12(sp)
    3d6a:	4422                	lw	s0,8(sp)
    3d6c:	07a6                	slli	a5,a5,0x9
    3d6e:	01751493          	slli	s1,a0,0x17
    3d72:	0097d513          	srli	a0,a5,0x9
    3d76:	8d45                	or	a0,a0,s1
    3d78:	067e                	slli	a2,a2,0x1f
    3d7a:	4492                	lw	s1,4(sp)
    3d7c:	4902                	lw	s2,0(sp)
    3d7e:	8d51                	or	a0,a0,a2
    3d80:	0141                	addi	sp,sp,16
    3d82:	8082                	ret
    3d84:	0a089963          	bnez	a7,3e36 <__addsf3+0x1b6>
    3d88:	00148713          	addi	a4,s1,1
    3d8c:	0fe77713          	andi	a4,a4,254
    3d90:	14071763          	bnez	a4,3ede <__addsf3+0x25e>
    3d94:	22049063          	bnez	s1,3fb4 <__addsf3+0x334>
    3d98:	1e0e0d63          	beqz	t3,3f92 <__addsf3+0x312>
    3d9c:	fc0e86e3          	beqz	t4,3d68 <__addsf3+0xe8>
    3da0:	41de07b3          	sub	a5,t3,t4
    3da4:	00579713          	slli	a4,a5,0x5
    3da8:	22075063          	bgez	a4,3fc8 <__addsf3+0x348>
    3dac:	41ce87b3          	sub	a5,t4,t3
    3db0:	892e                	mv	s2,a1
    3db2:	b761                	j	3d3a <__addsf3+0xba>
    3db4:	0b105c63          	blez	a7,3e6c <__addsf3+0x1ec>
    3db8:	08080e63          	beqz	a6,3e54 <__addsf3+0x1d4>
    3dbc:	0ff00793          	li	a5,255
    3dc0:	06f48363          	beq	s1,a5,3e26 <__addsf3+0x1a6>
    3dc4:	040007b7          	lui	a5,0x4000
    3dc8:	00feeeb3          	or	t4,t4,a5
    3dcc:	47ed                	li	a5,27
    3dce:	1f17c963          	blt	a5,a7,3fc0 <__addsf3+0x340>
    3dd2:	02000793          	li	a5,32
    3dd6:	411787b3          	sub	a5,a5,a7
    3dda:	00fe97b3          	sll	a5,t4,a5
    3dde:	011ed8b3          	srl	a7,t4,a7
    3de2:	00f037b3          	snez	a5,a5
    3de6:	00f8e7b3          	or	a5,a7,a5
    3dea:	97f2                	add	a5,a5,t3
    3dec:	00579713          	slli	a4,a5,0x5
    3df0:	0a075763          	bgez	a4,3e9e <__addsf3+0x21e>
    3df4:	0485                	addi	s1,s1,1
    3df6:	0ff00713          	li	a4,255
    3dfa:	0ce48463          	beq	s1,a4,3ec2 <__addsf3+0x242>
    3dfe:	7e0006b7          	lui	a3,0x7e000
    3e02:	0017d713          	srli	a4,a5,0x1
    3e06:	16fd                	addi	a3,a3,-1
    3e08:	8b85                	andi	a5,a5,1
    3e0a:	8f75                	and	a4,a4,a3
    3e0c:	8fd9                	or	a5,a5,a4
    3e0e:	b735                	j	3d3a <__addsf3+0xba>
    3e10:	080e8d63          	beqz	t4,3eaa <__addsf3+0x22a>
    3e14:	18fd                	addi	a7,a7,-1
    3e16:	41de07b3          	sub	a5,t3,t4
    3e1a:	ee0882e3          	beqz	a7,3cfe <__addsf3+0x7e>
    3e1e:	0ff00793          	li	a5,255
    3e22:	eaf49de3          	bne	s1,a5,3cdc <__addsf3+0x5c>
    3e26:	08030d63          	beqz	t1,3ec0 <__addsf3+0x240>
    3e2a:	4601                	li	a2,0
    3e2c:	0ff00513          	li	a0,255
    3e30:	004007b7          	lui	a5,0x400
    3e34:	bf15                	j	3d68 <__addsf3+0xe8>
    3e36:	40980733          	sub	a4,a6,s1
    3e3a:	e8ed                	bnez	s1,3f2c <__addsf3+0x2ac>
    3e3c:	140e0263          	beqz	t3,3f80 <__addsf3+0x300>
    3e40:	177d                	addi	a4,a4,-1
    3e42:	18070863          	beqz	a4,3fd2 <__addsf3+0x352>
    3e46:	0ff00793          	li	a5,255
    3e4a:	0ef81963          	bne	a6,a5,3f3c <__addsf3+0x2bc>
    3e4e:	892e                	mv	s2,a1
    3e50:	8336                	mv	t1,a3
    3e52:	bfd1                	j	3e26 <__addsf3+0x1a6>
    3e54:	040e8b63          	beqz	t4,3eaa <__addsf3+0x22a>
    3e58:	18fd                	addi	a7,a7,-1
    3e5a:	01de07b3          	add	a5,t3,t4
    3e5e:	f80887e3          	beqz	a7,3dec <__addsf3+0x16c>
    3e62:	0ff00793          	li	a5,255
    3e66:	f6f493e3          	bne	s1,a5,3dcc <__addsf3+0x14c>
    3e6a:	bf75                	j	3e26 <__addsf3+0x1a6>
    3e6c:	08089563          	bnez	a7,3ef6 <__addsf3+0x276>
    3e70:	0485                	addi	s1,s1,1
    3e72:	0fe4f713          	andi	a4,s1,254
    3e76:	12071363          	bnez	a4,3f9c <__addsf3+0x31c>
    3e7a:	10051763          	bnez	a0,3f88 <__addsf3+0x308>
    3e7e:	140e0f63          	beqz	t3,3fdc <__addsf3+0x35c>
    3e82:	ee0e83e3          	beqz	t4,3d68 <__addsf3+0xe8>
    3e86:	01de07b3          	add	a5,t3,t4
    3e8a:	00579713          	slli	a4,a5,0x5
    3e8e:	4481                	li	s1,0
    3e90:	00075763          	bgez	a4,3e9e <__addsf3+0x21e>
    3e94:	fc000737          	lui	a4,0xfc000
    3e98:	177d                	addi	a4,a4,-1
    3e9a:	8ff9                	and	a5,a5,a4
    3e9c:	4485                	li	s1,1
    3e9e:	0077f713          	andi	a4,a5,7
    3ea2:	e8071fe3          	bnez	a4,3d40 <__addsf3+0xc0>
    3ea6:	0037d313          	srli	t1,a5,0x3
    3eaa:	0ff00793          	li	a5,255
    3eae:	f6f48ce3          	beq	s1,a5,3e26 <__addsf3+0x1a6>
    3eb2:	00931793          	slli	a5,t1,0x9
    3eb6:	83a5                	srli	a5,a5,0x9
    3eb8:	0ff4f513          	andi	a0,s1,255
    3ebc:	864a                	mv	a2,s2
    3ebe:	b56d                	j	3d68 <__addsf3+0xe8>
    3ec0:	864a                	mv	a2,s2
    3ec2:	0ff00513          	li	a0,255
    3ec6:	4781                	li	a5,0
    3ec8:	b545                	j	3d68 <__addsf3+0xe8>
    3eca:	fc000737          	lui	a4,0xfc000
    3ece:	177d                	addi	a4,a4,-1
    3ed0:	8ff9                	and	a5,a5,a4
    3ed2:	0077f713          	andi	a4,a5,7
    3ed6:	8c89                	sub	s1,s1,a0
    3ed8:	e60714e3          	bnez	a4,3d40 <__addsf3+0xc0>
    3edc:	b7e9                	j	3ea6 <__addsf3+0x226>
    3ede:	41de0433          	sub	s0,t3,t4
    3ee2:	00541793          	slli	a5,s0,0x5
    3ee6:	0c07c363          	bltz	a5,3fac <__addsf3+0x32c>
    3eea:	e20412e3          	bnez	s0,3d0e <__addsf3+0x8e>
    3eee:	4601                	li	a2,0
    3ef0:	4501                	li	a0,0
    3ef2:	4781                	li	a5,0
    3ef4:	bd95                	j	3d68 <__addsf3+0xe8>
    3ef6:	40980733          	sub	a4,a6,s1
    3efa:	c4ad                	beqz	s1,3f64 <__addsf3+0x2e4>
    3efc:	0ff00793          	li	a5,255
    3f00:	f4f808e3          	beq	a6,a5,3e50 <__addsf3+0x1d0>
    3f04:	040007b7          	lui	a5,0x4000
    3f08:	00fe6e33          	or	t3,t3,a5
    3f0c:	47ed                	li	a5,27
    3f0e:	0ce7cc63          	blt	a5,a4,3fe6 <__addsf3+0x366>
    3f12:	02000793          	li	a5,32
    3f16:	8f99                	sub	a5,a5,a4
    3f18:	00fe17b3          	sll	a5,t3,a5
    3f1c:	00ee5733          	srl	a4,t3,a4
    3f20:	00f037b3          	snez	a5,a5
    3f24:	8fd9                	or	a5,a5,a4
    3f26:	97f6                	add	a5,a5,t4
    3f28:	84c2                	mv	s1,a6
    3f2a:	b5c9                	j	3dec <__addsf3+0x16c>
    3f2c:	0ff00793          	li	a5,255
    3f30:	f0f80fe3          	beq	a6,a5,3e4e <__addsf3+0x1ce>
    3f34:	040007b7          	lui	a5,0x4000
    3f38:	00fe6e33          	or	t3,t3,a5
    3f3c:	47ed                	li	a5,27
    3f3e:	08e7c363          	blt	a5,a4,3fc4 <__addsf3+0x344>
    3f42:	02000693          	li	a3,32
    3f46:	8e99                	sub	a3,a3,a4
    3f48:	00de16b3          	sll	a3,t3,a3
    3f4c:	00ee57b3          	srl	a5,t3,a4
    3f50:	00d03733          	snez	a4,a3
    3f54:	8fd9                	or	a5,a5,a4
    3f56:	40fe87b3          	sub	a5,t4,a5
    3f5a:	84c2                	mv	s1,a6
    3f5c:	892e                	mv	s2,a1
    3f5e:	b345                	j	3cfe <__addsf3+0x7e>
    3f60:	4785                	li	a5,1
    3f62:	bb61                	j	3cfa <__addsf3+0x7a>
    3f64:	060e0e63          	beqz	t3,3fe0 <__addsf3+0x360>
    3f68:	177d                	addi	a4,a4,-1
    3f6a:	01de07b3          	add	a5,t3,t4
    3f6e:	84c2                	mv	s1,a6
    3f70:	e6070ee3          	beqz	a4,3dec <__addsf3+0x16c>
    3f74:	0ff00793          	li	a5,255
    3f78:	f8f81ae3          	bne	a6,a5,3f0c <__addsf3+0x28c>
    3f7c:	8336                	mv	t1,a3
    3f7e:	b565                	j	3e26 <__addsf3+0x1a6>
    3f80:	8336                	mv	t1,a3
    3f82:	84c2                	mv	s1,a6
    3f84:	892e                	mv	s2,a1
    3f86:	b715                	j	3eaa <__addsf3+0x22a>
    3f88:	ec0e04e3          	beqz	t3,3e50 <__addsf3+0x1d0>
    3f8c:	e80e8de3          	beqz	t4,3e26 <__addsf3+0x1a6>
    3f90:	bd69                	j	3e2a <__addsf3+0x1aa>
    3f92:	020e8d63          	beqz	t4,3fcc <__addsf3+0x34c>
    3f96:	862e                	mv	a2,a1
    3f98:	87b6                	mv	a5,a3
    3f9a:	b3f9                	j	3d68 <__addsf3+0xe8>
    3f9c:	0ff00793          	li	a5,255
    3fa0:	f2f481e3          	beq	s1,a5,3ec2 <__addsf3+0x242>
    3fa4:	01de07b3          	add	a5,t3,t4
    3fa8:	8385                	srli	a5,a5,0x1
    3faa:	bdd5                	j	3e9e <__addsf3+0x21e>
    3fac:	41ce8433          	sub	s0,t4,t3
    3fb0:	892e                	mv	s2,a1
    3fb2:	bbb1                	j	3d0e <__addsf3+0x8e>
    3fb4:	fc0e1ce3          	bnez	t3,3f8c <__addsf3+0x30c>
    3fb8:	e60e89e3          	beqz	t4,3e2a <__addsf3+0x1aa>
    3fbc:	892e                	mv	s2,a1
    3fbe:	bd49                	j	3e50 <__addsf3+0x1d0>
    3fc0:	4785                	li	a5,1
    3fc2:	b525                	j	3dea <__addsf3+0x16a>
    3fc4:	4785                	li	a5,1
    3fc6:	bf41                	j	3f56 <__addsf3+0x2d6>
    3fc8:	ec079be3          	bnez	a5,3e9e <__addsf3+0x21e>
    3fcc:	4601                	li	a2,0
    3fce:	4781                	li	a5,0
    3fd0:	bb61                	j	3d68 <__addsf3+0xe8>
    3fd2:	41ce87b3          	sub	a5,t4,t3
    3fd6:	84c2                	mv	s1,a6
    3fd8:	892e                	mv	s2,a1
    3fda:	b315                	j	3cfe <__addsf3+0x7e>
    3fdc:	87b6                	mv	a5,a3
    3fde:	b369                	j	3d68 <__addsf3+0xe8>
    3fe0:	8336                	mv	t1,a3
    3fe2:	84c2                	mv	s1,a6
    3fe4:	b5d9                	j	3eaa <__addsf3+0x22a>
    3fe6:	4785                	li	a5,1
    3fe8:	bf3d                	j	3f26 <__addsf3+0x2a6>

00003fea <__gesf2>:
    3fea:	01755693          	srli	a3,a0,0x17
    3fee:	008007b7          	lui	a5,0x800
    3ff2:	17fd                	addi	a5,a5,-1
    3ff4:	0175d613          	srli	a2,a1,0x17
    3ff8:	0ff6f693          	andi	a3,a3,255
    3ffc:	0ff00813          	li	a6,255
    4000:	00a7f8b3          	and	a7,a5,a0
    4004:	01f55713          	srli	a4,a0,0x1f
    4008:	8fed                	and	a5,a5,a1
    400a:	0ff67613          	andi	a2,a2,255
    400e:	81fd                	srli	a1,a1,0x1f
    4010:	03068163          	beq	a3,a6,4032 <__gesf2+0x48>
    4014:	01060c63          	beq	a2,a6,402c <__gesf2+0x42>
    4018:	e28d                	bnez	a3,403a <__gesf2+0x50>
    401a:	e211                	bnez	a2,401e <__gesf2+0x34>
    401c:	c3b1                	beqz	a5,4060 <__gesf2+0x76>
    401e:	02088e63          	beqz	a7,405a <__gesf2+0x70>
    4022:	04b70563          	beq	a4,a1,406c <__gesf2+0x82>
    4026:	4505                	li	a0,1
    4028:	e71d                	bnez	a4,4056 <__gesf2+0x6c>
    402a:	8082                	ret
    402c:	d7f5                	beqz	a5,4018 <__gesf2+0x2e>
    402e:	5579                	li	a0,-2
    4030:	8082                	ret
    4032:	fe089ee3          	bnez	a7,402e <__gesf2+0x44>
    4036:	02d60963          	beq	a2,a3,4068 <__gesf2+0x7e>
    403a:	e211                	bnez	a2,403e <__gesf2+0x54>
    403c:	d7ed                	beqz	a5,4026 <__gesf2+0x3c>
    403e:	feb714e3          	bne	a4,a1,4026 <__gesf2+0x3c>
    4042:	fed642e3          	blt	a2,a3,4026 <__gesf2+0x3c>
    4046:	00c6c763          	blt	a3,a2,4054 <__gesf2+0x6a>
    404a:	fd17eee3          	bltu	a5,a7,4026 <__gesf2+0x3c>
    404e:	4501                	li	a0,0
    4050:	fcf8fde3          	bgeu	a7,a5,402a <__gesf2+0x40>
    4054:	e701                	bnez	a4,405c <__gesf2+0x72>
    4056:	557d                	li	a0,-1
    4058:	8082                	ret
    405a:	ddf5                	beqz	a1,4056 <__gesf2+0x6c>
    405c:	4505                	li	a0,1
    405e:	8082                	ret
    4060:	4501                	li	a0,0
    4062:	fc0892e3          	bnez	a7,4026 <__gesf2+0x3c>
    4066:	8082                	ret
    4068:	dbf9                	beqz	a5,403e <__gesf2+0x54>
    406a:	b7d1                	j	402e <__gesf2+0x44>
    406c:	4681                	li	a3,0
    406e:	bfe1                	j	4046 <__gesf2+0x5c>

00004070 <__mulsf3>:
    4070:	7179                	addi	sp,sp,-48
    4072:	d422                	sw	s0,40(sp)
    4074:	01755413          	srli	s0,a0,0x17
    4078:	ce4e                	sw	s3,28(sp)
    407a:	cc52                	sw	s4,24(sp)
    407c:	00951993          	slli	s3,a0,0x9
    4080:	d606                	sw	ra,44(sp)
    4082:	d226                	sw	s1,36(sp)
    4084:	d04a                	sw	s2,32(sp)
    4086:	ca56                	sw	s5,20(sp)
    4088:	c85a                	sw	s6,16(sp)
    408a:	0ff47413          	andi	s0,s0,255
    408e:	0099d993          	srli	s3,s3,0x9
    4092:	01f55a13          	srli	s4,a0,0x1f
    4096:	c469                	beqz	s0,4160 <__mulsf3+0xf0>
    4098:	0ff00793          	li	a5,255
    409c:	0ef40863          	beq	s0,a5,418c <__mulsf3+0x11c>
    40a0:	00399793          	slli	a5,s3,0x3
    40a4:	04000737          	lui	a4,0x4000
    40a8:	00e7e9b3          	or	s3,a5,a4
    40ac:	f8140413          	addi	s0,s0,-127 # 3ffff81 <_data_lma+0x3ff6c91>
    40b0:	4481                	li	s1,0
    40b2:	4b01                	li	s6,0
    40b4:	0175d713          	srli	a4,a1,0x17
    40b8:	00959a93          	slli	s5,a1,0x9
    40bc:	0ff77713          	andi	a4,a4,255
    40c0:	009ada93          	srli	s5,s5,0x9
    40c4:	01f5d913          	srli	s2,a1,0x1f
    40c8:	cf45                	beqz	a4,4180 <__mulsf3+0x110>
    40ca:	0ff00793          	li	a5,255
    40ce:	02f70c63          	beq	a4,a5,4106 <__mulsf3+0x96>
    40d2:	0a8e                	slli	s5,s5,0x3
    40d4:	f8170713          	addi	a4,a4,-127 # 3ffff81 <_data_lma+0x3ff6c91>
    40d8:	040007b7          	lui	a5,0x4000
    40dc:	00faeab3          	or	s5,s5,a5
    40e0:	943a                	add	s0,s0,a4
    40e2:	4601                	li	a2,0
    40e4:	012a4533          	xor	a0,s4,s2
    40e8:	47bd                	li	a5,15
    40ea:	86aa                	mv	a3,a0
    40ec:	00140593          	addi	a1,s0,1
    40f0:	1097e063          	bltu	a5,s1,41f0 <__mulsf3+0x180>
    40f4:	00005717          	auipc	a4,0x5
    40f8:	02070713          	addi	a4,a4,32 # 9114 <OV2640_RGB565RegTbl+0x5c>
    40fc:	048a                	slli	s1,s1,0x2
    40fe:	94ba                	add	s1,s1,a4
    4100:	409c                	lw	a5,0(s1)
    4102:	97ba                	add	a5,a5,a4
    4104:	8782                	jr	a5
    4106:	0ff40413          	addi	s0,s0,255
    410a:	0c0a9663          	bnez	s5,41d6 <__mulsf3+0x166>
    410e:	0024e493          	ori	s1,s1,2
    4112:	4609                	li	a2,2
    4114:	bfc1                	j	40e4 <__mulsf3+0x74>
    4116:	4501                	li	a0,0
    4118:	0ff00713          	li	a4,255
    411c:	004007b7          	lui	a5,0x400
    4120:	50b2                	lw	ra,44(sp)
    4122:	5422                	lw	s0,40(sp)
    4124:	07a6                	slli	a5,a5,0x9
    4126:	075e                	slli	a4,a4,0x17
    4128:	83a5                	srli	a5,a5,0x9
    412a:	057e                	slli	a0,a0,0x1f
    412c:	8fd9                	or	a5,a5,a4
    412e:	5492                	lw	s1,36(sp)
    4130:	5902                	lw	s2,32(sp)
    4132:	49f2                	lw	s3,28(sp)
    4134:	4a62                	lw	s4,24(sp)
    4136:	4ad2                	lw	s5,20(sp)
    4138:	4b42                	lw	s6,16(sp)
    413a:	8d5d                	or	a0,a0,a5
    413c:	6145                	addi	sp,sp,48
    413e:	8082                	ret
    4140:	86ca                	mv	a3,s2
    4142:	89d6                	mv	s3,s5
    4144:	8b32                	mv	s6,a2
    4146:	4789                	li	a5,2
    4148:	08fb0f63          	beq	s6,a5,41e6 <__mulsf3+0x176>
    414c:	478d                	li	a5,3
    414e:	fcfb04e3          	beq	s6,a5,4116 <__mulsf3+0xa6>
    4152:	4785                	li	a5,1
    4154:	8536                	mv	a0,a3
    4156:	1afb1063          	bne	s6,a5,42f6 <__mulsf3+0x286>
    415a:	4701                	li	a4,0
    415c:	4781                	li	a5,0
    415e:	b7c9                	j	4120 <__mulsf3+0xb0>
    4160:	04099d63          	bnez	s3,41ba <__mulsf3+0x14a>
    4164:	0175d713          	srli	a4,a1,0x17
    4168:	00959a93          	slli	s5,a1,0x9
    416c:	0ff77713          	andi	a4,a4,255
    4170:	4491                	li	s1,4
    4172:	4401                	li	s0,0
    4174:	4b05                	li	s6,1
    4176:	009ada93          	srli	s5,s5,0x9
    417a:	01f5d913          	srli	s2,a1,0x1f
    417e:	f731                	bnez	a4,40ca <__mulsf3+0x5a>
    4180:	000a9d63          	bnez	s5,419a <__mulsf3+0x12a>
    4184:	0014e493          	ori	s1,s1,1
    4188:	4605                	li	a2,1
    418a:	bfa9                	j	40e4 <__mulsf3+0x74>
    418c:	02099263          	bnez	s3,41b0 <__mulsf3+0x140>
    4190:	44a1                	li	s1,8
    4192:	0ff00413          	li	s0,255
    4196:	4b09                	li	s6,2
    4198:	bf31                	j	40b4 <__mulsf3+0x44>
    419a:	8556                	mv	a0,s5
    419c:	214d                	jal	463e <__clzsi2>
    419e:	ffb50793          	addi	a5,a0,-5
    41a2:	8c09                	sub	s0,s0,a0
    41a4:	00fa9ab3          	sll	s5,s5,a5
    41a8:	f8a40413          	addi	s0,s0,-118
    41ac:	4601                	li	a2,0
    41ae:	bf1d                	j	40e4 <__mulsf3+0x74>
    41b0:	44b1                	li	s1,12
    41b2:	0ff00413          	li	s0,255
    41b6:	4b0d                	li	s6,3
    41b8:	bdf5                	j	40b4 <__mulsf3+0x44>
    41ba:	854e                	mv	a0,s3
    41bc:	c62e                	sw	a1,12(sp)
    41be:	2141                	jal	463e <__clzsi2>
    41c0:	ffb50793          	addi	a5,a0,-5
    41c4:	f8a00413          	li	s0,-118
    41c8:	00f999b3          	sll	s3,s3,a5
    41cc:	8c09                	sub	s0,s0,a0
    41ce:	4481                	li	s1,0
    41d0:	4b01                	li	s6,0
    41d2:	45b2                	lw	a1,12(sp)
    41d4:	b5c5                	j	40b4 <__mulsf3+0x44>
    41d6:	0034e493          	ori	s1,s1,3
    41da:	460d                	li	a2,3
    41dc:	b721                	j	40e4 <__mulsf3+0x74>
    41de:	4789                	li	a5,2
    41e0:	86d2                	mv	a3,s4
    41e2:	f6fb15e3          	bne	s6,a5,414c <__mulsf3+0xdc>
    41e6:	8536                	mv	a0,a3
    41e8:	0ff00713          	li	a4,255
    41ec:	4781                	li	a5,0
    41ee:	bf0d                	j	4120 <__mulsf3+0xb0>
    41f0:	6341                	lui	t1,0x10
    41f2:	fff30693          	addi	a3,t1,-1 # ffff <_data_lma+0x6d0f>
    41f6:	0109d613          	srli	a2,s3,0x10
    41fa:	010ad893          	srli	a7,s5,0x10
    41fe:	00d9f7b3          	and	a5,s3,a3
    4202:	00dafab3          	and	s5,s5,a3
    4206:	03578833          	mul	a6,a5,s5
    420a:	02f889b3          	mul	s3,a7,a5
    420e:	01085713          	srli	a4,a6,0x10
    4212:	03560ab3          	mul	s5,a2,s5
    4216:	99d6                	add	s3,s3,s5
    4218:	974e                	add	a4,a4,s3
    421a:	03160633          	mul	a2,a2,a7
    421e:	01577363          	bgeu	a4,s5,4224 <__mulsf3+0x1b4>
    4222:	961a                	add	a2,a2,t1
    4224:	67c1                	lui	a5,0x10
    4226:	17fd                	addi	a5,a5,-1
    4228:	00f776b3          	and	a3,a4,a5
    422c:	00f87833          	and	a6,a6,a5
    4230:	06c2                	slli	a3,a3,0x10
    4232:	96c2                	add	a3,a3,a6
    4234:	00669993          	slli	s3,a3,0x6
    4238:	01075793          	srli	a5,a4,0x10
    423c:	013039b3          	snez	s3,s3
    4240:	82e9                	srli	a3,a3,0x1a
    4242:	97b2                	add	a5,a5,a2
    4244:	079a                	slli	a5,a5,0x6
    4246:	00d9e6b3          	or	a3,s3,a3
    424a:	00d7e9b3          	or	s3,a5,a3
    424e:	00499793          	slli	a5,s3,0x4
    4252:	0007d963          	bgez	a5,4264 <__mulsf3+0x1f4>
    4256:	0019d713          	srli	a4,s3,0x1
    425a:	0019f793          	andi	a5,s3,1
    425e:	00f769b3          	or	s3,a4,a5
    4262:	842e                	mv	s0,a1
    4264:	07f40713          	addi	a4,s0,127
    4268:	04e05063          	blez	a4,42a8 <__mulsf3+0x238>
    426c:	0079f793          	andi	a5,s3,7
    4270:	c799                	beqz	a5,427e <__mulsf3+0x20e>
    4272:	00f9f793          	andi	a5,s3,15
    4276:	4691                	li	a3,4
    4278:	00d78363          	beq	a5,a3,427e <__mulsf3+0x20e>
    427c:	0991                	addi	s3,s3,4
    427e:	00499793          	slli	a5,s3,0x4
    4282:	0007d963          	bgez	a5,4294 <__mulsf3+0x224>
    4286:	f80007b7          	lui	a5,0xf8000
    428a:	17fd                	addi	a5,a5,-1
    428c:	00f9f9b3          	and	s3,s3,a5
    4290:	08040713          	addi	a4,s0,128
    4294:	0fe00793          	li	a5,254
    4298:	04e7cb63          	blt	a5,a4,42ee <__mulsf3+0x27e>
    429c:	00699793          	slli	a5,s3,0x6
    42a0:	83a5                	srli	a5,a5,0x9
    42a2:	0ff77713          	andi	a4,a4,255
    42a6:	bdad                	j	4120 <__mulsf3+0xb0>
    42a8:	4785                	li	a5,1
    42aa:	40e786b3          	sub	a3,a5,a4
    42ae:	c711                	beqz	a4,42ba <__mulsf3+0x24a>
    42b0:	466d                	li	a2,27
    42b2:	4701                	li	a4,0
    42b4:	4781                	li	a5,0
    42b6:	e6d645e3          	blt	a2,a3,4120 <__mulsf3+0xb0>
    42ba:	09e40713          	addi	a4,s0,158
    42be:	00e99733          	sll	a4,s3,a4
    42c2:	00e03733          	snez	a4,a4
    42c6:	00d9d7b3          	srl	a5,s3,a3
    42ca:	8fd9                	or	a5,a5,a4
    42cc:	0077f713          	andi	a4,a5,7
    42d0:	c719                	beqz	a4,42de <__mulsf3+0x26e>
    42d2:	00f7f713          	andi	a4,a5,15
    42d6:	4691                	li	a3,4
    42d8:	00d70363          	beq	a4,a3,42de <__mulsf3+0x26e>
    42dc:	0791                	addi	a5,a5,4
    42de:	00579713          	slli	a4,a5,0x5
    42e2:	00074c63          	bltz	a4,42fa <__mulsf3+0x28a>
    42e6:	079a                	slli	a5,a5,0x6
    42e8:	83a5                	srli	a5,a5,0x9
    42ea:	4701                	li	a4,0
    42ec:	bd15                	j	4120 <__mulsf3+0xb0>
    42ee:	0ff00713          	li	a4,255
    42f2:	4781                	li	a5,0
    42f4:	b535                	j	4120 <__mulsf3+0xb0>
    42f6:	842e                	mv	s0,a1
    42f8:	b7b5                	j	4264 <__mulsf3+0x1f4>
    42fa:	4705                	li	a4,1
    42fc:	4781                	li	a5,0
    42fe:	b50d                	j	4120 <__mulsf3+0xb0>

00004300 <__fixsfsi>:
    4300:	00800637          	lui	a2,0x800
    4304:	01755713          	srli	a4,a0,0x17
    4308:	fff60793          	addi	a5,a2,-1 # 7fffff <_data_lma+0x7f6d0f>
    430c:	0ff77713          	andi	a4,a4,255
    4310:	07e00593          	li	a1,126
    4314:	00a7f6b3          	and	a3,a5,a0
    4318:	01f55793          	srli	a5,a0,0x1f
    431c:	00e5fc63          	bgeu	a1,a4,4334 <__fixsfsi+0x34>
    4320:	09d00593          	li	a1,157
    4324:	00e5fa63          	bgeu	a1,a4,4338 <__fixsfsi+0x38>
    4328:	80000537          	lui	a0,0x80000
    432c:	fff54513          	not	a0,a0
    4330:	953e                	add	a0,a0,a5
    4332:	8082                	ret
    4334:	4501                	li	a0,0
    4336:	8082                	ret
    4338:	09500593          	li	a1,149
    433c:	8ed1                	or	a3,a3,a2
    433e:	00e5cd63          	blt	a1,a4,4358 <__fixsfsi+0x58>
    4342:	09600613          	li	a2,150
    4346:	40e60733          	sub	a4,a2,a4
    434a:	00e6d733          	srl	a4,a3,a4
    434e:	40e00533          	neg	a0,a4
    4352:	f3f5                	bnez	a5,4336 <__fixsfsi+0x36>
    4354:	853a                	mv	a0,a4
    4356:	8082                	ret
    4358:	f6a70713          	addi	a4,a4,-150
    435c:	00e69733          	sll	a4,a3,a4
    4360:	b7fd                	j	434e <__fixsfsi+0x4e>

00004362 <__floatsisf>:
    4362:	1141                	addi	sp,sp,-16
    4364:	c606                	sw	ra,12(sp)
    4366:	c422                	sw	s0,8(sp)
    4368:	c226                	sw	s1,4(sp)
    436a:	cd0d                	beqz	a0,43a4 <__floatsisf+0x42>
    436c:	41f55793          	srai	a5,a0,0x1f
    4370:	00a7c433          	xor	s0,a5,a0
    4374:	8c1d                	sub	s0,s0,a5
    4376:	84aa                	mv	s1,a0
    4378:	8522                	mv	a0,s0
    437a:	24d1                	jal	463e <__clzsi2>
    437c:	09e00793          	li	a5,158
    4380:	40a78733          	sub	a4,a5,a0
    4384:	09600793          	li	a5,150
    4388:	80fd                	srli	s1,s1,0x1f
    438a:	02e7cc63          	blt	a5,a4,43c2 <__floatsisf+0x60>
    438e:	46a1                	li	a3,8
    4390:	0ff77793          	andi	a5,a4,255
    4394:	00a6d563          	bge	a3,a0,439e <__floatsisf+0x3c>
    4398:	1561                	addi	a0,a0,-8
    439a:	00a41433          	sll	s0,s0,a0
    439e:	0426                	slli	s0,s0,0x9
    43a0:	8025                	srli	s0,s0,0x9
    43a2:	a021                	j	43aa <__floatsisf+0x48>
    43a4:	4481                	li	s1,0
    43a6:	4781                	li	a5,0
    43a8:	4401                	li	s0,0
    43aa:	0426                	slli	s0,s0,0x9
    43ac:	00945513          	srli	a0,s0,0x9
    43b0:	40b2                	lw	ra,12(sp)
    43b2:	4422                	lw	s0,8(sp)
    43b4:	07de                	slli	a5,a5,0x17
    43b6:	04fe                	slli	s1,s1,0x1f
    43b8:	8d5d                	or	a0,a0,a5
    43ba:	8d45                	or	a0,a0,s1
    43bc:	4492                	lw	s1,4(sp)
    43be:	0141                	addi	sp,sp,16
    43c0:	8082                	ret
    43c2:	09900793          	li	a5,153
    43c6:	00e7dd63          	bge	a5,a4,43e0 <__floatsisf+0x7e>
    43ca:	01b50793          	addi	a5,a0,27 # 8000001b <_eusrstack+0x5fff801b>
    43ce:	4695                	li	a3,5
    43d0:	00f417b3          	sll	a5,s0,a5
    43d4:	8e89                	sub	a3,a3,a0
    43d6:	00d45433          	srl	s0,s0,a3
    43da:	00f037b3          	snez	a5,a5
    43de:	8c5d                	or	s0,s0,a5
    43e0:	4795                	li	a5,5
    43e2:	00a7d663          	bge	a5,a0,43ee <__floatsisf+0x8c>
    43e6:	ffb50793          	addi	a5,a0,-5
    43ea:	00f41433          	sll	s0,s0,a5
    43ee:	fc0006b7          	lui	a3,0xfc000
    43f2:	16fd                	addi	a3,a3,-1
    43f4:	00747793          	andi	a5,s0,7
    43f8:	00d47633          	and	a2,s0,a3
    43fc:	c385                	beqz	a5,441c <__floatsisf+0xba>
    43fe:	00f47793          	andi	a5,s0,15
    4402:	4591                	li	a1,4
    4404:	00b78c63          	beq	a5,a1,441c <__floatsisf+0xba>
    4408:	0611                	addi	a2,a2,4
    440a:	00561793          	slli	a5,a2,0x5
    440e:	0007d763          	bgez	a5,441c <__floatsisf+0xba>
    4412:	09f00793          	li	a5,159
    4416:	8e75                	and	a2,a2,a3
    4418:	40a78733          	sub	a4,a5,a0
    441c:	00661413          	slli	s0,a2,0x6
    4420:	8025                	srli	s0,s0,0x9
    4422:	0ff77793          	andi	a5,a4,255
    4426:	b751                	j	43aa <__floatsisf+0x48>

00004428 <__extendsfdf2>:
    4428:	01755713          	srli	a4,a0,0x17
    442c:	0ff77713          	andi	a4,a4,255
    4430:	1141                	addi	sp,sp,-16
    4432:	00170793          	addi	a5,a4,1
    4436:	c422                	sw	s0,8(sp)
    4438:	c226                	sw	s1,4(sp)
    443a:	00951413          	slli	s0,a0,0x9
    443e:	c606                	sw	ra,12(sp)
    4440:	0fe7f793          	andi	a5,a5,254
    4444:	8025                	srli	s0,s0,0x9
    4446:	01f55493          	srli	s1,a0,0x1f
    444a:	c785                	beqz	a5,4472 <__extendsfdf2+0x4a>
    444c:	00345793          	srli	a5,s0,0x3
    4450:	38070713          	addi	a4,a4,896
    4454:	0476                	slli	s0,s0,0x1d
    4456:	07b2                	slli	a5,a5,0xc
    4458:	0752                	slli	a4,a4,0x14
    445a:	83b1                	srli	a5,a5,0xc
    445c:	01f49513          	slli	a0,s1,0x1f
    4460:	8fd9                	or	a5,a5,a4
    4462:	8fc9                	or	a5,a5,a0
    4464:	40b2                	lw	ra,12(sp)
    4466:	8522                	mv	a0,s0
    4468:	4422                	lw	s0,8(sp)
    446a:	4492                	lw	s1,4(sp)
    446c:	85be                	mv	a1,a5
    446e:	0141                	addi	sp,sp,16
    4470:	8082                	ret
    4472:	eb05                	bnez	a4,44a2 <__extendsfdf2+0x7a>
    4474:	c439                	beqz	s0,44c2 <__extendsfdf2+0x9a>
    4476:	8522                	mv	a0,s0
    4478:	22d9                	jal	463e <__clzsi2>
    447a:	47a9                	li	a5,10
    447c:	04a7c663          	blt	a5,a0,44c8 <__extendsfdf2+0xa0>
    4480:	472d                	li	a4,11
    4482:	8f09                	sub	a4,a4,a0
    4484:	01550793          	addi	a5,a0,21
    4488:	00e45733          	srl	a4,s0,a4
    448c:	00f41433          	sll	s0,s0,a5
    4490:	00c71793          	slli	a5,a4,0xc
    4494:	38900713          	li	a4,905
    4498:	8f09                	sub	a4,a4,a0
    449a:	83b1                	srli	a5,a5,0xc
    449c:	7ff77713          	andi	a4,a4,2047
    44a0:	bf5d                	j	4456 <__extendsfdf2+0x2e>
    44a2:	cc01                	beqz	s0,44ba <__extendsfdf2+0x92>
    44a4:	00345713          	srli	a4,s0,0x3
    44a8:	000807b7          	lui	a5,0x80
    44ac:	8fd9                	or	a5,a5,a4
    44ae:	07b2                	slli	a5,a5,0xc
    44b0:	0476                	slli	s0,s0,0x1d
    44b2:	83b1                	srli	a5,a5,0xc
    44b4:	7ff00713          	li	a4,2047
    44b8:	bf79                	j	4456 <__extendsfdf2+0x2e>
    44ba:	7ff00713          	li	a4,2047
    44be:	4781                	li	a5,0
    44c0:	bf59                	j	4456 <__extendsfdf2+0x2e>
    44c2:	4701                	li	a4,0
    44c4:	4781                	li	a5,0
    44c6:	bf41                	j	4456 <__extendsfdf2+0x2e>
    44c8:	ff550713          	addi	a4,a0,-11
    44cc:	00e41733          	sll	a4,s0,a4
    44d0:	4401                	li	s0,0
    44d2:	bf7d                	j	4490 <__extendsfdf2+0x68>

000044d4 <__truncdfsf2>:
    44d4:	0145d693          	srli	a3,a1,0x14
    44d8:	00c59793          	slli	a5,a1,0xc
    44dc:	7ff6f693          	andi	a3,a3,2047
    44e0:	83b1                	srli	a5,a5,0xc
    44e2:	00168613          	addi	a2,a3,1 # fc000001 <_eusrstack+0xdbff8001>
    44e6:	078e                	slli	a5,a5,0x3
    44e8:	01d55713          	srli	a4,a0,0x1d
    44ec:	7fe67613          	andi	a2,a2,2046
    44f0:	81fd                	srli	a1,a1,0x1f
    44f2:	8f5d                	or	a4,a4,a5
    44f4:	00351893          	slli	a7,a0,0x3
    44f8:	ce35                	beqz	a2,4574 <__truncdfsf2+0xa0>
    44fa:	c8068813          	addi	a6,a3,-896
    44fe:	0fe00793          	li	a5,254
    4502:	0107dd63          	bge	a5,a6,451c <__truncdfsf2+0x48>
    4506:	4781                	li	a5,0
    4508:	00979513          	slli	a0,a5,0x9
    450c:	0ff00693          	li	a3,255
    4510:	06de                	slli	a3,a3,0x17
    4512:	8125                	srli	a0,a0,0x9
    4514:	05fe                	slli	a1,a1,0x1f
    4516:	8d55                	or	a0,a0,a3
    4518:	8d4d                	or	a0,a0,a1
    451a:	8082                	ret
    451c:	0b005563          	blez	a6,45c6 <__truncdfsf2+0xf2>
    4520:	00651793          	slli	a5,a0,0x6
    4524:	070e                	slli	a4,a4,0x3
    4526:	00f037b3          	snez	a5,a5
    452a:	8fd9                	or	a5,a5,a4
    452c:	01d8d893          	srli	a7,a7,0x1d
    4530:	0117e7b3          	or	a5,a5,a7
    4534:	0077f713          	andi	a4,a5,7
    4538:	10070163          	beqz	a4,463a <__truncdfsf2+0x166>
    453c:	00f7f713          	andi	a4,a5,15
    4540:	4691                	li	a3,4
    4542:	00d70363          	beq	a4,a3,4548 <__truncdfsf2+0x74>
    4546:	0791                	addi	a5,a5,4
    4548:	04000737          	lui	a4,0x4000
    454c:	8f7d                	and	a4,a4,a5
    454e:	c775                	beqz	a4,463a <__truncdfsf2+0x166>
    4550:	00180713          	addi	a4,a6,1 # 100001 <_data_lma+0xf6d11>
    4554:	0ff00613          	li	a2,255
    4558:	0ff77693          	andi	a3,a4,255
    455c:	fac705e3          	beq	a4,a2,4506 <__truncdfsf2+0x32>
    4560:	079a                	slli	a5,a5,0x6
    4562:	83a5                	srli	a5,a5,0x9
    4564:	00979513          	slli	a0,a5,0x9
    4568:	06de                	slli	a3,a3,0x17
    456a:	8125                	srli	a0,a0,0x9
    456c:	05fe                	slli	a1,a1,0x1f
    456e:	8d55                	or	a0,a0,a3
    4570:	8d4d                	or	a0,a0,a1
    4572:	8082                	ret
    4574:	011767b3          	or	a5,a4,a7
    4578:	ee99                	bnez	a3,4596 <__truncdfsf2+0xc2>
    457a:	cf85                	beqz	a5,45b2 <__truncdfsf2+0xde>
    457c:	4795                	li	a5,5
    457e:	079a                	slli	a5,a5,0x6
    4580:	83a5                	srli	a5,a5,0x9
    4582:	00979513          	slli	a0,a5,0x9
    4586:	0ff6f693          	andi	a3,a3,255
    458a:	06de                	slli	a3,a3,0x17
    458c:	8125                	srli	a0,a0,0x9
    458e:	05fe                	slli	a1,a1,0x1f
    4590:	8d55                	or	a0,a0,a3
    4592:	8d4d                	or	a0,a0,a1
    4594:	8082                	ret
    4596:	dba5                	beqz	a5,4506 <__truncdfsf2+0x32>
    4598:	004007b7          	lui	a5,0x400
    459c:	00979513          	slli	a0,a5,0x9
    45a0:	0ff00693          	li	a3,255
    45a4:	06de                	slli	a3,a3,0x17
    45a6:	4581                	li	a1,0
    45a8:	8125                	srli	a0,a0,0x9
    45aa:	05fe                	slli	a1,a1,0x1f
    45ac:	8d55                	or	a0,a0,a3
    45ae:	8d4d                	or	a0,a0,a1
    45b0:	8082                	ret
    45b2:	4781                	li	a5,0
    45b4:	00979513          	slli	a0,a5,0x9
    45b8:	4681                	li	a3,0
    45ba:	06de                	slli	a3,a3,0x17
    45bc:	8125                	srli	a0,a0,0x9
    45be:	05fe                	slli	a1,a1,0x1f
    45c0:	8d55                	or	a0,a0,a3
    45c2:	8d4d                	or	a0,a0,a1
    45c4:	8082                	ret
    45c6:	57a5                	li	a5,-23
    45c8:	04f84863          	blt	a6,a5,4618 <__truncdfsf2+0x144>
    45cc:	47f9                	li	a5,30
    45ce:	00800637          	lui	a2,0x800
    45d2:	410787b3          	sub	a5,a5,a6
    45d6:	457d                	li	a0,31
    45d8:	8e59                	or	a2,a2,a4
    45da:	04f55163          	bge	a0,a5,461c <__truncdfsf2+0x148>
    45de:	5779                	li	a4,-2
    45e0:	41070733          	sub	a4,a4,a6
    45e4:	02000513          	li	a0,32
    45e8:	00e65733          	srl	a4,a2,a4
    45ec:	00a78863          	beq	a5,a0,45fc <__truncdfsf2+0x128>
    45f0:	ca268693          	addi	a3,a3,-862
    45f4:	00d616b3          	sll	a3,a2,a3
    45f8:	00d8e8b3          	or	a7,a7,a3
    45fc:	011037b3          	snez	a5,a7
    4600:	8fd9                	or	a5,a5,a4
    4602:	0077f713          	andi	a4,a5,7
    4606:	4801                	li	a6,0
    4608:	fb15                	bnez	a4,453c <__truncdfsf2+0x68>
    460a:	00579713          	slli	a4,a5,0x5
    460e:	4685                	li	a3,1
    4610:	f40748e3          	bltz	a4,4560 <__truncdfsf2+0x8c>
    4614:	4681                	li	a3,0
    4616:	b7a5                	j	457e <__truncdfsf2+0xaa>
    4618:	4681                	li	a3,0
    461a:	b78d                	j	457c <__truncdfsf2+0xa8>
    461c:	c8268693          	addi	a3,a3,-894
    4620:	00d89733          	sll	a4,a7,a3
    4624:	00e03733          	snez	a4,a4
    4628:	00d616b3          	sll	a3,a2,a3
    462c:	00f8d8b3          	srl	a7,a7,a5
    4630:	00d767b3          	or	a5,a4,a3
    4634:	00f8e7b3          	or	a5,a7,a5
    4638:	b7e9                	j	4602 <__truncdfsf2+0x12e>
    463a:	86c2                	mv	a3,a6
    463c:	b789                	j	457e <__truncdfsf2+0xaa>

0000463e <__clzsi2>:
    463e:	67c1                	lui	a5,0x10
    4640:	02f57e63          	bgeu	a0,a5,467c <__clzsi2+0x3e>
    4644:	0ff00793          	li	a5,255
    4648:	02000713          	li	a4,32
    464c:	00a7ec63          	bltu	a5,a0,4664 <__clzsi2+0x26>
    4650:	00005797          	auipc	a5,0x5
    4654:	b0478793          	addi	a5,a5,-1276 # 9154 <__clz_tab>
    4658:	97aa                	add	a5,a5,a0
    465a:	0007c503          	lbu	a0,0(a5)
    465e:	40a70533          	sub	a0,a4,a0
    4662:	8082                	ret
    4664:	8121                	srli	a0,a0,0x8
    4666:	00005797          	auipc	a5,0x5
    466a:	aee78793          	addi	a5,a5,-1298 # 9154 <__clz_tab>
    466e:	97aa                	add	a5,a5,a0
    4670:	0007c503          	lbu	a0,0(a5)
    4674:	4761                	li	a4,24
    4676:	40a70533          	sub	a0,a4,a0
    467a:	8082                	ret
    467c:	010007b7          	lui	a5,0x1000
    4680:	00f56e63          	bltu	a0,a5,469c <__clzsi2+0x5e>
    4684:	8161                	srli	a0,a0,0x18
    4686:	00005797          	auipc	a5,0x5
    468a:	ace78793          	addi	a5,a5,-1330 # 9154 <__clz_tab>
    468e:	97aa                	add	a5,a5,a0
    4690:	0007c503          	lbu	a0,0(a5)
    4694:	4721                	li	a4,8
    4696:	40a70533          	sub	a0,a4,a0
    469a:	8082                	ret
    469c:	8141                	srli	a0,a0,0x10
    469e:	00005797          	auipc	a5,0x5
    46a2:	ab678793          	addi	a5,a5,-1354 # 9154 <__clz_tab>
    46a6:	97aa                	add	a5,a5,a0
    46a8:	0007c503          	lbu	a0,0(a5)
    46ac:	4741                	li	a4,16
    46ae:	40a70533          	sub	a0,a4,a0
    46b2:	8082                	ret

000046b4 <iprintf>:
    46b4:	7139                	addi	sp,sp,-64
    46b6:	da3e                	sw	a5,52(sp)
    46b8:	d22e                	sw	a1,36(sp)
    46ba:	d432                	sw	a2,40(sp)
    46bc:	d636                	sw	a3,44(sp)
    46be:	d83a                	sw	a4,48(sp)
    46c0:	dc42                	sw	a6,56(sp)
    46c2:	de46                	sw	a7,60(sp)
    46c4:	82018793          	addi	a5,gp,-2016 # 20000090 <_impure_ptr>
    46c8:	cc22                	sw	s0,24(sp)
    46ca:	4380                	lw	s0,0(a5)
    46cc:	ca26                	sw	s1,20(sp)
    46ce:	ce06                	sw	ra,28(sp)
    46d0:	84aa                	mv	s1,a0
    46d2:	c409                	beqz	s0,46dc <iprintf+0x28>
    46d4:	4c1c                	lw	a5,24(s0)
    46d6:	e399                	bnez	a5,46dc <iprintf+0x28>
    46d8:	8522                	mv	a0,s0
    46da:	2b61                	jal	4c72 <__sinit>
    46dc:	440c                	lw	a1,8(s0)
    46de:	1054                	addi	a3,sp,36
    46e0:	8626                	mv	a2,s1
    46e2:	8522                	mv	a0,s0
    46e4:	c636                	sw	a3,12(sp)
    46e6:	55d000ef          	jal	ra,5442 <_vfiprintf_r>
    46ea:	40f2                	lw	ra,28(sp)
    46ec:	4462                	lw	s0,24(sp)
    46ee:	44d2                	lw	s1,20(sp)
    46f0:	6121                	addi	sp,sp,64
    46f2:	8082                	ret

000046f4 <_puts_r>:
    46f4:	1101                	addi	sp,sp,-32
    46f6:	ca26                	sw	s1,20(sp)
    46f8:	c84a                	sw	s2,16(sp)
    46fa:	ce06                	sw	ra,28(sp)
    46fc:	cc22                	sw	s0,24(sp)
    46fe:	c64e                	sw	s3,12(sp)
    4700:	c452                	sw	s4,8(sp)
    4702:	84aa                	mv	s1,a0
    4704:	892e                	mv	s2,a1
    4706:	c501                	beqz	a0,470e <_puts_r+0x1a>
    4708:	4d1c                	lw	a5,24(a0)
    470a:	e391                	bnez	a5,470e <_puts_r+0x1a>
    470c:	239d                	jal	4c72 <__sinit>
    470e:	4c9c                	lw	a5,24(s1)
    4710:	4480                	lw	s0,8(s1)
    4712:	e399                	bnez	a5,4718 <_puts_r+0x24>
    4714:	8526                	mv	a0,s1
    4716:	2bb1                	jal	4c72 <__sinit>
    4718:	00005797          	auipc	a5,0x5
    471c:	b5c78793          	addi	a5,a5,-1188 # 9274 <__sf_fake_stdin>
    4720:	02f41c63          	bne	s0,a5,4758 <_puts_r+0x64>
    4724:	40c0                	lw	s0,4(s1)
    4726:	00c45783          	lhu	a5,12(s0)
    472a:	8ba1                	andi	a5,a5,8
    472c:	c7b1                	beqz	a5,4778 <_puts_r+0x84>
    472e:	481c                	lw	a5,16(s0)
    4730:	c7a1                	beqz	a5,4778 <_puts_r+0x84>
    4732:	59fd                	li	s3,-1
    4734:	4a29                	li	s4,10
    4736:	441c                	lw	a5,8(s0)
    4738:	00094583          	lbu	a1,0(s2)
    473c:	17fd                	addi	a5,a5,-1
    473e:	e9b1                	bnez	a1,4792 <_puts_r+0x9e>
    4740:	c41c                	sw	a5,8(s0)
    4742:	0607de63          	bgez	a5,47be <_puts_r+0xca>
    4746:	8622                	mv	a2,s0
    4748:	45a9                	li	a1,10
    474a:	8526                	mv	a0,s1
    474c:	28fd                	jal	484a <__swbuf_r>
    474e:	57fd                	li	a5,-1
    4750:	02f50863          	beq	a0,a5,4780 <_puts_r+0x8c>
    4754:	4529                	li	a0,10
    4756:	a035                	j	4782 <_puts_r+0x8e>
    4758:	00005797          	auipc	a5,0x5
    475c:	b3c78793          	addi	a5,a5,-1220 # 9294 <__sf_fake_stdout>
    4760:	00f41463          	bne	s0,a5,4768 <_puts_r+0x74>
    4764:	4480                	lw	s0,8(s1)
    4766:	b7c1                	j	4726 <_puts_r+0x32>
    4768:	00005797          	auipc	a5,0x5
    476c:	aec78793          	addi	a5,a5,-1300 # 9254 <__sf_fake_stderr>
    4770:	faf41be3          	bne	s0,a5,4726 <_puts_r+0x32>
    4774:	44c0                	lw	s0,12(s1)
    4776:	bf45                	j	4726 <_puts_r+0x32>
    4778:	85a2                	mv	a1,s0
    477a:	8526                	mv	a0,s1
    477c:	2279                	jal	490a <__swsetup_r>
    477e:	d955                	beqz	a0,4732 <_puts_r+0x3e>
    4780:	557d                	li	a0,-1
    4782:	40f2                	lw	ra,28(sp)
    4784:	4462                	lw	s0,24(sp)
    4786:	44d2                	lw	s1,20(sp)
    4788:	4942                	lw	s2,16(sp)
    478a:	49b2                	lw	s3,12(sp)
    478c:	4a22                	lw	s4,8(sp)
    478e:	6105                	addi	sp,sp,32
    4790:	8082                	ret
    4792:	c41c                	sw	a5,8(s0)
    4794:	0905                	addi	s2,s2,1
    4796:	0007d763          	bgez	a5,47a4 <_puts_r+0xb0>
    479a:	4c18                	lw	a4,24(s0)
    479c:	00e7cb63          	blt	a5,a4,47b2 <_puts_r+0xbe>
    47a0:	01458963          	beq	a1,s4,47b2 <_puts_r+0xbe>
    47a4:	401c                	lw	a5,0(s0)
    47a6:	00178713          	addi	a4,a5,1
    47aa:	c018                	sw	a4,0(s0)
    47ac:	00b78023          	sb	a1,0(a5)
    47b0:	b759                	j	4736 <_puts_r+0x42>
    47b2:	8622                	mv	a2,s0
    47b4:	8526                	mv	a0,s1
    47b6:	2851                	jal	484a <__swbuf_r>
    47b8:	f7351fe3          	bne	a0,s3,4736 <_puts_r+0x42>
    47bc:	b7d1                	j	4780 <_puts_r+0x8c>
    47be:	401c                	lw	a5,0(s0)
    47c0:	00178713          	addi	a4,a5,1
    47c4:	c018                	sw	a4,0(s0)
    47c6:	4729                	li	a4,10
    47c8:	00e78023          	sb	a4,0(a5)
    47cc:	b761                	j	4754 <_puts_r+0x60>

000047ce <puts>:
    47ce:	82018793          	addi	a5,gp,-2016 # 20000090 <_impure_ptr>
    47d2:	85aa                	mv	a1,a0
    47d4:	4388                	lw	a0,0(a5)
    47d6:	f1fff06f          	j	46f4 <_puts_r>

000047da <_vsniprintf_r>:
    47da:	7119                	addi	sp,sp,-128
    47dc:	dca2                	sw	s0,120(sp)
    47de:	de86                	sw	ra,124(sp)
    47e0:	daa6                	sw	s1,116(sp)
    47e2:	8432                	mv	s0,a2
    47e4:	00065b63          	bgez	a2,47fa <_vsniprintf_r+0x20>
    47e8:	08b00793          	li	a5,139
    47ec:	c11c                	sw	a5,0(a0)
    47ee:	557d                	li	a0,-1
    47f0:	50f6                	lw	ra,124(sp)
    47f2:	5466                	lw	s0,120(sp)
    47f4:	54d6                	lw	s1,116(sp)
    47f6:	6109                	addi	sp,sp,128
    47f8:	8082                	ret
    47fa:	8636                	mv	a2,a3
    47fc:	20800693          	li	a3,520
    4800:	c42e                	sw	a1,8(sp)
    4802:	cc2e                	sw	a1,24(sp)
    4804:	00d11a23          	sh	a3,20(sp)
    4808:	4581                	li	a1,0
    480a:	c019                	beqz	s0,4810 <_vsniprintf_r+0x36>
    480c:	fff40593          	addi	a1,s0,-1
    4810:	57fd                	li	a5,-1
    4812:	c82e                	sw	a1,16(sp)
    4814:	ce2e                	sw	a1,28(sp)
    4816:	86ba                	mv	a3,a4
    4818:	002c                	addi	a1,sp,8
    481a:	00f11b23          	sh	a5,22(sp)
    481e:	84aa                	mv	s1,a0
    4820:	135000ef          	jal	ra,5154 <_svfiprintf_r>
    4824:	57fd                	li	a5,-1
    4826:	00f55563          	bge	a0,a5,4830 <_vsniprintf_r+0x56>
    482a:	08b00793          	li	a5,139
    482e:	c09c                	sw	a5,0(s1)
    4830:	d061                	beqz	s0,47f0 <_vsniprintf_r+0x16>
    4832:	47a2                	lw	a5,8(sp)
    4834:	00078023          	sb	zero,0(a5)
    4838:	bf65                	j	47f0 <_vsniprintf_r+0x16>

0000483a <vsniprintf>:
    483a:	82018793          	addi	a5,gp,-2016 # 20000090 <_impure_ptr>
    483e:	8736                	mv	a4,a3
    4840:	86b2                	mv	a3,a2
    4842:	862e                	mv	a2,a1
    4844:	85aa                	mv	a1,a0
    4846:	4388                	lw	a0,0(a5)
    4848:	bf49                	j	47da <_vsniprintf_r>

0000484a <__swbuf_r>:
    484a:	1101                	addi	sp,sp,-32
    484c:	cc22                	sw	s0,24(sp)
    484e:	ca26                	sw	s1,20(sp)
    4850:	c84a                	sw	s2,16(sp)
    4852:	ce06                	sw	ra,28(sp)
    4854:	c64e                	sw	s3,12(sp)
    4856:	84aa                	mv	s1,a0
    4858:	892e                	mv	s2,a1
    485a:	8432                	mv	s0,a2
    485c:	c501                	beqz	a0,4864 <__swbuf_r+0x1a>
    485e:	4d1c                	lw	a5,24(a0)
    4860:	e391                	bnez	a5,4864 <__swbuf_r+0x1a>
    4862:	2901                	jal	4c72 <__sinit>
    4864:	00005797          	auipc	a5,0x5
    4868:	a1078793          	addi	a5,a5,-1520 # 9274 <__sf_fake_stdin>
    486c:	06f41963          	bne	s0,a5,48de <__swbuf_r+0x94>
    4870:	40c0                	lw	s0,4(s1)
    4872:	4c1c                	lw	a5,24(s0)
    4874:	c41c                	sw	a5,8(s0)
    4876:	00c45783          	lhu	a5,12(s0)
    487a:	8ba1                	andi	a5,a5,8
    487c:	c3c9                	beqz	a5,48fe <__swbuf_r+0xb4>
    487e:	481c                	lw	a5,16(s0)
    4880:	cfbd                	beqz	a5,48fe <__swbuf_r+0xb4>
    4882:	481c                	lw	a5,16(s0)
    4884:	4008                	lw	a0,0(s0)
    4886:	0ff97993          	andi	s3,s2,255
    488a:	0ff97913          	andi	s2,s2,255
    488e:	8d1d                	sub	a0,a0,a5
    4890:	485c                	lw	a5,20(s0)
    4892:	00f54663          	blt	a0,a5,489e <__swbuf_r+0x54>
    4896:	85a2                	mv	a1,s0
    4898:	8526                	mv	a0,s1
    489a:	2c65                	jal	4b52 <_fflush_r>
    489c:	e52d                	bnez	a0,4906 <__swbuf_r+0xbc>
    489e:	441c                	lw	a5,8(s0)
    48a0:	0505                	addi	a0,a0,1
    48a2:	17fd                	addi	a5,a5,-1
    48a4:	c41c                	sw	a5,8(s0)
    48a6:	401c                	lw	a5,0(s0)
    48a8:	00178713          	addi	a4,a5,1
    48ac:	c018                	sw	a4,0(s0)
    48ae:	01378023          	sb	s3,0(a5)
    48b2:	485c                	lw	a5,20(s0)
    48b4:	00a78963          	beq	a5,a0,48c6 <__swbuf_r+0x7c>
    48b8:	00c45783          	lhu	a5,12(s0)
    48bc:	8b85                	andi	a5,a5,1
    48be:	cb81                	beqz	a5,48ce <__swbuf_r+0x84>
    48c0:	47a9                	li	a5,10
    48c2:	00f91663          	bne	s2,a5,48ce <__swbuf_r+0x84>
    48c6:	85a2                	mv	a1,s0
    48c8:	8526                	mv	a0,s1
    48ca:	2461                	jal	4b52 <_fflush_r>
    48cc:	ed0d                	bnez	a0,4906 <__swbuf_r+0xbc>
    48ce:	40f2                	lw	ra,28(sp)
    48d0:	4462                	lw	s0,24(sp)
    48d2:	854a                	mv	a0,s2
    48d4:	44d2                	lw	s1,20(sp)
    48d6:	4942                	lw	s2,16(sp)
    48d8:	49b2                	lw	s3,12(sp)
    48da:	6105                	addi	sp,sp,32
    48dc:	8082                	ret
    48de:	00005797          	auipc	a5,0x5
    48e2:	9b678793          	addi	a5,a5,-1610 # 9294 <__sf_fake_stdout>
    48e6:	00f41463          	bne	s0,a5,48ee <__swbuf_r+0xa4>
    48ea:	4480                	lw	s0,8(s1)
    48ec:	b759                	j	4872 <__swbuf_r+0x28>
    48ee:	00005797          	auipc	a5,0x5
    48f2:	96678793          	addi	a5,a5,-1690 # 9254 <__sf_fake_stderr>
    48f6:	f6f41ee3          	bne	s0,a5,4872 <__swbuf_r+0x28>
    48fa:	44c0                	lw	s0,12(s1)
    48fc:	bf9d                	j	4872 <__swbuf_r+0x28>
    48fe:	85a2                	mv	a1,s0
    4900:	8526                	mv	a0,s1
    4902:	2021                	jal	490a <__swsetup_r>
    4904:	dd3d                	beqz	a0,4882 <__swbuf_r+0x38>
    4906:	597d                	li	s2,-1
    4908:	b7d9                	j	48ce <__swbuf_r+0x84>

0000490a <__swsetup_r>:
    490a:	1141                	addi	sp,sp,-16
    490c:	82018793          	addi	a5,gp,-2016 # 20000090 <_impure_ptr>
    4910:	c226                	sw	s1,4(sp)
    4912:	4384                	lw	s1,0(a5)
    4914:	c422                	sw	s0,8(sp)
    4916:	c04a                	sw	s2,0(sp)
    4918:	c606                	sw	ra,12(sp)
    491a:	892a                	mv	s2,a0
    491c:	842e                	mv	s0,a1
    491e:	c489                	beqz	s1,4928 <__swsetup_r+0x1e>
    4920:	4c9c                	lw	a5,24(s1)
    4922:	e399                	bnez	a5,4928 <__swsetup_r+0x1e>
    4924:	8526                	mv	a0,s1
    4926:	26b1                	jal	4c72 <__sinit>
    4928:	00005797          	auipc	a5,0x5
    492c:	94c78793          	addi	a5,a5,-1716 # 9274 <__sf_fake_stdin>
    4930:	02f41c63          	bne	s0,a5,4968 <__swsetup_r+0x5e>
    4934:	40c0                	lw	s0,4(s1)
    4936:	00c41703          	lh	a4,12(s0)
    493a:	01071793          	slli	a5,a4,0x10
    493e:	83c1                	srli	a5,a5,0x10
    4940:	0087f693          	andi	a3,a5,8
    4944:	eeb5                	bnez	a3,49c0 <__swsetup_r+0xb6>
    4946:	0107f693          	andi	a3,a5,16
    494a:	ee9d                	bnez	a3,4988 <__swsetup_r+0x7e>
    494c:	47a5                	li	a5,9
    494e:	00f92023          	sw	a5,0(s2)
    4952:	04076713          	ori	a4,a4,64
    4956:	00e41623          	sh	a4,12(s0)
    495a:	557d                	li	a0,-1
    495c:	40b2                	lw	ra,12(sp)
    495e:	4422                	lw	s0,8(sp)
    4960:	4492                	lw	s1,4(sp)
    4962:	4902                	lw	s2,0(sp)
    4964:	0141                	addi	sp,sp,16
    4966:	8082                	ret
    4968:	00005797          	auipc	a5,0x5
    496c:	92c78793          	addi	a5,a5,-1748 # 9294 <__sf_fake_stdout>
    4970:	00f41463          	bne	s0,a5,4978 <__swsetup_r+0x6e>
    4974:	4480                	lw	s0,8(s1)
    4976:	b7c1                	j	4936 <__swsetup_r+0x2c>
    4978:	00005797          	auipc	a5,0x5
    497c:	8dc78793          	addi	a5,a5,-1828 # 9254 <__sf_fake_stderr>
    4980:	faf41be3          	bne	s0,a5,4936 <__swsetup_r+0x2c>
    4984:	44c0                	lw	s0,12(s1)
    4986:	bf45                	j	4936 <__swsetup_r+0x2c>
    4988:	8b91                	andi	a5,a5,4
    498a:	c78d                	beqz	a5,49b4 <__swsetup_r+0xaa>
    498c:	584c                	lw	a1,52(s0)
    498e:	c989                	beqz	a1,49a0 <__swsetup_r+0x96>
    4990:	04440793          	addi	a5,s0,68
    4994:	00f58463          	beq	a1,a5,499c <__swsetup_r+0x92>
    4998:	854a                	mv	a0,s2
    499a:	23a9                	jal	4ee4 <_free_r>
    499c:	02042a23          	sw	zero,52(s0)
    49a0:	00c45783          	lhu	a5,12(s0)
    49a4:	00042223          	sw	zero,4(s0)
    49a8:	fdb7f793          	andi	a5,a5,-37
    49ac:	00f41623          	sh	a5,12(s0)
    49b0:	481c                	lw	a5,16(s0)
    49b2:	c01c                	sw	a5,0(s0)
    49b4:	00c45783          	lhu	a5,12(s0)
    49b8:	0087e793          	ori	a5,a5,8
    49bc:	00f41623          	sh	a5,12(s0)
    49c0:	481c                	lw	a5,16(s0)
    49c2:	ef81                	bnez	a5,49da <__swsetup_r+0xd0>
    49c4:	00c45783          	lhu	a5,12(s0)
    49c8:	20000713          	li	a4,512
    49cc:	2807f793          	andi	a5,a5,640
    49d0:	00e78563          	beq	a5,a4,49da <__swsetup_r+0xd0>
    49d4:	85a2                	mv	a1,s0
    49d6:	854a                	mv	a0,s2
    49d8:	21b5                	jal	4e44 <__smakebuf_r>
    49da:	00c45783          	lhu	a5,12(s0)
    49de:	0017f713          	andi	a4,a5,1
    49e2:	c705                	beqz	a4,4a0a <__swsetup_r+0x100>
    49e4:	485c                	lw	a5,20(s0)
    49e6:	00042423          	sw	zero,8(s0)
    49ea:	40f007b3          	neg	a5,a5
    49ee:	cc1c                	sw	a5,24(s0)
    49f0:	481c                	lw	a5,16(s0)
    49f2:	4501                	li	a0,0
    49f4:	f7a5                	bnez	a5,495c <__swsetup_r+0x52>
    49f6:	00c41783          	lh	a5,12(s0)
    49fa:	0807f713          	andi	a4,a5,128
    49fe:	df39                	beqz	a4,495c <__swsetup_r+0x52>
    4a00:	0407e793          	ori	a5,a5,64
    4a04:	00f41623          	sh	a5,12(s0)
    4a08:	bf89                	j	495a <__swsetup_r+0x50>
    4a0a:	8b89                	andi	a5,a5,2
    4a0c:	4701                	li	a4,0
    4a0e:	e391                	bnez	a5,4a12 <__swsetup_r+0x108>
    4a10:	4858                	lw	a4,20(s0)
    4a12:	c418                	sw	a4,8(s0)
    4a14:	bff1                	j	49f0 <__swsetup_r+0xe6>

00004a16 <__sflush_r>:
    4a16:	00c5d783          	lhu	a5,12(a1)
    4a1a:	1101                	addi	sp,sp,-32
    4a1c:	cc22                	sw	s0,24(sp)
    4a1e:	ca26                	sw	s1,20(sp)
    4a20:	ce06                	sw	ra,28(sp)
    4a22:	c84a                	sw	s2,16(sp)
    4a24:	c64e                	sw	s3,12(sp)
    4a26:	0087f713          	andi	a4,a5,8
    4a2a:	84aa                	mv	s1,a0
    4a2c:	842e                	mv	s0,a1
    4a2e:	ef71                	bnez	a4,4b0a <__sflush_r+0xf4>
    4a30:	41d8                	lw	a4,4(a1)
    4a32:	00e04d63          	bgtz	a4,4a4c <__sflush_r+0x36>
    4a36:	41b8                	lw	a4,64(a1)
    4a38:	00e04a63          	bgtz	a4,4a4c <__sflush_r+0x36>
    4a3c:	4501                	li	a0,0
    4a3e:	40f2                	lw	ra,28(sp)
    4a40:	4462                	lw	s0,24(sp)
    4a42:	44d2                	lw	s1,20(sp)
    4a44:	4942                	lw	s2,16(sp)
    4a46:	49b2                	lw	s3,12(sp)
    4a48:	6105                	addi	sp,sp,32
    4a4a:	8082                	ret
    4a4c:	5458                	lw	a4,44(s0)
    4a4e:	d77d                	beqz	a4,4a3c <__sflush_r+0x26>
    4a50:	0004a903          	lw	s2,0(s1)
    4a54:	01379693          	slli	a3,a5,0x13
    4a58:	0004a023          	sw	zero,0(s1)
    4a5c:	0606dd63          	bgez	a3,4ad6 <__sflush_r+0xc0>
    4a60:	4870                	lw	a2,84(s0)
    4a62:	00c45783          	lhu	a5,12(s0)
    4a66:	8b91                	andi	a5,a5,4
    4a68:	c799                	beqz	a5,4a76 <__sflush_r+0x60>
    4a6a:	405c                	lw	a5,4(s0)
    4a6c:	8e1d                	sub	a2,a2,a5
    4a6e:	585c                	lw	a5,52(s0)
    4a70:	c399                	beqz	a5,4a76 <__sflush_r+0x60>
    4a72:	403c                	lw	a5,64(s0)
    4a74:	8e1d                	sub	a2,a2,a5
    4a76:	545c                	lw	a5,44(s0)
    4a78:	500c                	lw	a1,32(s0)
    4a7a:	4681                	li	a3,0
    4a7c:	8526                	mv	a0,s1
    4a7e:	9782                	jalr	a5
    4a80:	57fd                	li	a5,-1
    4a82:	00c45703          	lhu	a4,12(s0)
    4a86:	00f51d63          	bne	a0,a5,4aa0 <__sflush_r+0x8a>
    4a8a:	4094                	lw	a3,0(s1)
    4a8c:	47f5                	li	a5,29
    4a8e:	06d7e863          	bltu	a5,a3,4afe <__sflush_r+0xe8>
    4a92:	204007b7          	lui	a5,0x20400
    4a96:	0785                	addi	a5,a5,1
    4a98:	00d7d7b3          	srl	a5,a5,a3
    4a9c:	8b85                	andi	a5,a5,1
    4a9e:	c3a5                	beqz	a5,4afe <__sflush_r+0xe8>
    4aa0:	481c                	lw	a5,16(s0)
    4aa2:	00042223          	sw	zero,4(s0)
    4aa6:	c01c                	sw	a5,0(s0)
    4aa8:	01371793          	slli	a5,a4,0x13
    4aac:	0007d863          	bgez	a5,4abc <__sflush_r+0xa6>
    4ab0:	57fd                	li	a5,-1
    4ab2:	00f51463          	bne	a0,a5,4aba <__sflush_r+0xa4>
    4ab6:	409c                	lw	a5,0(s1)
    4ab8:	e391                	bnez	a5,4abc <__sflush_r+0xa6>
    4aba:	c868                	sw	a0,84(s0)
    4abc:	584c                	lw	a1,52(s0)
    4abe:	0124a023          	sw	s2,0(s1)
    4ac2:	ddad                	beqz	a1,4a3c <__sflush_r+0x26>
    4ac4:	04440793          	addi	a5,s0,68
    4ac8:	00f58463          	beq	a1,a5,4ad0 <__sflush_r+0xba>
    4acc:	8526                	mv	a0,s1
    4ace:	2919                	jal	4ee4 <_free_r>
    4ad0:	02042a23          	sw	zero,52(s0)
    4ad4:	b7a5                	j	4a3c <__sflush_r+0x26>
    4ad6:	500c                	lw	a1,32(s0)
    4ad8:	4601                	li	a2,0
    4ada:	4685                	li	a3,1
    4adc:	8526                	mv	a0,s1
    4ade:	9702                	jalr	a4
    4ae0:	57fd                	li	a5,-1
    4ae2:	862a                	mv	a2,a0
    4ae4:	f6f51fe3          	bne	a0,a5,4a62 <__sflush_r+0x4c>
    4ae8:	409c                	lw	a5,0(s1)
    4aea:	dfa5                	beqz	a5,4a62 <__sflush_r+0x4c>
    4aec:	4775                	li	a4,29
    4aee:	00e78563          	beq	a5,a4,4af8 <__sflush_r+0xe2>
    4af2:	4759                	li	a4,22
    4af4:	04e79463          	bne	a5,a4,4b3c <__sflush_r+0x126>
    4af8:	0124a023          	sw	s2,0(s1)
    4afc:	b781                	j	4a3c <__sflush_r+0x26>
    4afe:	04076713          	ori	a4,a4,64
    4b02:	00e41623          	sh	a4,12(s0)
    4b06:	557d                	li	a0,-1
    4b08:	bf1d                	j	4a3e <__sflush_r+0x28>
    4b0a:	0105a983          	lw	s3,16(a1)
    4b0e:	f20987e3          	beqz	s3,4a3c <__sflush_r+0x26>
    4b12:	0005a903          	lw	s2,0(a1)
    4b16:	8b8d                	andi	a5,a5,3
    4b18:	0135a023          	sw	s3,0(a1)
    4b1c:	41390933          	sub	s2,s2,s3
    4b20:	4701                	li	a4,0
    4b22:	e391                	bnez	a5,4b26 <__sflush_r+0x110>
    4b24:	49d8                	lw	a4,20(a1)
    4b26:	c418                	sw	a4,8(s0)
    4b28:	f1205ae3          	blez	s2,4a3c <__sflush_r+0x26>
    4b2c:	541c                	lw	a5,40(s0)
    4b2e:	500c                	lw	a1,32(s0)
    4b30:	86ca                	mv	a3,s2
    4b32:	864e                	mv	a2,s3
    4b34:	8526                	mv	a0,s1
    4b36:	9782                	jalr	a5
    4b38:	00a04963          	bgtz	a0,4b4a <__sflush_r+0x134>
    4b3c:	00c45783          	lhu	a5,12(s0)
    4b40:	0407e793          	ori	a5,a5,64
    4b44:	00f41623          	sh	a5,12(s0)
    4b48:	bf7d                	j	4b06 <__sflush_r+0xf0>
    4b4a:	99aa                	add	s3,s3,a0
    4b4c:	40a90933          	sub	s2,s2,a0
    4b50:	bfe1                	j	4b28 <__sflush_r+0x112>

00004b52 <_fflush_r>:
    4b52:	499c                	lw	a5,16(a1)
    4b54:	c3a5                	beqz	a5,4bb4 <_fflush_r+0x62>
    4b56:	1101                	addi	sp,sp,-32
    4b58:	cc22                	sw	s0,24(sp)
    4b5a:	ce06                	sw	ra,28(sp)
    4b5c:	842a                	mv	s0,a0
    4b5e:	c511                	beqz	a0,4b6a <_fflush_r+0x18>
    4b60:	4d1c                	lw	a5,24(a0)
    4b62:	e781                	bnez	a5,4b6a <_fflush_r+0x18>
    4b64:	c62e                	sw	a1,12(sp)
    4b66:	2231                	jal	4c72 <__sinit>
    4b68:	45b2                	lw	a1,12(sp)
    4b6a:	00004797          	auipc	a5,0x4
    4b6e:	70a78793          	addi	a5,a5,1802 # 9274 <__sf_fake_stdin>
    4b72:	00f59c63          	bne	a1,a5,4b8a <_fflush_r+0x38>
    4b76:	404c                	lw	a1,4(s0)
    4b78:	00c59783          	lh	a5,12(a1)
    4b7c:	c79d                	beqz	a5,4baa <_fflush_r+0x58>
    4b7e:	8522                	mv	a0,s0
    4b80:	4462                	lw	s0,24(sp)
    4b82:	40f2                	lw	ra,28(sp)
    4b84:	6105                	addi	sp,sp,32
    4b86:	e91ff06f          	j	4a16 <__sflush_r>
    4b8a:	00004797          	auipc	a5,0x4
    4b8e:	70a78793          	addi	a5,a5,1802 # 9294 <__sf_fake_stdout>
    4b92:	00f59463          	bne	a1,a5,4b9a <_fflush_r+0x48>
    4b96:	440c                	lw	a1,8(s0)
    4b98:	b7c5                	j	4b78 <_fflush_r+0x26>
    4b9a:	00004797          	auipc	a5,0x4
    4b9e:	6ba78793          	addi	a5,a5,1722 # 9254 <__sf_fake_stderr>
    4ba2:	fcf59be3          	bne	a1,a5,4b78 <_fflush_r+0x26>
    4ba6:	444c                	lw	a1,12(s0)
    4ba8:	bfc1                	j	4b78 <_fflush_r+0x26>
    4baa:	40f2                	lw	ra,28(sp)
    4bac:	4462                	lw	s0,24(sp)
    4bae:	4501                	li	a0,0
    4bb0:	6105                	addi	sp,sp,32
    4bb2:	8082                	ret
    4bb4:	4501                	li	a0,0
    4bb6:	8082                	ret

00004bb8 <std>:
    4bb8:	1141                	addi	sp,sp,-16
    4bba:	c422                	sw	s0,8(sp)
    4bbc:	c606                	sw	ra,12(sp)
    4bbe:	842a                	mv	s0,a0
    4bc0:	00b51623          	sh	a1,12(a0)
    4bc4:	00c51723          	sh	a2,14(a0)
    4bc8:	00052023          	sw	zero,0(a0)
    4bcc:	00052223          	sw	zero,4(a0)
    4bd0:	00052423          	sw	zero,8(a0)
    4bd4:	06052223          	sw	zero,100(a0)
    4bd8:	00052823          	sw	zero,16(a0)
    4bdc:	00052a23          	sw	zero,20(a0)
    4be0:	00052c23          	sw	zero,24(a0)
    4be4:	4621                	li	a2,8
    4be6:	4581                	li	a1,0
    4be8:	05c50513          	addi	a0,a0,92
    4bec:	e14fb0ef          	jal	ra,200 <memset>
    4bf0:	00001797          	auipc	a5,0x1
    4bf4:	ece78793          	addi	a5,a5,-306 # 5abe <__sread>
    4bf8:	d05c                	sw	a5,36(s0)
    4bfa:	00001797          	auipc	a5,0x1
    4bfe:	ef478793          	addi	a5,a5,-268 # 5aee <__swrite>
    4c02:	d41c                	sw	a5,40(s0)
    4c04:	00001797          	auipc	a5,0x1
    4c08:	f3878793          	addi	a5,a5,-200 # 5b3c <__sseek>
    4c0c:	d45c                	sw	a5,44(s0)
    4c0e:	00001797          	auipc	a5,0x1
    4c12:	f6478793          	addi	a5,a5,-156 # 5b72 <__sclose>
    4c16:	d000                	sw	s0,32(s0)
    4c18:	d81c                	sw	a5,48(s0)
    4c1a:	40b2                	lw	ra,12(sp)
    4c1c:	4422                	lw	s0,8(sp)
    4c1e:	0141                	addi	sp,sp,16
    4c20:	8082                	ret

00004c22 <_cleanup_r>:
    4c22:	00000597          	auipc	a1,0x0
    4c26:	f3058593          	addi	a1,a1,-208 # 4b52 <_fflush_r>
    4c2a:	aa91                	j	4d7e <_fwalk_reent>

00004c2c <__sfmoreglue>:
    4c2c:	1141                	addi	sp,sp,-16
    4c2e:	c226                	sw	s1,4(sp)
    4c30:	06800613          	li	a2,104
    4c34:	fff58493          	addi	s1,a1,-1
    4c38:	02c484b3          	mul	s1,s1,a2
    4c3c:	c04a                	sw	s2,0(sp)
    4c3e:	892e                	mv	s2,a1
    4c40:	c422                	sw	s0,8(sp)
    4c42:	c606                	sw	ra,12(sp)
    4c44:	07448593          	addi	a1,s1,116
    4c48:	2691                	jal	4f8c <_malloc_r>
    4c4a:	842a                	mv	s0,a0
    4c4c:	cd01                	beqz	a0,4c64 <__sfmoreglue+0x38>
    4c4e:	00052023          	sw	zero,0(a0)
    4c52:	01252223          	sw	s2,4(a0)
    4c56:	0531                	addi	a0,a0,12
    4c58:	c408                	sw	a0,8(s0)
    4c5a:	06848613          	addi	a2,s1,104
    4c5e:	4581                	li	a1,0
    4c60:	da0fb0ef          	jal	ra,200 <memset>
    4c64:	8522                	mv	a0,s0
    4c66:	40b2                	lw	ra,12(sp)
    4c68:	4422                	lw	s0,8(sp)
    4c6a:	4492                	lw	s1,4(sp)
    4c6c:	4902                	lw	s2,0(sp)
    4c6e:	0141                	addi	sp,sp,16
    4c70:	8082                	ret

00004c72 <__sinit>:
    4c72:	4d1c                	lw	a5,24(a0)
    4c74:	e7a5                	bnez	a5,4cdc <__sinit+0x6a>
    4c76:	1141                	addi	sp,sp,-16
    4c78:	c606                	sw	ra,12(sp)
    4c7a:	c422                	sw	s0,8(sp)
    4c7c:	00000797          	auipc	a5,0x0
    4c80:	fa678793          	addi	a5,a5,-90 # 4c22 <_cleanup_r>
    4c84:	d51c                	sw	a5,40(a0)
    4c86:	82418793          	addi	a5,gp,-2012 # 20000094 <_global_impure_ptr>
    4c8a:	439c                	lw	a5,0(a5)
    4c8c:	04052423          	sw	zero,72(a0)
    4c90:	04052623          	sw	zero,76(a0)
    4c94:	04052823          	sw	zero,80(a0)
    4c98:	00f51463          	bne	a0,a5,4ca0 <__sinit+0x2e>
    4c9c:	4785                	li	a5,1
    4c9e:	cd1c                	sw	a5,24(a0)
    4ca0:	842a                	mv	s0,a0
    4ca2:	2835                	jal	4cde <__sfp>
    4ca4:	c048                	sw	a0,4(s0)
    4ca6:	8522                	mv	a0,s0
    4ca8:	281d                	jal	4cde <__sfp>
    4caa:	c408                	sw	a0,8(s0)
    4cac:	8522                	mv	a0,s0
    4cae:	2805                	jal	4cde <__sfp>
    4cb0:	c448                	sw	a0,12(s0)
    4cb2:	4048                	lw	a0,4(s0)
    4cb4:	4601                	li	a2,0
    4cb6:	4591                	li	a1,4
    4cb8:	f01ff0ef          	jal	ra,4bb8 <std>
    4cbc:	4408                	lw	a0,8(s0)
    4cbe:	4605                	li	a2,1
    4cc0:	45a5                	li	a1,9
    4cc2:	ef7ff0ef          	jal	ra,4bb8 <std>
    4cc6:	4448                	lw	a0,12(s0)
    4cc8:	4609                	li	a2,2
    4cca:	45c9                	li	a1,18
    4ccc:	eedff0ef          	jal	ra,4bb8 <std>
    4cd0:	4785                	li	a5,1
    4cd2:	cc1c                	sw	a5,24(s0)
    4cd4:	40b2                	lw	ra,12(sp)
    4cd6:	4422                	lw	s0,8(sp)
    4cd8:	0141                	addi	sp,sp,16
    4cda:	8082                	ret
    4cdc:	8082                	ret

00004cde <__sfp>:
    4cde:	1141                	addi	sp,sp,-16
    4ce0:	82418793          	addi	a5,gp,-2012 # 20000094 <_global_impure_ptr>
    4ce4:	c226                	sw	s1,4(sp)
    4ce6:	4384                	lw	s1,0(a5)
    4ce8:	c04a                	sw	s2,0(sp)
    4cea:	c606                	sw	ra,12(sp)
    4cec:	4c9c                	lw	a5,24(s1)
    4cee:	c422                	sw	s0,8(sp)
    4cf0:	892a                	mv	s2,a0
    4cf2:	e781                	bnez	a5,4cfa <__sfp+0x1c>
    4cf4:	8526                	mv	a0,s1
    4cf6:	f7dff0ef          	jal	ra,4c72 <__sinit>
    4cfa:	04848493          	addi	s1,s1,72
    4cfe:	4480                	lw	s0,8(s1)
    4d00:	40dc                	lw	a5,4(s1)
    4d02:	17fd                	addi	a5,a5,-1
    4d04:	0007d663          	bgez	a5,4d10 <__sfp+0x32>
    4d08:	409c                	lw	a5,0(s1)
    4d0a:	cfb9                	beqz	a5,4d68 <__sfp+0x8a>
    4d0c:	4084                	lw	s1,0(s1)
    4d0e:	bfc5                	j	4cfe <__sfp+0x20>
    4d10:	00c41703          	lh	a4,12(s0)
    4d14:	e739                	bnez	a4,4d62 <__sfp+0x84>
    4d16:	77c1                	lui	a5,0xffff0
    4d18:	0785                	addi	a5,a5,1
    4d1a:	06042223          	sw	zero,100(s0)
    4d1e:	00042023          	sw	zero,0(s0)
    4d22:	00042223          	sw	zero,4(s0)
    4d26:	00042423          	sw	zero,8(s0)
    4d2a:	c45c                	sw	a5,12(s0)
    4d2c:	00042823          	sw	zero,16(s0)
    4d30:	00042a23          	sw	zero,20(s0)
    4d34:	00042c23          	sw	zero,24(s0)
    4d38:	4621                	li	a2,8
    4d3a:	4581                	li	a1,0
    4d3c:	05c40513          	addi	a0,s0,92
    4d40:	cc0fb0ef          	jal	ra,200 <memset>
    4d44:	02042a23          	sw	zero,52(s0)
    4d48:	02042c23          	sw	zero,56(s0)
    4d4c:	04042423          	sw	zero,72(s0)
    4d50:	04042623          	sw	zero,76(s0)
    4d54:	8522                	mv	a0,s0
    4d56:	40b2                	lw	ra,12(sp)
    4d58:	4422                	lw	s0,8(sp)
    4d5a:	4492                	lw	s1,4(sp)
    4d5c:	4902                	lw	s2,0(sp)
    4d5e:	0141                	addi	sp,sp,16
    4d60:	8082                	ret
    4d62:	06840413          	addi	s0,s0,104
    4d66:	bf71                	j	4d02 <__sfp+0x24>
    4d68:	4591                	li	a1,4
    4d6a:	854a                	mv	a0,s2
    4d6c:	ec1ff0ef          	jal	ra,4c2c <__sfmoreglue>
    4d70:	c088                	sw	a0,0(s1)
    4d72:	fd49                	bnez	a0,4d0c <__sfp+0x2e>
    4d74:	47b1                	li	a5,12
    4d76:	00f92023          	sw	a5,0(s2)
    4d7a:	4401                	li	s0,0
    4d7c:	bfe1                	j	4d54 <__sfp+0x76>

00004d7e <_fwalk_reent>:
    4d7e:	7179                	addi	sp,sp,-48
    4d80:	d422                	sw	s0,40(sp)
    4d82:	d04a                	sw	s2,32(sp)
    4d84:	cc52                	sw	s4,24(sp)
    4d86:	ca56                	sw	s5,20(sp)
    4d88:	c85a                	sw	s6,16(sp)
    4d8a:	c65e                	sw	s7,12(sp)
    4d8c:	d606                	sw	ra,44(sp)
    4d8e:	d226                	sw	s1,36(sp)
    4d90:	ce4e                	sw	s3,28(sp)
    4d92:	8a2a                	mv	s4,a0
    4d94:	8aae                	mv	s5,a1
    4d96:	04850413          	addi	s0,a0,72
    4d9a:	4901                	li	s2,0
    4d9c:	4b05                	li	s6,1
    4d9e:	5bfd                	li	s7,-1
    4da0:	ec09                	bnez	s0,4dba <_fwalk_reent+0x3c>
    4da2:	50b2                	lw	ra,44(sp)
    4da4:	5422                	lw	s0,40(sp)
    4da6:	854a                	mv	a0,s2
    4da8:	5492                	lw	s1,36(sp)
    4daa:	5902                	lw	s2,32(sp)
    4dac:	49f2                	lw	s3,28(sp)
    4dae:	4a62                	lw	s4,24(sp)
    4db0:	4ad2                	lw	s5,20(sp)
    4db2:	4b42                	lw	s6,16(sp)
    4db4:	4bb2                	lw	s7,12(sp)
    4db6:	6145                	addi	sp,sp,48
    4db8:	8082                	ret
    4dba:	4404                	lw	s1,8(s0)
    4dbc:	00442983          	lw	s3,4(s0)
    4dc0:	19fd                	addi	s3,s3,-1
    4dc2:	0009d463          	bgez	s3,4dca <_fwalk_reent+0x4c>
    4dc6:	4000                	lw	s0,0(s0)
    4dc8:	bfe1                	j	4da0 <_fwalk_reent+0x22>
    4dca:	00c4d783          	lhu	a5,12(s1)
    4dce:	00fb7b63          	bgeu	s6,a5,4de4 <_fwalk_reent+0x66>
    4dd2:	00e49783          	lh	a5,14(s1)
    4dd6:	01778763          	beq	a5,s7,4de4 <_fwalk_reent+0x66>
    4dda:	85a6                	mv	a1,s1
    4ddc:	8552                	mv	a0,s4
    4dde:	9a82                	jalr	s5
    4de0:	00a96933          	or	s2,s2,a0
    4de4:	06848493          	addi	s1,s1,104
    4de8:	bfe1                	j	4dc0 <_fwalk_reent+0x42>

00004dea <__swhatbuf_r>:
    4dea:	7119                	addi	sp,sp,-128
    4dec:	daa6                	sw	s1,116(sp)
    4dee:	84ae                	mv	s1,a1
    4df0:	00e59583          	lh	a1,14(a1)
    4df4:	dca2                	sw	s0,120(sp)
    4df6:	de86                	sw	ra,124(sp)
    4df8:	8432                	mv	s0,a2
    4dfa:	0005dc63          	bgez	a1,4e12 <__swhatbuf_r+0x28>
    4dfe:	00c4d783          	lhu	a5,12(s1)
    4e02:	0006a023          	sw	zero,0(a3)
    4e06:	0807f793          	andi	a5,a5,128
    4e0a:	e785                	bnez	a5,4e32 <__swhatbuf_r+0x48>
    4e0c:	40000793          	li	a5,1024
    4e10:	a01d                	j	4e36 <__swhatbuf_r+0x4c>
    4e12:	0830                	addi	a2,sp,24
    4e14:	c636                	sw	a3,12(sp)
    4e16:	5b9000ef          	jal	ra,5bce <_fstat_r>
    4e1a:	46b2                	lw	a3,12(sp)
    4e1c:	fe0541e3          	bltz	a0,4dfe <__swhatbuf_r+0x14>
    4e20:	4772                	lw	a4,28(sp)
    4e22:	67bd                	lui	a5,0xf
    4e24:	8ff9                	and	a5,a5,a4
    4e26:	7779                	lui	a4,0xffffe
    4e28:	97ba                	add	a5,a5,a4
    4e2a:	0017b793          	seqz	a5,a5
    4e2e:	c29c                	sw	a5,0(a3)
    4e30:	bff1                	j	4e0c <__swhatbuf_r+0x22>
    4e32:	04000793          	li	a5,64
    4e36:	c01c                	sw	a5,0(s0)
    4e38:	50f6                	lw	ra,124(sp)
    4e3a:	5466                	lw	s0,120(sp)
    4e3c:	54d6                	lw	s1,116(sp)
    4e3e:	4501                	li	a0,0
    4e40:	6109                	addi	sp,sp,128
    4e42:	8082                	ret

00004e44 <__smakebuf_r>:
    4e44:	00c5d783          	lhu	a5,12(a1)
    4e48:	1101                	addi	sp,sp,-32
    4e4a:	cc22                	sw	s0,24(sp)
    4e4c:	ce06                	sw	ra,28(sp)
    4e4e:	ca26                	sw	s1,20(sp)
    4e50:	c84a                	sw	s2,16(sp)
    4e52:	8b89                	andi	a5,a5,2
    4e54:	842e                	mv	s0,a1
    4e56:	cf89                	beqz	a5,4e70 <__smakebuf_r+0x2c>
    4e58:	04740793          	addi	a5,s0,71
    4e5c:	c01c                	sw	a5,0(s0)
    4e5e:	c81c                	sw	a5,16(s0)
    4e60:	4785                	li	a5,1
    4e62:	c85c                	sw	a5,20(s0)
    4e64:	40f2                	lw	ra,28(sp)
    4e66:	4462                	lw	s0,24(sp)
    4e68:	44d2                	lw	s1,20(sp)
    4e6a:	4942                	lw	s2,16(sp)
    4e6c:	6105                	addi	sp,sp,32
    4e6e:	8082                	ret
    4e70:	0074                	addi	a3,sp,12
    4e72:	0030                	addi	a2,sp,8
    4e74:	84aa                	mv	s1,a0
    4e76:	f75ff0ef          	jal	ra,4dea <__swhatbuf_r>
    4e7a:	45a2                	lw	a1,8(sp)
    4e7c:	892a                	mv	s2,a0
    4e7e:	8526                	mv	a0,s1
    4e80:	2231                	jal	4f8c <_malloc_r>
    4e82:	ed01                	bnez	a0,4e9a <__smakebuf_r+0x56>
    4e84:	00c41783          	lh	a5,12(s0)
    4e88:	2007f713          	andi	a4,a5,512
    4e8c:	ff61                	bnez	a4,4e64 <__smakebuf_r+0x20>
    4e8e:	9bf1                	andi	a5,a5,-4
    4e90:	0027e793          	ori	a5,a5,2
    4e94:	00f41623          	sh	a5,12(s0)
    4e98:	b7c1                	j	4e58 <__smakebuf_r+0x14>
    4e9a:	00000797          	auipc	a5,0x0
    4e9e:	d8878793          	addi	a5,a5,-632 # 4c22 <_cleanup_r>
    4ea2:	d49c                	sw	a5,40(s1)
    4ea4:	00c45783          	lhu	a5,12(s0)
    4ea8:	c008                	sw	a0,0(s0)
    4eaa:	c808                	sw	a0,16(s0)
    4eac:	0807e793          	ori	a5,a5,128
    4eb0:	00f41623          	sh	a5,12(s0)
    4eb4:	47a2                	lw	a5,8(sp)
    4eb6:	c85c                	sw	a5,20(s0)
    4eb8:	47b2                	lw	a5,12(sp)
    4eba:	cf91                	beqz	a5,4ed6 <__smakebuf_r+0x92>
    4ebc:	00e41583          	lh	a1,14(s0)
    4ec0:	8526                	mv	a0,s1
    4ec2:	537000ef          	jal	ra,5bf8 <_isatty_r>
    4ec6:	c901                	beqz	a0,4ed6 <__smakebuf_r+0x92>
    4ec8:	00c45783          	lhu	a5,12(s0)
    4ecc:	9bf1                	andi	a5,a5,-4
    4ece:	0017e793          	ori	a5,a5,1
    4ed2:	00f41623          	sh	a5,12(s0)
    4ed6:	00c45783          	lhu	a5,12(s0)
    4eda:	00f96933          	or	s2,s2,a5
    4ede:	01241623          	sh	s2,12(s0)
    4ee2:	b749                	j	4e64 <__smakebuf_r+0x20>

00004ee4 <_free_r>:
    4ee4:	c1dd                	beqz	a1,4f8a <_free_r+0xa6>
    4ee6:	ffc5a783          	lw	a5,-4(a1)
    4eea:	1141                	addi	sp,sp,-16
    4eec:	c422                	sw	s0,8(sp)
    4eee:	c606                	sw	ra,12(sp)
    4ef0:	c226                	sw	s1,4(sp)
    4ef2:	ffc58413          	addi	s0,a1,-4
    4ef6:	0007d363          	bgez	a5,4efc <_free_r+0x18>
    4efa:	943e                	add	s0,s0,a5
    4efc:	84aa                	mv	s1,a0
    4efe:	669000ef          	jal	ra,5d66 <__malloc_lock>
    4f02:	84818793          	addi	a5,gp,-1976 # 200000b8 <__malloc_free_list>
    4f06:	439c                	lw	a5,0(a5)
    4f08:	ef81                	bnez	a5,4f20 <_free_r+0x3c>
    4f0a:	00042223          	sw	zero,4(s0)
    4f0e:	8481a423          	sw	s0,-1976(gp) # 200000b8 <__malloc_free_list>
    4f12:	4422                	lw	s0,8(sp)
    4f14:	40b2                	lw	ra,12(sp)
    4f16:	8526                	mv	a0,s1
    4f18:	4492                	lw	s1,4(sp)
    4f1a:	0141                	addi	sp,sp,16
    4f1c:	64d0006f          	j	5d68 <__malloc_unlock>
    4f20:	00f47e63          	bgeu	s0,a5,4f3c <_free_r+0x58>
    4f24:	4014                	lw	a3,0(s0)
    4f26:	00d40733          	add	a4,s0,a3
    4f2a:	00e79663          	bne	a5,a4,4f36 <_free_r+0x52>
    4f2e:	4398                	lw	a4,0(a5)
    4f30:	43dc                	lw	a5,4(a5)
    4f32:	9736                	add	a4,a4,a3
    4f34:	c018                	sw	a4,0(s0)
    4f36:	c05c                	sw	a5,4(s0)
    4f38:	bfd9                	j	4f0e <_free_r+0x2a>
    4f3a:	87ba                	mv	a5,a4
    4f3c:	43d8                	lw	a4,4(a5)
    4f3e:	c319                	beqz	a4,4f44 <_free_r+0x60>
    4f40:	fee47de3          	bgeu	s0,a4,4f3a <_free_r+0x56>
    4f44:	4394                	lw	a3,0(a5)
    4f46:	00d78633          	add	a2,a5,a3
    4f4a:	00861f63          	bne	a2,s0,4f68 <_free_r+0x84>
    4f4e:	4010                	lw	a2,0(s0)
    4f50:	96b2                	add	a3,a3,a2
    4f52:	c394                	sw	a3,0(a5)
    4f54:	00d78633          	add	a2,a5,a3
    4f58:	fac71de3          	bne	a4,a2,4f12 <_free_r+0x2e>
    4f5c:	4310                	lw	a2,0(a4)
    4f5e:	4358                	lw	a4,4(a4)
    4f60:	96b2                	add	a3,a3,a2
    4f62:	c394                	sw	a3,0(a5)
    4f64:	c3d8                	sw	a4,4(a5)
    4f66:	b775                	j	4f12 <_free_r+0x2e>
    4f68:	00c47563          	bgeu	s0,a2,4f72 <_free_r+0x8e>
    4f6c:	47b1                	li	a5,12
    4f6e:	c09c                	sw	a5,0(s1)
    4f70:	b74d                	j	4f12 <_free_r+0x2e>
    4f72:	4010                	lw	a2,0(s0)
    4f74:	00c406b3          	add	a3,s0,a2
    4f78:	00d71663          	bne	a4,a3,4f84 <_free_r+0xa0>
    4f7c:	4314                	lw	a3,0(a4)
    4f7e:	4358                	lw	a4,4(a4)
    4f80:	96b2                	add	a3,a3,a2
    4f82:	c014                	sw	a3,0(s0)
    4f84:	c058                	sw	a4,4(s0)
    4f86:	c3c0                	sw	s0,4(a5)
    4f88:	b769                	j	4f12 <_free_r+0x2e>
    4f8a:	8082                	ret

00004f8c <_malloc_r>:
    4f8c:	1101                	addi	sp,sp,-32
    4f8e:	ca26                	sw	s1,20(sp)
    4f90:	00358493          	addi	s1,a1,3
    4f94:	98f1                	andi	s1,s1,-4
    4f96:	ce06                	sw	ra,28(sp)
    4f98:	cc22                	sw	s0,24(sp)
    4f9a:	c84a                	sw	s2,16(sp)
    4f9c:	c64e                	sw	s3,12(sp)
    4f9e:	04a1                	addi	s1,s1,8
    4fa0:	47b1                	li	a5,12
    4fa2:	04f4f563          	bgeu	s1,a5,4fec <_malloc_r+0x60>
    4fa6:	44b1                	li	s1,12
    4fa8:	04b4e463          	bltu	s1,a1,4ff0 <_malloc_r+0x64>
    4fac:	892a                	mv	s2,a0
    4fae:	5b9000ef          	jal	ra,5d66 <__malloc_lock>
    4fb2:	84818793          	addi	a5,gp,-1976 # 200000b8 <__malloc_free_list>
    4fb6:	4398                	lw	a4,0(a5)
    4fb8:	843a                	mv	s0,a4
    4fba:	e429                	bnez	s0,5004 <_malloc_r+0x78>
    4fbc:	84c18793          	addi	a5,gp,-1972 # 200000bc <__malloc_sbrk_start>
    4fc0:	439c                	lw	a5,0(a5)
    4fc2:	e799                	bnez	a5,4fd0 <_malloc_r+0x44>
    4fc4:	4581                	li	a1,0
    4fc6:	854a                	mv	a0,s2
    4fc8:	2cd000ef          	jal	ra,5a94 <_sbrk_r>
    4fcc:	84a1a623          	sw	a0,-1972(gp) # 200000bc <__malloc_sbrk_start>
    4fd0:	85a6                	mv	a1,s1
    4fd2:	854a                	mv	a0,s2
    4fd4:	2c1000ef          	jal	ra,5a94 <_sbrk_r>
    4fd8:	59fd                	li	s3,-1
    4fda:	07351963          	bne	a0,s3,504c <_malloc_r+0xc0>
    4fde:	47b1                	li	a5,12
    4fe0:	00f92023          	sw	a5,0(s2)
    4fe4:	854a                	mv	a0,s2
    4fe6:	583000ef          	jal	ra,5d68 <__malloc_unlock>
    4fea:	a029                	j	4ff4 <_malloc_r+0x68>
    4fec:	fa04dee3          	bgez	s1,4fa8 <_malloc_r+0x1c>
    4ff0:	47b1                	li	a5,12
    4ff2:	c11c                	sw	a5,0(a0)
    4ff4:	4501                	li	a0,0
    4ff6:	40f2                	lw	ra,28(sp)
    4ff8:	4462                	lw	s0,24(sp)
    4ffa:	44d2                	lw	s1,20(sp)
    4ffc:	4942                	lw	s2,16(sp)
    4ffe:	49b2                	lw	s3,12(sp)
    5000:	6105                	addi	sp,sp,32
    5002:	8082                	ret
    5004:	401c                	lw	a5,0(s0)
    5006:	8f85                	sub	a5,a5,s1
    5008:	0207cf63          	bltz	a5,5046 <_malloc_r+0xba>
    500c:	46ad                	li	a3,11
    500e:	00f6f663          	bgeu	a3,a5,501a <_malloc_r+0x8e>
    5012:	c01c                	sw	a5,0(s0)
    5014:	943e                	add	s0,s0,a5
    5016:	c004                	sw	s1,0(s0)
    5018:	a031                	j	5024 <_malloc_r+0x98>
    501a:	405c                	lw	a5,4(s0)
    501c:	02871363          	bne	a4,s0,5042 <_malloc_r+0xb6>
    5020:	84f1a423          	sw	a5,-1976(gp) # 200000b8 <__malloc_free_list>
    5024:	854a                	mv	a0,s2
    5026:	543000ef          	jal	ra,5d68 <__malloc_unlock>
    502a:	00b40513          	addi	a0,s0,11
    502e:	00440793          	addi	a5,s0,4
    5032:	9961                	andi	a0,a0,-8
    5034:	40f50733          	sub	a4,a0,a5
    5038:	df5d                	beqz	a4,4ff6 <_malloc_r+0x6a>
    503a:	943a                	add	s0,s0,a4
    503c:	8f89                	sub	a5,a5,a0
    503e:	c01c                	sw	a5,0(s0)
    5040:	bf5d                	j	4ff6 <_malloc_r+0x6a>
    5042:	c35c                	sw	a5,4(a4)
    5044:	b7c5                	j	5024 <_malloc_r+0x98>
    5046:	8722                	mv	a4,s0
    5048:	4040                	lw	s0,4(s0)
    504a:	bf85                	j	4fba <_malloc_r+0x2e>
    504c:	00350413          	addi	s0,a0,3
    5050:	9871                	andi	s0,s0,-4
    5052:	fc8502e3          	beq	a0,s0,5016 <_malloc_r+0x8a>
    5056:	40a405b3          	sub	a1,s0,a0
    505a:	854a                	mv	a0,s2
    505c:	239000ef          	jal	ra,5a94 <_sbrk_r>
    5060:	fb351be3          	bne	a0,s3,5016 <_malloc_r+0x8a>
    5064:	bfad                	j	4fde <_malloc_r+0x52>

00005066 <__ssputs_r>:
    5066:	1101                	addi	sp,sp,-32
    5068:	c84a                	sw	s2,16(sp)
    506a:	0085a903          	lw	s2,8(a1)
    506e:	cc22                	sw	s0,24(sp)
    5070:	c452                	sw	s4,8(sp)
    5072:	c05a                	sw	s6,0(sp)
    5074:	ce06                	sw	ra,28(sp)
    5076:	ca26                	sw	s1,20(sp)
    5078:	c64e                	sw	s3,12(sp)
    507a:	c256                	sw	s5,4(sp)
    507c:	842e                	mv	s0,a1
    507e:	8b32                	mv	s6,a2
    5080:	8a36                	mv	s4,a3
    5082:	0926ee63          	bltu	a3,s2,511e <__ssputs_r+0xb8>
    5086:	00c5d783          	lhu	a5,12(a1)
    508a:	4807f713          	andi	a4,a5,1152
    508e:	c751                	beqz	a4,511a <__ssputs_r+0xb4>
    5090:	4004                	lw	s1,0(s0)
    5092:	498c                	lw	a1,16(a1)
    5094:	4858                	lw	a4,20(s0)
    5096:	8aaa                	mv	s5,a0
    5098:	40b489b3          	sub	s3,s1,a1
    509c:	448d                	li	s1,3
    509e:	02e484b3          	mul	s1,s1,a4
    50a2:	4709                	li	a4,2
    50a4:	02e4c4b3          	div	s1,s1,a4
    50a8:	00168713          	addi	a4,a3,1
    50ac:	974e                	add	a4,a4,s3
    50ae:	00e4f363          	bgeu	s1,a4,50b4 <__ssputs_r+0x4e>
    50b2:	84ba                	mv	s1,a4
    50b4:	4007f793          	andi	a5,a5,1024
    50b8:	c3d9                	beqz	a5,513e <__ssputs_r+0xd8>
    50ba:	85a6                	mv	a1,s1
    50bc:	8556                	mv	a0,s5
    50be:	ecfff0ef          	jal	ra,4f8c <_malloc_r>
    50c2:	892a                	mv	s2,a0
    50c4:	e50d                	bnez	a0,50ee <__ssputs_r+0x88>
    50c6:	47b1                	li	a5,12
    50c8:	00faa023          	sw	a5,0(s5)
    50cc:	00c45783          	lhu	a5,12(s0)
    50d0:	557d                	li	a0,-1
    50d2:	0407e793          	ori	a5,a5,64
    50d6:	00f41623          	sh	a5,12(s0)
    50da:	40f2                	lw	ra,28(sp)
    50dc:	4462                	lw	s0,24(sp)
    50de:	44d2                	lw	s1,20(sp)
    50e0:	4942                	lw	s2,16(sp)
    50e2:	49b2                	lw	s3,12(sp)
    50e4:	4a22                	lw	s4,8(sp)
    50e6:	4a92                	lw	s5,4(sp)
    50e8:	4b02                	lw	s6,0(sp)
    50ea:	6105                	addi	sp,sp,32
    50ec:	8082                	ret
    50ee:	480c                	lw	a1,16(s0)
    50f0:	864e                	mv	a2,s3
    50f2:	375000ef          	jal	ra,5c66 <memcpy>
    50f6:	00c45783          	lhu	a5,12(s0)
    50fa:	b7f7f793          	andi	a5,a5,-1153
    50fe:	0807e793          	ori	a5,a5,128
    5102:	00f41623          	sh	a5,12(s0)
    5106:	01242823          	sw	s2,16(s0)
    510a:	c844                	sw	s1,20(s0)
    510c:	994e                	add	s2,s2,s3
    510e:	413484b3          	sub	s1,s1,s3
    5112:	01242023          	sw	s2,0(s0)
    5116:	c404                	sw	s1,8(s0)
    5118:	8952                	mv	s2,s4
    511a:	012a7363          	bgeu	s4,s2,5120 <__ssputs_r+0xba>
    511e:	8952                	mv	s2,s4
    5120:	4008                	lw	a0,0(s0)
    5122:	864a                	mv	a2,s2
    5124:	85da                	mv	a1,s6
    5126:	3f7000ef          	jal	ra,5d1c <memmove>
    512a:	441c                	lw	a5,8(s0)
    512c:	4501                	li	a0,0
    512e:	412787b3          	sub	a5,a5,s2
    5132:	c41c                	sw	a5,8(s0)
    5134:	401c                	lw	a5,0(s0)
    5136:	993e                	add	s2,s2,a5
    5138:	01242023          	sw	s2,0(s0)
    513c:	bf79                	j	50da <__ssputs_r+0x74>
    513e:	8626                	mv	a2,s1
    5140:	8556                	mv	a0,s5
    5142:	429000ef          	jal	ra,5d6a <_realloc_r>
    5146:	892a                	mv	s2,a0
    5148:	fd5d                	bnez	a0,5106 <__ssputs_r+0xa0>
    514a:	480c                	lw	a1,16(s0)
    514c:	8556                	mv	a0,s5
    514e:	d97ff0ef          	jal	ra,4ee4 <_free_r>
    5152:	bf95                	j	50c6 <__ssputs_r+0x60>

00005154 <_svfiprintf_r>:
    5154:	00c5d783          	lhu	a5,12(a1)
    5158:	7171                	addi	sp,sp,-176
    515a:	d326                	sw	s1,164(sp)
    515c:	d14a                	sw	s2,160(sp)
    515e:	cf4e                	sw	s3,156(sp)
    5160:	d706                	sw	ra,172(sp)
    5162:	d522                	sw	s0,168(sp)
    5164:	cd52                	sw	s4,152(sp)
    5166:	cb56                	sw	s5,148(sp)
    5168:	c95a                	sw	s6,144(sp)
    516a:	c75e                	sw	s7,140(sp)
    516c:	c562                	sw	s8,136(sp)
    516e:	c366                	sw	s9,132(sp)
    5170:	0807f793          	andi	a5,a5,128
    5174:	89aa                	mv	s3,a0
    5176:	892e                	mv	s2,a1
    5178:	84b2                	mv	s1,a2
    517a:	c3b9                	beqz	a5,51c0 <_svfiprintf_r+0x6c>
    517c:	499c                	lw	a5,16(a1)
    517e:	e3a9                	bnez	a5,51c0 <_svfiprintf_r+0x6c>
    5180:	04000593          	li	a1,64
    5184:	c636                	sw	a3,12(sp)
    5186:	e07ff0ef          	jal	ra,4f8c <_malloc_r>
    518a:	00a92023          	sw	a0,0(s2)
    518e:	00a92823          	sw	a0,16(s2)
    5192:	46b2                	lw	a3,12(sp)
    5194:	e115                	bnez	a0,51b8 <_svfiprintf_r+0x64>
    5196:	47b1                	li	a5,12
    5198:	00f9a023          	sw	a5,0(s3)
    519c:	557d                	li	a0,-1
    519e:	50ba                	lw	ra,172(sp)
    51a0:	542a                	lw	s0,168(sp)
    51a2:	549a                	lw	s1,164(sp)
    51a4:	590a                	lw	s2,160(sp)
    51a6:	49fa                	lw	s3,156(sp)
    51a8:	4a6a                	lw	s4,152(sp)
    51aa:	4ada                	lw	s5,148(sp)
    51ac:	4b4a                	lw	s6,144(sp)
    51ae:	4bba                	lw	s7,140(sp)
    51b0:	4c2a                	lw	s8,136(sp)
    51b2:	4c9a                	lw	s9,132(sp)
    51b4:	614d                	addi	sp,sp,176
    51b6:	8082                	ret
    51b8:	04000793          	li	a5,64
    51bc:	00f92a23          	sw	a5,20(s2)
    51c0:	02000793          	li	a5,32
    51c4:	02f10ca3          	sb	a5,57(sp)
    51c8:	03000793          	li	a5,48
    51cc:	da02                	sw	zero,52(sp)
    51ce:	02f10d23          	sb	a5,58(sp)
    51d2:	ce36                	sw	a3,28(sp)
    51d4:	02500b93          	li	s7,37
    51d8:	00004a97          	auipc	s5,0x4
    51dc:	0dca8a93          	addi	s5,s5,220 # 92b4 <__sf_fake_stdout+0x20>
    51e0:	4c05                	li	s8,1
    51e2:	4b29                	li	s6,10
    51e4:	8426                	mv	s0,s1
    51e6:	00044783          	lbu	a5,0(s0)
    51ea:	c399                	beqz	a5,51f0 <_svfiprintf_r+0x9c>
    51ec:	09779d63          	bne	a5,s7,5286 <_svfiprintf_r+0x132>
    51f0:	40940cb3          	sub	s9,s0,s1
    51f4:	000c8e63          	beqz	s9,5210 <_svfiprintf_r+0xbc>
    51f8:	86e6                	mv	a3,s9
    51fa:	8626                	mv	a2,s1
    51fc:	85ca                	mv	a1,s2
    51fe:	854e                	mv	a0,s3
    5200:	e67ff0ef          	jal	ra,5066 <__ssputs_r>
    5204:	57fd                	li	a5,-1
    5206:	1af50463          	beq	a0,a5,53ae <_svfiprintf_r+0x25a>
    520a:	56d2                	lw	a3,52(sp)
    520c:	96e6                	add	a3,a3,s9
    520e:	da36                	sw	a3,52(sp)
    5210:	00044783          	lbu	a5,0(s0)
    5214:	18078d63          	beqz	a5,53ae <_svfiprintf_r+0x25a>
    5218:	57fd                	li	a5,-1
    521a:	00140493          	addi	s1,s0,1
    521e:	d002                	sw	zero,32(sp)
    5220:	d602                	sw	zero,44(sp)
    5222:	d23e                	sw	a5,36(sp)
    5224:	d402                	sw	zero,40(sp)
    5226:	060101a3          	sb	zero,99(sp)
    522a:	dc82                	sw	zero,120(sp)
    522c:	0004c583          	lbu	a1,0(s1)
    5230:	4615                	li	a2,5
    5232:	8556                	mv	a0,s5
    5234:	219000ef          	jal	ra,5c4c <memchr>
    5238:	00148413          	addi	s0,s1,1
    523c:	5782                	lw	a5,32(sp)
    523e:	e531                	bnez	a0,528a <_svfiprintf_r+0x136>
    5240:	0107f713          	andi	a4,a5,16
    5244:	c709                	beqz	a4,524e <_svfiprintf_r+0xfa>
    5246:	02000713          	li	a4,32
    524a:	06e101a3          	sb	a4,99(sp)
    524e:	0087f713          	andi	a4,a5,8
    5252:	c709                	beqz	a4,525c <_svfiprintf_r+0x108>
    5254:	02b00713          	li	a4,43
    5258:	06e101a3          	sb	a4,99(sp)
    525c:	0004c683          	lbu	a3,0(s1)
    5260:	02a00713          	li	a4,42
    5264:	02e68b63          	beq	a3,a4,529a <_svfiprintf_r+0x146>
    5268:	57b2                	lw	a5,44(sp)
    526a:	8426                	mv	s0,s1
    526c:	4681                	li	a3,0
    526e:	4625                	li	a2,9
    5270:	00044703          	lbu	a4,0(s0)
    5274:	00140593          	addi	a1,s0,1
    5278:	fd070713          	addi	a4,a4,-48 # ffffdfd0 <_eusrstack+0xdfff5fd0>
    527c:	06e67463          	bgeu	a2,a4,52e4 <_svfiprintf_r+0x190>
    5280:	c68d                	beqz	a3,52aa <_svfiprintf_r+0x156>
    5282:	d63e                	sw	a5,44(sp)
    5284:	a01d                	j	52aa <_svfiprintf_r+0x156>
    5286:	0405                	addi	s0,s0,1
    5288:	bfb9                	j	51e6 <_svfiprintf_r+0x92>
    528a:	41550533          	sub	a0,a0,s5
    528e:	00ac1533          	sll	a0,s8,a0
    5292:	8fc9                	or	a5,a5,a0
    5294:	d03e                	sw	a5,32(sp)
    5296:	84a2                	mv	s1,s0
    5298:	bf51                	j	522c <_svfiprintf_r+0xd8>
    529a:	4772                	lw	a4,28(sp)
    529c:	00470693          	addi	a3,a4,4
    52a0:	4318                	lw	a4,0(a4)
    52a2:	ce36                	sw	a3,28(sp)
    52a4:	02074963          	bltz	a4,52d6 <_svfiprintf_r+0x182>
    52a8:	d63a                	sw	a4,44(sp)
    52aa:	00044703          	lbu	a4,0(s0)
    52ae:	02e00793          	li	a5,46
    52b2:	04f71f63          	bne	a4,a5,5310 <_svfiprintf_r+0x1bc>
    52b6:	00144703          	lbu	a4,1(s0)
    52ba:	02a00793          	li	a5,42
    52be:	02f71b63          	bne	a4,a5,52f4 <_svfiprintf_r+0x1a0>
    52c2:	47f2                	lw	a5,28(sp)
    52c4:	0409                	addi	s0,s0,2
    52c6:	00478713          	addi	a4,a5,4
    52ca:	439c                	lw	a5,0(a5)
    52cc:	ce3a                	sw	a4,28(sp)
    52ce:	0207c163          	bltz	a5,52f0 <_svfiprintf_r+0x19c>
    52d2:	d23e                	sw	a5,36(sp)
    52d4:	a835                	j	5310 <_svfiprintf_r+0x1bc>
    52d6:	40e00733          	neg	a4,a4
    52da:	0027e793          	ori	a5,a5,2
    52de:	d63a                	sw	a4,44(sp)
    52e0:	d03e                	sw	a5,32(sp)
    52e2:	b7e1                	j	52aa <_svfiprintf_r+0x156>
    52e4:	036787b3          	mul	a5,a5,s6
    52e8:	4685                	li	a3,1
    52ea:	842e                	mv	s0,a1
    52ec:	97ba                	add	a5,a5,a4
    52ee:	b749                	j	5270 <_svfiprintf_r+0x11c>
    52f0:	57fd                	li	a5,-1
    52f2:	b7c5                	j	52d2 <_svfiprintf_r+0x17e>
    52f4:	0405                	addi	s0,s0,1
    52f6:	d202                	sw	zero,36(sp)
    52f8:	4681                	li	a3,0
    52fa:	4781                	li	a5,0
    52fc:	4625                	li	a2,9
    52fe:	00044703          	lbu	a4,0(s0)
    5302:	00140593          	addi	a1,s0,1
    5306:	fd070713          	addi	a4,a4,-48
    530a:	06e67863          	bgeu	a2,a4,537a <_svfiprintf_r+0x226>
    530e:	f2f1                	bnez	a3,52d2 <_svfiprintf_r+0x17e>
    5310:	00044583          	lbu	a1,0(s0)
    5314:	460d                	li	a2,3
    5316:	00004517          	auipc	a0,0x4
    531a:	fa650513          	addi	a0,a0,-90 # 92bc <__sf_fake_stdout+0x28>
    531e:	12f000ef          	jal	ra,5c4c <memchr>
    5322:	cd11                	beqz	a0,533e <_svfiprintf_r+0x1ea>
    5324:	00004797          	auipc	a5,0x4
    5328:	f9878793          	addi	a5,a5,-104 # 92bc <__sf_fake_stdout+0x28>
    532c:	8d1d                	sub	a0,a0,a5
    532e:	04000793          	li	a5,64
    5332:	00a797b3          	sll	a5,a5,a0
    5336:	5502                	lw	a0,32(sp)
    5338:	0405                	addi	s0,s0,1
    533a:	8d5d                	or	a0,a0,a5
    533c:	d02a                	sw	a0,32(sp)
    533e:	00044583          	lbu	a1,0(s0)
    5342:	4619                	li	a2,6
    5344:	00004517          	auipc	a0,0x4
    5348:	f7c50513          	addi	a0,a0,-132 # 92c0 <__sf_fake_stdout+0x2c>
    534c:	00140493          	addi	s1,s0,1
    5350:	02b10c23          	sb	a1,56(sp)
    5354:	0f9000ef          	jal	ra,5c4c <memchr>
    5358:	c525                	beqz	a0,53c0 <_svfiprintf_r+0x26c>
    535a:	ffffb797          	auipc	a5,0xffffb
    535e:	ca678793          	addi	a5,a5,-858 # 0 <_sinit>
    5362:	e795                	bnez	a5,538e <_svfiprintf_r+0x23a>
    5364:	5702                	lw	a4,32(sp)
    5366:	47f2                	lw	a5,28(sp)
    5368:	10077713          	andi	a4,a4,256
    536c:	cf09                	beqz	a4,5386 <_svfiprintf_r+0x232>
    536e:	0791                	addi	a5,a5,4
    5370:	ce3e                	sw	a5,28(sp)
    5372:	57d2                	lw	a5,52(sp)
    5374:	97d2                	add	a5,a5,s4
    5376:	da3e                	sw	a5,52(sp)
    5378:	b5b5                	j	51e4 <_svfiprintf_r+0x90>
    537a:	036787b3          	mul	a5,a5,s6
    537e:	4685                	li	a3,1
    5380:	842e                	mv	s0,a1
    5382:	97ba                	add	a5,a5,a4
    5384:	bfad                	j	52fe <_svfiprintf_r+0x1aa>
    5386:	079d                	addi	a5,a5,7
    5388:	9be1                	andi	a5,a5,-8
    538a:	07a1                	addi	a5,a5,8
    538c:	b7d5                	j	5370 <_svfiprintf_r+0x21c>
    538e:	0878                	addi	a4,sp,28
    5390:	00000697          	auipc	a3,0x0
    5394:	cd668693          	addi	a3,a3,-810 # 5066 <__ssputs_r>
    5398:	864a                	mv	a2,s2
    539a:	100c                	addi	a1,sp,32
    539c:	854e                	mv	a0,s3
    539e:	00000097          	auipc	ra,0x0
    53a2:	000000e7          	jalr	zero # 0 <_sinit>
    53a6:	57fd                	li	a5,-1
    53a8:	8a2a                	mv	s4,a0
    53aa:	fcf514e3          	bne	a0,a5,5372 <_svfiprintf_r+0x21e>
    53ae:	00c95783          	lhu	a5,12(s2)
    53b2:	557d                	li	a0,-1
    53b4:	0407f793          	andi	a5,a5,64
    53b8:	de0793e3          	bnez	a5,519e <_svfiprintf_r+0x4a>
    53bc:	5552                	lw	a0,52(sp)
    53be:	b3c5                	j	519e <_svfiprintf_r+0x4a>
    53c0:	0878                	addi	a4,sp,28
    53c2:	00000697          	auipc	a3,0x0
    53c6:	ca468693          	addi	a3,a3,-860 # 5066 <__ssputs_r>
    53ca:	864a                	mv	a2,s2
    53cc:	100c                	addi	a1,sp,32
    53ce:	854e                	mv	a0,s3
    53d0:	2929                	jal	57ea <_printf_i>
    53d2:	bfd1                	j	53a6 <_svfiprintf_r+0x252>

000053d4 <__sfputc_r>:
    53d4:	461c                	lw	a5,8(a2)
    53d6:	17fd                	addi	a5,a5,-1
    53d8:	c61c                	sw	a5,8(a2)
    53da:	0007da63          	bgez	a5,53ee <__sfputc_r+0x1a>
    53de:	4e18                	lw	a4,24(a2)
    53e0:	00e7c563          	blt	a5,a4,53ea <__sfputc_r+0x16>
    53e4:	47a9                	li	a5,10
    53e6:	00f59463          	bne	a1,a5,53ee <__sfputc_r+0x1a>
    53ea:	c60ff06f          	j	484a <__swbuf_r>
    53ee:	421c                	lw	a5,0(a2)
    53f0:	852e                	mv	a0,a1
    53f2:	00178713          	addi	a4,a5,1
    53f6:	c218                	sw	a4,0(a2)
    53f8:	00b78023          	sb	a1,0(a5)
    53fc:	8082                	ret

000053fe <__sfputs_r>:
    53fe:	1101                	addi	sp,sp,-32
    5400:	cc22                	sw	s0,24(sp)
    5402:	ca26                	sw	s1,20(sp)
    5404:	c84a                	sw	s2,16(sp)
    5406:	c64e                	sw	s3,12(sp)
    5408:	c452                	sw	s4,8(sp)
    540a:	ce06                	sw	ra,28(sp)
    540c:	892a                	mv	s2,a0
    540e:	89ae                	mv	s3,a1
    5410:	8432                	mv	s0,a2
    5412:	00d604b3          	add	s1,a2,a3
    5416:	5a7d                	li	s4,-1
    5418:	00941463          	bne	s0,s1,5420 <__sfputs_r+0x22>
    541c:	4501                	li	a0,0
    541e:	a811                	j	5432 <__sfputs_r+0x34>
    5420:	00044583          	lbu	a1,0(s0)
    5424:	864e                	mv	a2,s3
    5426:	854a                	mv	a0,s2
    5428:	fadff0ef          	jal	ra,53d4 <__sfputc_r>
    542c:	0405                	addi	s0,s0,1
    542e:	ff4515e3          	bne	a0,s4,5418 <__sfputs_r+0x1a>
    5432:	40f2                	lw	ra,28(sp)
    5434:	4462                	lw	s0,24(sp)
    5436:	44d2                	lw	s1,20(sp)
    5438:	4942                	lw	s2,16(sp)
    543a:	49b2                	lw	s3,12(sp)
    543c:	4a22                	lw	s4,8(sp)
    543e:	6105                	addi	sp,sp,32
    5440:	8082                	ret

00005442 <_vfiprintf_r>:
    5442:	7135                	addi	sp,sp,-160
    5444:	cd22                	sw	s0,152(sp)
    5446:	cb26                	sw	s1,148(sp)
    5448:	c94a                	sw	s2,144(sp)
    544a:	c74e                	sw	s3,140(sp)
    544c:	cf06                	sw	ra,156(sp)
    544e:	c552                	sw	s4,136(sp)
    5450:	c356                	sw	s5,132(sp)
    5452:	c15a                	sw	s6,128(sp)
    5454:	dede                	sw	s7,124(sp)
    5456:	dce2                	sw	s8,120(sp)
    5458:	dae6                	sw	s9,116(sp)
    545a:	89aa                	mv	s3,a0
    545c:	84ae                	mv	s1,a1
    545e:	8932                	mv	s2,a2
    5460:	8436                	mv	s0,a3
    5462:	c509                	beqz	a0,546c <_vfiprintf_r+0x2a>
    5464:	4d1c                	lw	a5,24(a0)
    5466:	e399                	bnez	a5,546c <_vfiprintf_r+0x2a>
    5468:	80bff0ef          	jal	ra,4c72 <__sinit>
    546c:	00004797          	auipc	a5,0x4
    5470:	e0878793          	addi	a5,a5,-504 # 9274 <__sf_fake_stdin>
    5474:	0cf49c63          	bne	s1,a5,554c <_vfiprintf_r+0x10a>
    5478:	0049a483          	lw	s1,4(s3)
    547c:	00c4d783          	lhu	a5,12(s1)
    5480:	8ba1                	andi	a5,a5,8
    5482:	c7fd                	beqz	a5,5570 <_vfiprintf_r+0x12e>
    5484:	489c                	lw	a5,16(s1)
    5486:	c7ed                	beqz	a5,5570 <_vfiprintf_r+0x12e>
    5488:	02000793          	li	a5,32
    548c:	02f104a3          	sb	a5,41(sp)
    5490:	03000793          	li	a5,48
    5494:	d202                	sw	zero,36(sp)
    5496:	02f10523          	sb	a5,42(sp)
    549a:	c622                	sw	s0,12(sp)
    549c:	02500b93          	li	s7,37
    54a0:	00004a97          	auipc	s5,0x4
    54a4:	e14a8a93          	addi	s5,s5,-492 # 92b4 <__sf_fake_stdout+0x20>
    54a8:	4c05                	li	s8,1
    54aa:	4b29                	li	s6,10
    54ac:	844a                	mv	s0,s2
    54ae:	00044783          	lbu	a5,0(s0)
    54b2:	c399                	beqz	a5,54b8 <_vfiprintf_r+0x76>
    54b4:	0f779163          	bne	a5,s7,5596 <_vfiprintf_r+0x154>
    54b8:	41240cb3          	sub	s9,s0,s2
    54bc:	000c8e63          	beqz	s9,54d8 <_vfiprintf_r+0x96>
    54c0:	86e6                	mv	a3,s9
    54c2:	864a                	mv	a2,s2
    54c4:	85a6                	mv	a1,s1
    54c6:	854e                	mv	a0,s3
    54c8:	f37ff0ef          	jal	ra,53fe <__sfputs_r>
    54cc:	57fd                	li	a5,-1
    54ce:	1ef50663          	beq	a0,a5,56ba <_vfiprintf_r+0x278>
    54d2:	5692                	lw	a3,36(sp)
    54d4:	96e6                	add	a3,a3,s9
    54d6:	d236                	sw	a3,36(sp)
    54d8:	00044783          	lbu	a5,0(s0)
    54dc:	1c078f63          	beqz	a5,56ba <_vfiprintf_r+0x278>
    54e0:	57fd                	li	a5,-1
    54e2:	00140913          	addi	s2,s0,1
    54e6:	c802                	sw	zero,16(sp)
    54e8:	ce02                	sw	zero,28(sp)
    54ea:	ca3e                	sw	a5,20(sp)
    54ec:	cc02                	sw	zero,24(sp)
    54ee:	040109a3          	sb	zero,83(sp)
    54f2:	d482                	sw	zero,104(sp)
    54f4:	00094583          	lbu	a1,0(s2)
    54f8:	4615                	li	a2,5
    54fa:	8556                	mv	a0,s5
    54fc:	2f81                	jal	5c4c <memchr>
    54fe:	00190413          	addi	s0,s2,1
    5502:	47c2                	lw	a5,16(sp)
    5504:	e959                	bnez	a0,559a <_vfiprintf_r+0x158>
    5506:	0107f713          	andi	a4,a5,16
    550a:	c709                	beqz	a4,5514 <_vfiprintf_r+0xd2>
    550c:	02000713          	li	a4,32
    5510:	04e109a3          	sb	a4,83(sp)
    5514:	0087f713          	andi	a4,a5,8
    5518:	c709                	beqz	a4,5522 <_vfiprintf_r+0xe0>
    551a:	02b00713          	li	a4,43
    551e:	04e109a3          	sb	a4,83(sp)
    5522:	00094683          	lbu	a3,0(s2)
    5526:	02a00713          	li	a4,42
    552a:	08e68063          	beq	a3,a4,55aa <_vfiprintf_r+0x168>
    552e:	47f2                	lw	a5,28(sp)
    5530:	844a                	mv	s0,s2
    5532:	4681                	li	a3,0
    5534:	4625                	li	a2,9
    5536:	00044703          	lbu	a4,0(s0)
    553a:	00140593          	addi	a1,s0,1
    553e:	fd070713          	addi	a4,a4,-48
    5542:	0ae67963          	bgeu	a2,a4,55f4 <_vfiprintf_r+0x1b2>
    5546:	cab5                	beqz	a3,55ba <_vfiprintf_r+0x178>
    5548:	ce3e                	sw	a5,28(sp)
    554a:	a885                	j	55ba <_vfiprintf_r+0x178>
    554c:	00004797          	auipc	a5,0x4
    5550:	d4878793          	addi	a5,a5,-696 # 9294 <__sf_fake_stdout>
    5554:	00f49563          	bne	s1,a5,555e <_vfiprintf_r+0x11c>
    5558:	0089a483          	lw	s1,8(s3)
    555c:	b705                	j	547c <_vfiprintf_r+0x3a>
    555e:	00004797          	auipc	a5,0x4
    5562:	cf678793          	addi	a5,a5,-778 # 9254 <__sf_fake_stderr>
    5566:	f0f49be3          	bne	s1,a5,547c <_vfiprintf_r+0x3a>
    556a:	00c9a483          	lw	s1,12(s3)
    556e:	b739                	j	547c <_vfiprintf_r+0x3a>
    5570:	85a6                	mv	a1,s1
    5572:	854e                	mv	a0,s3
    5574:	b96ff0ef          	jal	ra,490a <__swsetup_r>
    5578:	d901                	beqz	a0,5488 <_vfiprintf_r+0x46>
    557a:	557d                	li	a0,-1
    557c:	40fa                	lw	ra,156(sp)
    557e:	446a                	lw	s0,152(sp)
    5580:	44da                	lw	s1,148(sp)
    5582:	494a                	lw	s2,144(sp)
    5584:	49ba                	lw	s3,140(sp)
    5586:	4a2a                	lw	s4,136(sp)
    5588:	4a9a                	lw	s5,132(sp)
    558a:	4b0a                	lw	s6,128(sp)
    558c:	5bf6                	lw	s7,124(sp)
    558e:	5c66                	lw	s8,120(sp)
    5590:	5cd6                	lw	s9,116(sp)
    5592:	610d                	addi	sp,sp,160
    5594:	8082                	ret
    5596:	0405                	addi	s0,s0,1
    5598:	bf19                	j	54ae <_vfiprintf_r+0x6c>
    559a:	41550533          	sub	a0,a0,s5
    559e:	00ac1533          	sll	a0,s8,a0
    55a2:	8fc9                	or	a5,a5,a0
    55a4:	c83e                	sw	a5,16(sp)
    55a6:	8922                	mv	s2,s0
    55a8:	b7b1                	j	54f4 <_vfiprintf_r+0xb2>
    55aa:	4732                	lw	a4,12(sp)
    55ac:	00470693          	addi	a3,a4,4
    55b0:	4318                	lw	a4,0(a4)
    55b2:	c636                	sw	a3,12(sp)
    55b4:	02074963          	bltz	a4,55e6 <_vfiprintf_r+0x1a4>
    55b8:	ce3a                	sw	a4,28(sp)
    55ba:	00044703          	lbu	a4,0(s0)
    55be:	02e00793          	li	a5,46
    55c2:	04f71f63          	bne	a4,a5,5620 <_vfiprintf_r+0x1de>
    55c6:	00144703          	lbu	a4,1(s0)
    55ca:	02a00793          	li	a5,42
    55ce:	02f71b63          	bne	a4,a5,5604 <_vfiprintf_r+0x1c2>
    55d2:	47b2                	lw	a5,12(sp)
    55d4:	0409                	addi	s0,s0,2
    55d6:	00478713          	addi	a4,a5,4
    55da:	439c                	lw	a5,0(a5)
    55dc:	c63a                	sw	a4,12(sp)
    55de:	0207c163          	bltz	a5,5600 <_vfiprintf_r+0x1be>
    55e2:	ca3e                	sw	a5,20(sp)
    55e4:	a835                	j	5620 <_vfiprintf_r+0x1de>
    55e6:	40e00733          	neg	a4,a4
    55ea:	0027e793          	ori	a5,a5,2
    55ee:	ce3a                	sw	a4,28(sp)
    55f0:	c83e                	sw	a5,16(sp)
    55f2:	b7e1                	j	55ba <_vfiprintf_r+0x178>
    55f4:	036787b3          	mul	a5,a5,s6
    55f8:	4685                	li	a3,1
    55fa:	842e                	mv	s0,a1
    55fc:	97ba                	add	a5,a5,a4
    55fe:	bf25                	j	5536 <_vfiprintf_r+0xf4>
    5600:	57fd                	li	a5,-1
    5602:	b7c5                	j	55e2 <_vfiprintf_r+0x1a0>
    5604:	0405                	addi	s0,s0,1
    5606:	ca02                	sw	zero,20(sp)
    5608:	4681                	li	a3,0
    560a:	4781                	li	a5,0
    560c:	4625                	li	a2,9
    560e:	00044703          	lbu	a4,0(s0)
    5612:	00140593          	addi	a1,s0,1
    5616:	fd070713          	addi	a4,a4,-48
    561a:	06e67663          	bgeu	a2,a4,5686 <_vfiprintf_r+0x244>
    561e:	f2f1                	bnez	a3,55e2 <_vfiprintf_r+0x1a0>
    5620:	00044583          	lbu	a1,0(s0)
    5624:	460d                	li	a2,3
    5626:	00004517          	auipc	a0,0x4
    562a:	c9650513          	addi	a0,a0,-874 # 92bc <__sf_fake_stdout+0x28>
    562e:	2d39                	jal	5c4c <memchr>
    5630:	cd11                	beqz	a0,564c <_vfiprintf_r+0x20a>
    5632:	00004797          	auipc	a5,0x4
    5636:	c8a78793          	addi	a5,a5,-886 # 92bc <__sf_fake_stdout+0x28>
    563a:	8d1d                	sub	a0,a0,a5
    563c:	04000793          	li	a5,64
    5640:	00a797b3          	sll	a5,a5,a0
    5644:	4542                	lw	a0,16(sp)
    5646:	0405                	addi	s0,s0,1
    5648:	8d5d                	or	a0,a0,a5
    564a:	c82a                	sw	a0,16(sp)
    564c:	00044583          	lbu	a1,0(s0)
    5650:	4619                	li	a2,6
    5652:	00004517          	auipc	a0,0x4
    5656:	c6e50513          	addi	a0,a0,-914 # 92c0 <__sf_fake_stdout+0x2c>
    565a:	00140913          	addi	s2,s0,1
    565e:	02b10423          	sb	a1,40(sp)
    5662:	23ed                	jal	5c4c <memchr>
    5664:	c13d                	beqz	a0,56ca <_vfiprintf_r+0x288>
    5666:	ffffb797          	auipc	a5,0xffffb
    566a:	99a78793          	addi	a5,a5,-1638 # 0 <_sinit>
    566e:	e795                	bnez	a5,569a <_vfiprintf_r+0x258>
    5670:	4742                	lw	a4,16(sp)
    5672:	47b2                	lw	a5,12(sp)
    5674:	10077713          	andi	a4,a4,256
    5678:	cf09                	beqz	a4,5692 <_vfiprintf_r+0x250>
    567a:	0791                	addi	a5,a5,4
    567c:	c63e                	sw	a5,12(sp)
    567e:	5792                	lw	a5,36(sp)
    5680:	97d2                	add	a5,a5,s4
    5682:	d23e                	sw	a5,36(sp)
    5684:	b525                	j	54ac <_vfiprintf_r+0x6a>
    5686:	036787b3          	mul	a5,a5,s6
    568a:	4685                	li	a3,1
    568c:	842e                	mv	s0,a1
    568e:	97ba                	add	a5,a5,a4
    5690:	bfbd                	j	560e <_vfiprintf_r+0x1cc>
    5692:	079d                	addi	a5,a5,7
    5694:	9be1                	andi	a5,a5,-8
    5696:	07a1                	addi	a5,a5,8
    5698:	b7d5                	j	567c <_vfiprintf_r+0x23a>
    569a:	0078                	addi	a4,sp,12
    569c:	00000697          	auipc	a3,0x0
    56a0:	d6268693          	addi	a3,a3,-670 # 53fe <__sfputs_r>
    56a4:	8626                	mv	a2,s1
    56a6:	080c                	addi	a1,sp,16
    56a8:	854e                	mv	a0,s3
    56aa:	00000097          	auipc	ra,0x0
    56ae:	000000e7          	jalr	zero # 0 <_sinit>
    56b2:	57fd                	li	a5,-1
    56b4:	8a2a                	mv	s4,a0
    56b6:	fcf514e3          	bne	a0,a5,567e <_vfiprintf_r+0x23c>
    56ba:	00c4d783          	lhu	a5,12(s1)
    56be:	0407f793          	andi	a5,a5,64
    56c2:	ea079ce3          	bnez	a5,557a <_vfiprintf_r+0x138>
    56c6:	5512                	lw	a0,36(sp)
    56c8:	bd55                	j	557c <_vfiprintf_r+0x13a>
    56ca:	0078                	addi	a4,sp,12
    56cc:	00000697          	auipc	a3,0x0
    56d0:	d3268693          	addi	a3,a3,-718 # 53fe <__sfputs_r>
    56d4:	8626                	mv	a2,s1
    56d6:	080c                	addi	a1,sp,16
    56d8:	854e                	mv	a0,s3
    56da:	2a01                	jal	57ea <_printf_i>
    56dc:	bfd9                	j	56b2 <_vfiprintf_r+0x270>

000056de <_printf_common>:
    56de:	7179                	addi	sp,sp,-48
    56e0:	ca56                	sw	s5,20(sp)
    56e2:	499c                	lw	a5,16(a1)
    56e4:	8aba                	mv	s5,a4
    56e6:	4598                	lw	a4,8(a1)
    56e8:	d422                	sw	s0,40(sp)
    56ea:	d226                	sw	s1,36(sp)
    56ec:	ce4e                	sw	s3,28(sp)
    56ee:	cc52                	sw	s4,24(sp)
    56f0:	d606                	sw	ra,44(sp)
    56f2:	d04a                	sw	s2,32(sp)
    56f4:	c85a                	sw	s6,16(sp)
    56f6:	c65e                	sw	s7,12(sp)
    56f8:	89aa                	mv	s3,a0
    56fa:	842e                	mv	s0,a1
    56fc:	84b2                	mv	s1,a2
    56fe:	8a36                	mv	s4,a3
    5700:	00e7d363          	bge	a5,a4,5706 <_printf_common+0x28>
    5704:	87ba                	mv	a5,a4
    5706:	c09c                	sw	a5,0(s1)
    5708:	04344703          	lbu	a4,67(s0)
    570c:	c319                	beqz	a4,5712 <_printf_common+0x34>
    570e:	0785                	addi	a5,a5,1
    5710:	c09c                	sw	a5,0(s1)
    5712:	401c                	lw	a5,0(s0)
    5714:	0207f793          	andi	a5,a5,32
    5718:	c781                	beqz	a5,5720 <_printf_common+0x42>
    571a:	409c                	lw	a5,0(s1)
    571c:	0789                	addi	a5,a5,2
    571e:	c09c                	sw	a5,0(s1)
    5720:	00042903          	lw	s2,0(s0)
    5724:	00697913          	andi	s2,s2,6
    5728:	00091a63          	bnez	s2,573c <_printf_common+0x5e>
    572c:	01940b13          	addi	s6,s0,25
    5730:	5bfd                	li	s7,-1
    5732:	445c                	lw	a5,12(s0)
    5734:	4098                	lw	a4,0(s1)
    5736:	8f99                	sub	a5,a5,a4
    5738:	04f94c63          	blt	s2,a5,5790 <_printf_common+0xb2>
    573c:	401c                	lw	a5,0(s0)
    573e:	04344683          	lbu	a3,67(s0)
    5742:	0207f793          	andi	a5,a5,32
    5746:	00d036b3          	snez	a3,a3
    574a:	eba5                	bnez	a5,57ba <_printf_common+0xdc>
    574c:	04340613          	addi	a2,s0,67
    5750:	85d2                	mv	a1,s4
    5752:	854e                	mv	a0,s3
    5754:	9a82                	jalr	s5
    5756:	57fd                	li	a5,-1
    5758:	04f50363          	beq	a0,a5,579e <_printf_common+0xc0>
    575c:	401c                	lw	a5,0(s0)
    575e:	4611                	li	a2,4
    5760:	4098                	lw	a4,0(s1)
    5762:	8b99                	andi	a5,a5,6
    5764:	4454                	lw	a3,12(s0)
    5766:	4481                	li	s1,0
    5768:	00c79763          	bne	a5,a2,5776 <_printf_common+0x98>
    576c:	40e684b3          	sub	s1,a3,a4
    5770:	0004d363          	bgez	s1,5776 <_printf_common+0x98>
    5774:	4481                	li	s1,0
    5776:	441c                	lw	a5,8(s0)
    5778:	4818                	lw	a4,16(s0)
    577a:	00f75463          	bge	a4,a5,5782 <_printf_common+0xa4>
    577e:	8f99                	sub	a5,a5,a4
    5780:	94be                	add	s1,s1,a5
    5782:	4901                	li	s2,0
    5784:	0469                	addi	s0,s0,26
    5786:	5b7d                	li	s6,-1
    5788:	05249863          	bne	s1,s2,57d8 <_printf_common+0xfa>
    578c:	4501                	li	a0,0
    578e:	a809                	j	57a0 <_printf_common+0xc2>
    5790:	4685                	li	a3,1
    5792:	865a                	mv	a2,s6
    5794:	85d2                	mv	a1,s4
    5796:	854e                	mv	a0,s3
    5798:	9a82                	jalr	s5
    579a:	01751e63          	bne	a0,s7,57b6 <_printf_common+0xd8>
    579e:	557d                	li	a0,-1
    57a0:	50b2                	lw	ra,44(sp)
    57a2:	5422                	lw	s0,40(sp)
    57a4:	5492                	lw	s1,36(sp)
    57a6:	5902                	lw	s2,32(sp)
    57a8:	49f2                	lw	s3,28(sp)
    57aa:	4a62                	lw	s4,24(sp)
    57ac:	4ad2                	lw	s5,20(sp)
    57ae:	4b42                	lw	s6,16(sp)
    57b0:	4bb2                	lw	s7,12(sp)
    57b2:	6145                	addi	sp,sp,48
    57b4:	8082                	ret
    57b6:	0905                	addi	s2,s2,1
    57b8:	bfad                	j	5732 <_printf_common+0x54>
    57ba:	00d40733          	add	a4,s0,a3
    57be:	03000613          	li	a2,48
    57c2:	04c701a3          	sb	a2,67(a4)
    57c6:	04544703          	lbu	a4,69(s0)
    57ca:	00168793          	addi	a5,a3,1
    57ce:	97a2                	add	a5,a5,s0
    57d0:	0689                	addi	a3,a3,2
    57d2:	04e781a3          	sb	a4,67(a5)
    57d6:	bf9d                	j	574c <_printf_common+0x6e>
    57d8:	4685                	li	a3,1
    57da:	8622                	mv	a2,s0
    57dc:	85d2                	mv	a1,s4
    57de:	854e                	mv	a0,s3
    57e0:	9a82                	jalr	s5
    57e2:	fb650ee3          	beq	a0,s6,579e <_printf_common+0xc0>
    57e6:	0905                	addi	s2,s2,1
    57e8:	b745                	j	5788 <_printf_common+0xaa>

000057ea <_printf_i>:
    57ea:	7179                	addi	sp,sp,-48
    57ec:	d422                	sw	s0,40(sp)
    57ee:	d226                	sw	s1,36(sp)
    57f0:	d04a                	sw	s2,32(sp)
    57f2:	ce4e                	sw	s3,28(sp)
    57f4:	d606                	sw	ra,44(sp)
    57f6:	cc52                	sw	s4,24(sp)
    57f8:	ca56                	sw	s5,20(sp)
    57fa:	c85a                	sw	s6,16(sp)
    57fc:	89b6                	mv	s3,a3
    57fe:	0185c683          	lbu	a3,24(a1)
    5802:	06900793          	li	a5,105
    5806:	8932                	mv	s2,a2
    5808:	84aa                	mv	s1,a0
    580a:	842e                	mv	s0,a1
    580c:	04358613          	addi	a2,a1,67
    5810:	02f68d63          	beq	a3,a5,584a <_printf_i+0x60>
    5814:	06d7e263          	bltu	a5,a3,5878 <_printf_i+0x8e>
    5818:	05800793          	li	a5,88
    581c:	18f68863          	beq	a3,a5,59ac <_printf_i+0x1c2>
    5820:	00d7ed63          	bltu	a5,a3,583a <_printf_i+0x50>
    5824:	22068163          	beqz	a3,5a46 <_printf_i+0x25c>
    5828:	04300793          	li	a5,67
    582c:	0af68e63          	beq	a3,a5,58e8 <_printf_i+0xfe>
    5830:	04240a93          	addi	s5,s0,66
    5834:	04d40123          	sb	a3,66(s0)
    5838:	a0c9                	j	58fa <_printf_i+0x110>
    583a:	06300793          	li	a5,99
    583e:	0af68563          	beq	a3,a5,58e8 <_printf_i+0xfe>
    5842:	06400793          	li	a5,100
    5846:	fef695e3          	bne	a3,a5,5830 <_printf_i+0x46>
    584a:	401c                	lw	a5,0(s0)
    584c:	4308                	lw	a0,0(a4)
    584e:	0807f693          	andi	a3,a5,128
    5852:	00450593          	addi	a1,a0,4
    5856:	c6c5                	beqz	a3,58fe <_printf_i+0x114>
    5858:	411c                	lw	a5,0(a0)
    585a:	c30c                	sw	a1,0(a4)
    585c:	0007d863          	bgez	a5,586c <_printf_i+0x82>
    5860:	02d00713          	li	a4,45
    5864:	40f007b3          	neg	a5,a5
    5868:	04e401a3          	sb	a4,67(s0)
    586c:	00004697          	auipc	a3,0x4
    5870:	a5c68693          	addi	a3,a3,-1444 # 92c8 <__sf_fake_stdout+0x34>
    5874:	4729                	li	a4,10
    5876:	a86d                	j	5930 <_printf_i+0x146>
    5878:	07000793          	li	a5,112
    587c:	16f68463          	beq	a3,a5,59e4 <_printf_i+0x1fa>
    5880:	02d7e563          	bltu	a5,a3,58aa <_printf_i+0xc0>
    5884:	06e00793          	li	a5,110
    5888:	18f68b63          	beq	a3,a5,5a1e <_printf_i+0x234>
    588c:	06f00793          	li	a5,111
    5890:	faf690e3          	bne	a3,a5,5830 <_printf_i+0x46>
    5894:	400c                	lw	a1,0(s0)
    5896:	431c                	lw	a5,0(a4)
    5898:	0805f813          	andi	a6,a1,128
    589c:	00478513          	addi	a0,a5,4
    58a0:	06080763          	beqz	a6,590e <_printf_i+0x124>
    58a4:	c308                	sw	a0,0(a4)
    58a6:	439c                	lw	a5,0(a5)
    58a8:	a88d                	j	591a <_printf_i+0x130>
    58aa:	07500793          	li	a5,117
    58ae:	fef683e3          	beq	a3,a5,5894 <_printf_i+0xaa>
    58b2:	07800793          	li	a5,120
    58b6:	12f68b63          	beq	a3,a5,59ec <_printf_i+0x202>
    58ba:	07300793          	li	a5,115
    58be:	f6f699e3          	bne	a3,a5,5830 <_printf_i+0x46>
    58c2:	431c                	lw	a5,0(a4)
    58c4:	41d0                	lw	a2,4(a1)
    58c6:	4581                	li	a1,0
    58c8:	00478693          	addi	a3,a5,4
    58cc:	c314                	sw	a3,0(a4)
    58ce:	0007aa83          	lw	s5,0(a5)
    58d2:	8556                	mv	a0,s5
    58d4:	2ea5                	jal	5c4c <memchr>
    58d6:	c501                	beqz	a0,58de <_printf_i+0xf4>
    58d8:	41550533          	sub	a0,a0,s5
    58dc:	c048                	sw	a0,4(s0)
    58de:	405c                	lw	a5,4(s0)
    58e0:	c81c                	sw	a5,16(s0)
    58e2:	040401a3          	sb	zero,67(s0)
    58e6:	a871                	j	5982 <_printf_i+0x198>
    58e8:	431c                	lw	a5,0(a4)
    58ea:	04240a93          	addi	s5,s0,66
    58ee:	00478693          	addi	a3,a5,4
    58f2:	439c                	lw	a5,0(a5)
    58f4:	c314                	sw	a3,0(a4)
    58f6:	04f40123          	sb	a5,66(s0)
    58fa:	4785                	li	a5,1
    58fc:	b7d5                	j	58e0 <_printf_i+0xf6>
    58fe:	0407f693          	andi	a3,a5,64
    5902:	411c                	lw	a5,0(a0)
    5904:	c30c                	sw	a1,0(a4)
    5906:	dab9                	beqz	a3,585c <_printf_i+0x72>
    5908:	07c2                	slli	a5,a5,0x10
    590a:	87c1                	srai	a5,a5,0x10
    590c:	bf81                	j	585c <_printf_i+0x72>
    590e:	0405f593          	andi	a1,a1,64
    5912:	c308                	sw	a0,0(a4)
    5914:	d9c9                	beqz	a1,58a6 <_printf_i+0xbc>
    5916:	0007d783          	lhu	a5,0(a5)
    591a:	06f00713          	li	a4,111
    591e:	0ee68863          	beq	a3,a4,5a0e <_printf_i+0x224>
    5922:	00004697          	auipc	a3,0x4
    5926:	9a668693          	addi	a3,a3,-1626 # 92c8 <__sf_fake_stdout+0x34>
    592a:	4729                	li	a4,10
    592c:	040401a3          	sb	zero,67(s0)
    5930:	404c                	lw	a1,4(s0)
    5932:	c40c                	sw	a1,8(s0)
    5934:	0005c563          	bltz	a1,593e <_printf_i+0x154>
    5938:	4008                	lw	a0,0(s0)
    593a:	996d                	andi	a0,a0,-5
    593c:	c008                	sw	a0,0(s0)
    593e:	e399                	bnez	a5,5944 <_printf_i+0x15a>
    5940:	8ab2                	mv	s5,a2
    5942:	cd91                	beqz	a1,595e <_printf_i+0x174>
    5944:	8ab2                	mv	s5,a2
    5946:	02e7f5b3          	remu	a1,a5,a4
    594a:	1afd                	addi	s5,s5,-1
    594c:	95b6                	add	a1,a1,a3
    594e:	0005c583          	lbu	a1,0(a1)
    5952:	00ba8023          	sb	a1,0(s5)
    5956:	02e7d5b3          	divu	a1,a5,a4
    595a:	0ce7f063          	bgeu	a5,a4,5a1a <_printf_i+0x230>
    595e:	47a1                	li	a5,8
    5960:	00f71e63          	bne	a4,a5,597c <_printf_i+0x192>
    5964:	401c                	lw	a5,0(s0)
    5966:	8b85                	andi	a5,a5,1
    5968:	cb91                	beqz	a5,597c <_printf_i+0x192>
    596a:	4058                	lw	a4,4(s0)
    596c:	481c                	lw	a5,16(s0)
    596e:	00e7c763          	blt	a5,a4,597c <_printf_i+0x192>
    5972:	03000793          	li	a5,48
    5976:	fefa8fa3          	sb	a5,-1(s5)
    597a:	1afd                	addi	s5,s5,-1
    597c:	41560633          	sub	a2,a2,s5
    5980:	c810                	sw	a2,16(s0)
    5982:	874e                	mv	a4,s3
    5984:	86ca                	mv	a3,s2
    5986:	0070                	addi	a2,sp,12
    5988:	85a2                	mv	a1,s0
    598a:	8526                	mv	a0,s1
    598c:	d53ff0ef          	jal	ra,56de <_printf_common>
    5990:	5a7d                	li	s4,-1
    5992:	0b451e63          	bne	a0,s4,5a4e <_printf_i+0x264>
    5996:	557d                	li	a0,-1
    5998:	50b2                	lw	ra,44(sp)
    599a:	5422                	lw	s0,40(sp)
    599c:	5492                	lw	s1,36(sp)
    599e:	5902                	lw	s2,32(sp)
    59a0:	49f2                	lw	s3,28(sp)
    59a2:	4a62                	lw	s4,24(sp)
    59a4:	4ad2                	lw	s5,20(sp)
    59a6:	4b42                	lw	s6,16(sp)
    59a8:	6145                	addi	sp,sp,48
    59aa:	8082                	ret
    59ac:	04d582a3          	sb	a3,69(a1)
    59b0:	00004697          	auipc	a3,0x4
    59b4:	91868693          	addi	a3,a3,-1768 # 92c8 <__sf_fake_stdout+0x34>
    59b8:	400c                	lw	a1,0(s0)
    59ba:	4308                	lw	a0,0(a4)
    59bc:	0805f813          	andi	a6,a1,128
    59c0:	411c                	lw	a5,0(a0)
    59c2:	0511                	addi	a0,a0,4
    59c4:	02080d63          	beqz	a6,59fe <_printf_i+0x214>
    59c8:	c308                	sw	a0,0(a4)
    59ca:	0015f713          	andi	a4,a1,1
    59ce:	c701                	beqz	a4,59d6 <_printf_i+0x1ec>
    59d0:	0205e593          	ori	a1,a1,32
    59d4:	c00c                	sw	a1,0(s0)
    59d6:	4741                	li	a4,16
    59d8:	fbb1                	bnez	a5,592c <_printf_i+0x142>
    59da:	400c                	lw	a1,0(s0)
    59dc:	fdf5f593          	andi	a1,a1,-33
    59e0:	c00c                	sw	a1,0(s0)
    59e2:	b7a9                	j	592c <_printf_i+0x142>
    59e4:	419c                	lw	a5,0(a1)
    59e6:	0207e793          	ori	a5,a5,32
    59ea:	c19c                	sw	a5,0(a1)
    59ec:	07800793          	li	a5,120
    59f0:	04f402a3          	sb	a5,69(s0)
    59f4:	00004697          	auipc	a3,0x4
    59f8:	8e868693          	addi	a3,a3,-1816 # 92dc <__sf_fake_stdout+0x48>
    59fc:	bf75                	j	59b8 <_printf_i+0x1ce>
    59fe:	0405f813          	andi	a6,a1,64
    5a02:	c308                	sw	a0,0(a4)
    5a04:	fc0803e3          	beqz	a6,59ca <_printf_i+0x1e0>
    5a08:	07c2                	slli	a5,a5,0x10
    5a0a:	83c1                	srli	a5,a5,0x10
    5a0c:	bf7d                	j	59ca <_printf_i+0x1e0>
    5a0e:	00004697          	auipc	a3,0x4
    5a12:	8ba68693          	addi	a3,a3,-1862 # 92c8 <__sf_fake_stdout+0x34>
    5a16:	4721                	li	a4,8
    5a18:	bf11                	j	592c <_printf_i+0x142>
    5a1a:	87ae                	mv	a5,a1
    5a1c:	b72d                	j	5946 <_printf_i+0x15c>
    5a1e:	4194                	lw	a3,0(a1)
    5a20:	431c                	lw	a5,0(a4)
    5a22:	49cc                	lw	a1,20(a1)
    5a24:	0806f813          	andi	a6,a3,128
    5a28:	00478513          	addi	a0,a5,4
    5a2c:	00080663          	beqz	a6,5a38 <_printf_i+0x24e>
    5a30:	c308                	sw	a0,0(a4)
    5a32:	439c                	lw	a5,0(a5)
    5a34:	c38c                	sw	a1,0(a5)
    5a36:	a801                	j	5a46 <_printf_i+0x25c>
    5a38:	c308                	sw	a0,0(a4)
    5a3a:	0406f693          	andi	a3,a3,64
    5a3e:	439c                	lw	a5,0(a5)
    5a40:	daf5                	beqz	a3,5a34 <_printf_i+0x24a>
    5a42:	00b79023          	sh	a1,0(a5)
    5a46:	00042823          	sw	zero,16(s0)
    5a4a:	8ab2                	mv	s5,a2
    5a4c:	bf1d                	j	5982 <_printf_i+0x198>
    5a4e:	4814                	lw	a3,16(s0)
    5a50:	8656                	mv	a2,s5
    5a52:	85ca                	mv	a1,s2
    5a54:	8526                	mv	a0,s1
    5a56:	9982                	jalr	s3
    5a58:	f3450fe3          	beq	a0,s4,5996 <_printf_i+0x1ac>
    5a5c:	401c                	lw	a5,0(s0)
    5a5e:	8b89                	andi	a5,a5,2
    5a60:	e78d                	bnez	a5,5a8a <_printf_i+0x2a0>
    5a62:	47b2                	lw	a5,12(sp)
    5a64:	4448                	lw	a0,12(s0)
    5a66:	f2f559e3          	bge	a0,a5,5998 <_printf_i+0x1ae>
    5a6a:	853e                	mv	a0,a5
    5a6c:	b735                	j	5998 <_printf_i+0x1ae>
    5a6e:	4685                	li	a3,1
    5a70:	8656                	mv	a2,s5
    5a72:	85ca                	mv	a1,s2
    5a74:	8526                	mv	a0,s1
    5a76:	9982                	jalr	s3
    5a78:	f1650fe3          	beq	a0,s6,5996 <_printf_i+0x1ac>
    5a7c:	0a05                	addi	s4,s4,1
    5a7e:	445c                	lw	a5,12(s0)
    5a80:	4732                	lw	a4,12(sp)
    5a82:	8f99                	sub	a5,a5,a4
    5a84:	fefa45e3          	blt	s4,a5,5a6e <_printf_i+0x284>
    5a88:	bfe9                	j	5a62 <_printf_i+0x278>
    5a8a:	4a01                	li	s4,0
    5a8c:	01940a93          	addi	s5,s0,25
    5a90:	5b7d                	li	s6,-1
    5a92:	b7f5                	j	5a7e <_printf_i+0x294>

00005a94 <_sbrk_r>:
    5a94:	1141                	addi	sp,sp,-16
    5a96:	c422                	sw	s0,8(sp)
    5a98:	842a                	mv	s0,a0
    5a9a:	852e                	mv	a0,a1
    5a9c:	8801ac23          	sw	zero,-1896(gp) # 20000108 <errno>
    5aa0:	c606                	sw	ra,12(sp)
    5aa2:	dd0fd0ef          	jal	ra,3072 <_sbrk>
    5aa6:	57fd                	li	a5,-1
    5aa8:	00f51763          	bne	a0,a5,5ab6 <_sbrk_r+0x22>
    5aac:	89818793          	addi	a5,gp,-1896 # 20000108 <errno>
    5ab0:	439c                	lw	a5,0(a5)
    5ab2:	c391                	beqz	a5,5ab6 <_sbrk_r+0x22>
    5ab4:	c01c                	sw	a5,0(s0)
    5ab6:	40b2                	lw	ra,12(sp)
    5ab8:	4422                	lw	s0,8(sp)
    5aba:	0141                	addi	sp,sp,16
    5abc:	8082                	ret

00005abe <__sread>:
    5abe:	1141                	addi	sp,sp,-16
    5ac0:	c422                	sw	s0,8(sp)
    5ac2:	842e                	mv	s0,a1
    5ac4:	00e59583          	lh	a1,14(a1)
    5ac8:	c606                	sw	ra,12(sp)
    5aca:	2ce5                	jal	5dc2 <_read_r>
    5acc:	00054963          	bltz	a0,5ade <__sread+0x20>
    5ad0:	487c                	lw	a5,84(s0)
    5ad2:	97aa                	add	a5,a5,a0
    5ad4:	c87c                	sw	a5,84(s0)
    5ad6:	40b2                	lw	ra,12(sp)
    5ad8:	4422                	lw	s0,8(sp)
    5ada:	0141                	addi	sp,sp,16
    5adc:	8082                	ret
    5ade:	00c45783          	lhu	a5,12(s0)
    5ae2:	777d                	lui	a4,0xfffff
    5ae4:	177d                	addi	a4,a4,-1
    5ae6:	8ff9                	and	a5,a5,a4
    5ae8:	00f41623          	sh	a5,12(s0)
    5aec:	b7ed                	j	5ad6 <__sread+0x18>

00005aee <__swrite>:
    5aee:	00c5d783          	lhu	a5,12(a1)
    5af2:	1101                	addi	sp,sp,-32
    5af4:	cc22                	sw	s0,24(sp)
    5af6:	ca26                	sw	s1,20(sp)
    5af8:	c84a                	sw	s2,16(sp)
    5afa:	c64e                	sw	s3,12(sp)
    5afc:	ce06                	sw	ra,28(sp)
    5afe:	1007f793          	andi	a5,a5,256
    5b02:	84aa                	mv	s1,a0
    5b04:	842e                	mv	s0,a1
    5b06:	8932                	mv	s2,a2
    5b08:	89b6                	mv	s3,a3
    5b0a:	c791                	beqz	a5,5b16 <__swrite+0x28>
    5b0c:	00e59583          	lh	a1,14(a1)
    5b10:	4689                	li	a3,2
    5b12:	4601                	li	a2,0
    5b14:	2231                	jal	5c20 <_lseek_r>
    5b16:	00c45783          	lhu	a5,12(s0)
    5b1a:	777d                	lui	a4,0xfffff
    5b1c:	177d                	addi	a4,a4,-1
    5b1e:	8ff9                	and	a5,a5,a4
    5b20:	00f41623          	sh	a5,12(s0)
    5b24:	00e41583          	lh	a1,14(s0)
    5b28:	4462                	lw	s0,24(sp)
    5b2a:	40f2                	lw	ra,28(sp)
    5b2c:	86ce                	mv	a3,s3
    5b2e:	864a                	mv	a2,s2
    5b30:	49b2                	lw	s3,12(sp)
    5b32:	4942                	lw	s2,16(sp)
    5b34:	8526                	mv	a0,s1
    5b36:	44d2                	lw	s1,20(sp)
    5b38:	6105                	addi	sp,sp,32
    5b3a:	a83d                	j	5b78 <_write_r>

00005b3c <__sseek>:
    5b3c:	1141                	addi	sp,sp,-16
    5b3e:	c422                	sw	s0,8(sp)
    5b40:	842e                	mv	s0,a1
    5b42:	00e59583          	lh	a1,14(a1)
    5b46:	c606                	sw	ra,12(sp)
    5b48:	28e1                	jal	5c20 <_lseek_r>
    5b4a:	57fd                	li	a5,-1
    5b4c:	00c45703          	lhu	a4,12(s0)
    5b50:	00f51b63          	bne	a0,a5,5b66 <__sseek+0x2a>
    5b54:	77fd                	lui	a5,0xfffff
    5b56:	17fd                	addi	a5,a5,-1
    5b58:	8ff9                	and	a5,a5,a4
    5b5a:	00f41623          	sh	a5,12(s0)
    5b5e:	40b2                	lw	ra,12(sp)
    5b60:	4422                	lw	s0,8(sp)
    5b62:	0141                	addi	sp,sp,16
    5b64:	8082                	ret
    5b66:	6785                	lui	a5,0x1
    5b68:	8fd9                	or	a5,a5,a4
    5b6a:	00f41623          	sh	a5,12(s0)
    5b6e:	c868                	sw	a0,84(s0)
    5b70:	b7fd                	j	5b5e <__sseek+0x22>

00005b72 <__sclose>:
    5b72:	00e59583          	lh	a1,14(a1)
    5b76:	a805                	j	5ba6 <_close_r>

00005b78 <_write_r>:
    5b78:	1141                	addi	sp,sp,-16
    5b7a:	c422                	sw	s0,8(sp)
    5b7c:	842a                	mv	s0,a0
    5b7e:	852e                	mv	a0,a1
    5b80:	85b2                	mv	a1,a2
    5b82:	8636                	mv	a2,a3
    5b84:	8801ac23          	sw	zero,-1896(gp) # 20000108 <errno>
    5b88:	c606                	sw	ra,12(sp)
    5b8a:	c9afd0ef          	jal	ra,3024 <_write>
    5b8e:	57fd                	li	a5,-1
    5b90:	00f51763          	bne	a0,a5,5b9e <_write_r+0x26>
    5b94:	89818793          	addi	a5,gp,-1896 # 20000108 <errno>
    5b98:	439c                	lw	a5,0(a5)
    5b9a:	c391                	beqz	a5,5b9e <_write_r+0x26>
    5b9c:	c01c                	sw	a5,0(s0)
    5b9e:	40b2                	lw	ra,12(sp)
    5ba0:	4422                	lw	s0,8(sp)
    5ba2:	0141                	addi	sp,sp,16
    5ba4:	8082                	ret

00005ba6 <_close_r>:
    5ba6:	1141                	addi	sp,sp,-16
    5ba8:	c422                	sw	s0,8(sp)
    5baa:	842a                	mv	s0,a0
    5bac:	852e                	mv	a0,a1
    5bae:	8801ac23          	sw	zero,-1896(gp) # 20000108 <errno>
    5bb2:	c606                	sw	ra,12(sp)
    5bb4:	24b9                	jal	5e02 <_close>
    5bb6:	57fd                	li	a5,-1
    5bb8:	00f51763          	bne	a0,a5,5bc6 <_close_r+0x20>
    5bbc:	89818793          	addi	a5,gp,-1896 # 20000108 <errno>
    5bc0:	439c                	lw	a5,0(a5)
    5bc2:	c391                	beqz	a5,5bc6 <_close_r+0x20>
    5bc4:	c01c                	sw	a5,0(s0)
    5bc6:	40b2                	lw	ra,12(sp)
    5bc8:	4422                	lw	s0,8(sp)
    5bca:	0141                	addi	sp,sp,16
    5bcc:	8082                	ret

00005bce <_fstat_r>:
    5bce:	1141                	addi	sp,sp,-16
    5bd0:	c422                	sw	s0,8(sp)
    5bd2:	842a                	mv	s0,a0
    5bd4:	852e                	mv	a0,a1
    5bd6:	85b2                	mv	a1,a2
    5bd8:	8801ac23          	sw	zero,-1896(gp) # 20000108 <errno>
    5bdc:	c606                	sw	ra,12(sp)
    5bde:	2c05                	jal	5e0e <_fstat>
    5be0:	57fd                	li	a5,-1
    5be2:	00f51763          	bne	a0,a5,5bf0 <_fstat_r+0x22>
    5be6:	89818793          	addi	a5,gp,-1896 # 20000108 <errno>
    5bea:	439c                	lw	a5,0(a5)
    5bec:	c391                	beqz	a5,5bf0 <_fstat_r+0x22>
    5bee:	c01c                	sw	a5,0(s0)
    5bf0:	40b2                	lw	ra,12(sp)
    5bf2:	4422                	lw	s0,8(sp)
    5bf4:	0141                	addi	sp,sp,16
    5bf6:	8082                	ret

00005bf8 <_isatty_r>:
    5bf8:	1141                	addi	sp,sp,-16
    5bfa:	c422                	sw	s0,8(sp)
    5bfc:	842a                	mv	s0,a0
    5bfe:	852e                	mv	a0,a1
    5c00:	8801ac23          	sw	zero,-1896(gp) # 20000108 <errno>
    5c04:	c606                	sw	ra,12(sp)
    5c06:	2c11                	jal	5e1a <_isatty>
    5c08:	57fd                	li	a5,-1
    5c0a:	00f51763          	bne	a0,a5,5c18 <_isatty_r+0x20>
    5c0e:	89818793          	addi	a5,gp,-1896 # 20000108 <errno>
    5c12:	439c                	lw	a5,0(a5)
    5c14:	c391                	beqz	a5,5c18 <_isatty_r+0x20>
    5c16:	c01c                	sw	a5,0(s0)
    5c18:	40b2                	lw	ra,12(sp)
    5c1a:	4422                	lw	s0,8(sp)
    5c1c:	0141                	addi	sp,sp,16
    5c1e:	8082                	ret

00005c20 <_lseek_r>:
    5c20:	1141                	addi	sp,sp,-16
    5c22:	c422                	sw	s0,8(sp)
    5c24:	842a                	mv	s0,a0
    5c26:	852e                	mv	a0,a1
    5c28:	85b2                	mv	a1,a2
    5c2a:	8636                	mv	a2,a3
    5c2c:	8801ac23          	sw	zero,-1896(gp) # 20000108 <errno>
    5c30:	c606                	sw	ra,12(sp)
    5c32:	2ad5                	jal	5e26 <_lseek>
    5c34:	57fd                	li	a5,-1
    5c36:	00f51763          	bne	a0,a5,5c44 <_lseek_r+0x24>
    5c3a:	89818793          	addi	a5,gp,-1896 # 20000108 <errno>
    5c3e:	439c                	lw	a5,0(a5)
    5c40:	c391                	beqz	a5,5c44 <_lseek_r+0x24>
    5c42:	c01c                	sw	a5,0(s0)
    5c44:	40b2                	lw	ra,12(sp)
    5c46:	4422                	lw	s0,8(sp)
    5c48:	0141                	addi	sp,sp,16
    5c4a:	8082                	ret

00005c4c <memchr>:
    5c4c:	0ff5f593          	andi	a1,a1,255
    5c50:	962a                	add	a2,a2,a0
    5c52:	00c51463          	bne	a0,a2,5c5a <memchr+0xe>
    5c56:	4501                	li	a0,0
    5c58:	8082                	ret
    5c5a:	00054783          	lbu	a5,0(a0)
    5c5e:	feb78de3          	beq	a5,a1,5c58 <memchr+0xc>
    5c62:	0505                	addi	a0,a0,1
    5c64:	b7fd                	j	5c52 <memchr+0x6>

00005c66 <memcpy>:
    5c66:	00a5c7b3          	xor	a5,a1,a0
    5c6a:	8b8d                	andi	a5,a5,3
    5c6c:	00c50733          	add	a4,a0,a2
    5c70:	e781                	bnez	a5,5c78 <memcpy+0x12>
    5c72:	478d                	li	a5,3
    5c74:	00c7ee63          	bltu	a5,a2,5c90 <memcpy+0x2a>
    5c78:	87aa                	mv	a5,a0
    5c7a:	0ae57063          	bgeu	a0,a4,5d1a <memcpy+0xb4>
    5c7e:	0005c683          	lbu	a3,0(a1)
    5c82:	0785                	addi	a5,a5,1
    5c84:	0585                	addi	a1,a1,1
    5c86:	fed78fa3          	sb	a3,-1(a5) # fff <LCD_ShowChar+0xa5>
    5c8a:	fee7eae3          	bltu	a5,a4,5c7e <memcpy+0x18>
    5c8e:	8082                	ret
    5c90:	00357693          	andi	a3,a0,3
    5c94:	87aa                	mv	a5,a0
    5c96:	ca91                	beqz	a3,5caa <memcpy+0x44>
    5c98:	0005c683          	lbu	a3,0(a1)
    5c9c:	0785                	addi	a5,a5,1
    5c9e:	0585                	addi	a1,a1,1
    5ca0:	fed78fa3          	sb	a3,-1(a5)
    5ca4:	0037f693          	andi	a3,a5,3
    5ca8:	b7fd                	j	5c96 <memcpy+0x30>
    5caa:	ffc77693          	andi	a3,a4,-4
    5cae:	fe068613          	addi	a2,a3,-32
    5cb2:	06c7f063          	bgeu	a5,a2,5d12 <memcpy+0xac>
    5cb6:	0005a383          	lw	t2,0(a1)
    5cba:	0045a283          	lw	t0,4(a1)
    5cbe:	0085af83          	lw	t6,8(a1)
    5cc2:	00c5af03          	lw	t5,12(a1)
    5cc6:	0105ae83          	lw	t4,16(a1)
    5cca:	0145ae03          	lw	t3,20(a1)
    5cce:	0185a303          	lw	t1,24(a1)
    5cd2:	01c5a883          	lw	a7,28(a1)
    5cd6:	02458593          	addi	a1,a1,36
    5cda:	0077a023          	sw	t2,0(a5)
    5cde:	ffc5a803          	lw	a6,-4(a1)
    5ce2:	0057a223          	sw	t0,4(a5)
    5ce6:	01f7a423          	sw	t6,8(a5)
    5cea:	01e7a623          	sw	t5,12(a5)
    5cee:	01d7a823          	sw	t4,16(a5)
    5cf2:	01c7aa23          	sw	t3,20(a5)
    5cf6:	0067ac23          	sw	t1,24(a5)
    5cfa:	0117ae23          	sw	a7,28(a5)
    5cfe:	02478793          	addi	a5,a5,36
    5d02:	ff07ae23          	sw	a6,-4(a5)
    5d06:	b775                	j	5cb2 <memcpy+0x4c>
    5d08:	4190                	lw	a2,0(a1)
    5d0a:	0791                	addi	a5,a5,4
    5d0c:	0591                	addi	a1,a1,4
    5d0e:	fec7ae23          	sw	a2,-4(a5)
    5d12:	fed7ebe3          	bltu	a5,a3,5d08 <memcpy+0xa2>
    5d16:	f6e7e4e3          	bltu	a5,a4,5c7e <memcpy+0x18>
    5d1a:	8082                	ret

00005d1c <memmove>:
    5d1c:	04a5f363          	bgeu	a1,a0,5d62 <memmove+0x46>
    5d20:	00c586b3          	add	a3,a1,a2
    5d24:	02d57f63          	bgeu	a0,a3,5d62 <memmove+0x46>
    5d28:	fff64593          	not	a1,a2
    5d2c:	4781                	li	a5,0
    5d2e:	17fd                	addi	a5,a5,-1
    5d30:	00f59363          	bne	a1,a5,5d36 <memmove+0x1a>
    5d34:	8082                	ret
    5d36:	00f68733          	add	a4,a3,a5
    5d3a:	00074803          	lbu	a6,0(a4) # fffff000 <_eusrstack+0xdfff7000>
    5d3e:	00c78733          	add	a4,a5,a2
    5d42:	972a                	add	a4,a4,a0
    5d44:	01070023          	sb	a6,0(a4)
    5d48:	b7dd                	j	5d2e <memmove+0x12>
    5d4a:	00f58733          	add	a4,a1,a5
    5d4e:	00074683          	lbu	a3,0(a4)
    5d52:	00f50733          	add	a4,a0,a5
    5d56:	0785                	addi	a5,a5,1
    5d58:	00d70023          	sb	a3,0(a4)
    5d5c:	fef617e3          	bne	a2,a5,5d4a <memmove+0x2e>
    5d60:	8082                	ret
    5d62:	4781                	li	a5,0
    5d64:	bfe5                	j	5d5c <memmove+0x40>

00005d66 <__malloc_lock>:
    5d66:	8082                	ret

00005d68 <__malloc_unlock>:
    5d68:	8082                	ret

00005d6a <_realloc_r>:
    5d6a:	e581                	bnez	a1,5d72 <_realloc_r+0x8>
    5d6c:	85b2                	mv	a1,a2
    5d6e:	a1eff06f          	j	4f8c <_malloc_r>
    5d72:	1101                	addi	sp,sp,-32
    5d74:	cc22                	sw	s0,24(sp)
    5d76:	ce06                	sw	ra,28(sp)
    5d78:	ca26                	sw	s1,20(sp)
    5d7a:	c84a                	sw	s2,16(sp)
    5d7c:	c64e                	sw	s3,12(sp)
    5d7e:	8432                	mv	s0,a2
    5d80:	ee01                	bnez	a2,5d98 <_realloc_r+0x2e>
    5d82:	962ff0ef          	jal	ra,4ee4 <_free_r>
    5d86:	4901                	li	s2,0
    5d88:	40f2                	lw	ra,28(sp)
    5d8a:	4462                	lw	s0,24(sp)
    5d8c:	854a                	mv	a0,s2
    5d8e:	44d2                	lw	s1,20(sp)
    5d90:	4942                	lw	s2,16(sp)
    5d92:	49b2                	lw	s3,12(sp)
    5d94:	6105                	addi	sp,sp,32
    5d96:	8082                	ret
    5d98:	84ae                	mv	s1,a1
    5d9a:	89aa                	mv	s3,a0
    5d9c:	2889                	jal	5dee <_malloc_usable_size_r>
    5d9e:	8926                	mv	s2,s1
    5da0:	fe8574e3          	bgeu	a0,s0,5d88 <_realloc_r+0x1e>
    5da4:	85a2                	mv	a1,s0
    5da6:	854e                	mv	a0,s3
    5da8:	9e4ff0ef          	jal	ra,4f8c <_malloc_r>
    5dac:	892a                	mv	s2,a0
    5dae:	dd69                	beqz	a0,5d88 <_realloc_r+0x1e>
    5db0:	85a6                	mv	a1,s1
    5db2:	8622                	mv	a2,s0
    5db4:	eb3ff0ef          	jal	ra,5c66 <memcpy>
    5db8:	85a6                	mv	a1,s1
    5dba:	854e                	mv	a0,s3
    5dbc:	928ff0ef          	jal	ra,4ee4 <_free_r>
    5dc0:	b7e1                	j	5d88 <_realloc_r+0x1e>

00005dc2 <_read_r>:
    5dc2:	1141                	addi	sp,sp,-16
    5dc4:	c422                	sw	s0,8(sp)
    5dc6:	842a                	mv	s0,a0
    5dc8:	852e                	mv	a0,a1
    5dca:	85b2                	mv	a1,a2
    5dcc:	8636                	mv	a2,a3
    5dce:	8801ac23          	sw	zero,-1896(gp) # 20000108 <errno>
    5dd2:	c606                	sw	ra,12(sp)
    5dd4:	28b9                	jal	5e32 <_read>
    5dd6:	57fd                	li	a5,-1
    5dd8:	00f51763          	bne	a0,a5,5de6 <_read_r+0x24>
    5ddc:	89818793          	addi	a5,gp,-1896 # 20000108 <errno>
    5de0:	439c                	lw	a5,0(a5)
    5de2:	c391                	beqz	a5,5de6 <_read_r+0x24>
    5de4:	c01c                	sw	a5,0(s0)
    5de6:	40b2                	lw	ra,12(sp)
    5de8:	4422                	lw	s0,8(sp)
    5dea:	0141                	addi	sp,sp,16
    5dec:	8082                	ret

00005dee <_malloc_usable_size_r>:
    5dee:	ffc5a783          	lw	a5,-4(a1)
    5df2:	ffc78513          	addi	a0,a5,-4
    5df6:	0007d563          	bgez	a5,5e00 <_malloc_usable_size_r+0x12>
    5dfa:	95aa                	add	a1,a1,a0
    5dfc:	419c                	lw	a5,0(a1)
    5dfe:	953e                	add	a0,a0,a5
    5e00:	8082                	ret

00005e02 <_close>:
    5e02:	05800793          	li	a5,88
    5e06:	88f1ac23          	sw	a5,-1896(gp) # 20000108 <errno>
    5e0a:	557d                	li	a0,-1
    5e0c:	8082                	ret

00005e0e <_fstat>:
    5e0e:	05800793          	li	a5,88
    5e12:	88f1ac23          	sw	a5,-1896(gp) # 20000108 <errno>
    5e16:	557d                	li	a0,-1
    5e18:	8082                	ret

00005e1a <_isatty>:
    5e1a:	05800793          	li	a5,88
    5e1e:	88f1ac23          	sw	a5,-1896(gp) # 20000108 <errno>
    5e22:	4501                	li	a0,0
    5e24:	8082                	ret

00005e26 <_lseek>:
    5e26:	05800793          	li	a5,88
    5e2a:	88f1ac23          	sw	a5,-1896(gp) # 20000108 <errno>
    5e2e:	557d                	li	a0,-1
    5e30:	8082                	ret

00005e32 <_read>:
    5e32:	05800793          	li	a5,88
    5e36:	88f1ac23          	sw	a5,-1896(gp) # 20000108 <errno>
    5e3a:	557d                	li	a0,-1
    5e3c:	8082                	ret
    5e3e:	0000                	unimp
    5e40:	999a                	add	s3,s3,t1
    5e42:	9999                	andi	a1,a1,-26
    5e44:	9999                	andi	a1,a1,-26
    5e46:	00004023          	0x4023
    5e4a:	0000                	unimp
    5e4c:	0000                	unimp
    5e4e:	3f00                	fld	fs0,56(a4)
    5e50:	0000                	unimp
    5e52:	0000                	unimp
    5e54:	0000                	unimp
    5e56:	4010                	lw	a2,0(s0)
    5e58:	0000                	unimp
    5e5a:	0000                	unimp
    5e5c:	0000                	unimp
    5e5e:	4020                	lw	s0,64(s0)
    5e60:	0000                	unimp
    5e62:	0000                	unimp
    5e64:	0000                	unimp
    5e66:	4030                	lw	a2,64(s0)
    5e68:	0000                	unimp
    5e6a:	437a                	lw	t1,156(sp)
    5e6c:	0000                	unimp
    5e6e:	3800                	fld	fs0,48(s0)
    5e70:	0000                	unimp
    5e72:	43fa                	lw	t2,156(sp)
    5e74:	0000                	unimp
    5e76:	447a                	lw	s0,156(sp)
    5e78:	0000                	unimp
    5e7a:	44fa                	lw	s1,156(sp)
    5e7c:	434c                	lw	a1,4(a4)
    5e7e:	2044                	fld	fs1,128(s0)
    5e80:	616d                	addi	sp,sp,240
    5e82:	756e                	flw	fa0,248(sp)
    5e84:	6166                	flw	ft2,88(sp)
    5e86:	72757463          	bgeu	a0,t2,65ae <asc2_2412+0x9e>
    5e8a:	7265                	lui	tp,0xffff9
    5e8c:	4920                	lw	s0,80(a0)
    5e8e:	2044                	fld	fs1,128(s0)
    5e90:	203d                	jal	5ebe <_read+0x8c>
    5e92:	7830                	flw	fa2,112(s0)
    5e94:	7825                	lui	a6,0xfffe9
    5e96:	202c                	fld	fa1,64(s0)
    5e98:	0000                	unimp
    5e9a:	0000                	unimp
    5e9c:	6576                	flw	fa0,92(sp)
    5e9e:	7372                	flw	ft6,60(sp)
    5ea0:	6f69                	lui	t5,0x1a
    5ea2:	206e                	fld	ft0,216(sp)
    5ea4:	4449                	li	s0,18
    5ea6:	3d20                	fld	fs0,120(a0)
    5ea8:	3020                	fld	fs0,96(s0)
    5eaa:	2578                	fld	fa4,200(a0)
    5eac:	2c78                	fld	fa4,216(s0)
    5eae:	0020                	addi	s0,sp,8
    5eb0:	7264                	flw	fs1,100(a2)
    5eb2:	7669                	lui	a2,0xffffa
    5eb4:	7265                	lui	tp,0xffff9
    5eb6:	4920                	lw	s0,80(a0)
    5eb8:	2044                	fld	fs1,128(s0)
    5eba:	203d                	jal	5ee8 <_read+0xb6>
    5ebc:	7830                	flw	fa2,112(s0)
    5ebe:	7825                	lui	a6,0xfffe9
    5ec0:	0a0d                	addi	s4,s4,3
    5ec2:	0000                	unimp
    5ec4:	6854                	flw	fa3,20(s0)
    5ec6:	7265                	lui	tp,0xffff9
    5ec8:	2065                	jal	5f70 <asc2_1608+0x40>
    5eca:	7369                	lui	t1,0xffffa
    5ecc:	6e20                	flw	fs0,88(a2)
    5ece:	6e61206f          	j	185b4 <_data_lma+0xf2c4>
    5ed2:	2079                	jal	5f60 <asc2_1608+0x30>
    5ed4:	6564                	flw	fs1,76(a0)
    5ed6:	6966                	flw	fs2,88(sp)
    5ed8:	656e                	flw	fa0,216(sp)
    5eda:	4120                	lw	s0,64(a0)
    5edc:	5f324353          	0x5f324353
    5ee0:	3231                	jal	57ec <_printf_i+0x2>
    5ee2:	3830                	fld	fa2,112(s0)
    5ee4:	2620                	fld	fs0,72(a2)
    5ee6:	2026                	fld	ft0,72(sp)
    5ee8:	5341                	li	t1,-16
    5eea:	325f3243          	fmadd.d	ft4,ft10,ft5,ft6,rup
    5eee:	3134                	fld	fa3,96(a0)
    5ef0:	2032                	fld	ft0,264(sp)
    5ef2:	2626                	fld	fa2,72(sp)
    5ef4:	4120                	lw	s0,64(a0)
    5ef6:	5f324353          	0x5f324353
    5efa:	3432                	fld	fs0,296(sp)
    5efc:	3631                	jal	5a08 <_printf_i+0x21e>
    5efe:	2620                	fld	fs0,72(a2)
    5f00:	2026                	fld	ft0,72(sp)
    5f02:	5341                	li	t1,-16
    5f04:	335f3243          	fmadd.d	ft4,ft10,fs5,ft6,rup
    5f08:	3132                	fld	ft2,296(sp)
    5f0a:	2036                	fld	ft0,328(sp)
    5f0c:	0021                	c.nop	8
    5f0e:	0000                	unimp
    5f10:	6f66                	flw	ft10,88(sp)
    5f12:	746e                	flw	fs0,248(sp)
    5f14:	7320                	flw	fs0,96(a4)
    5f16:	7a69                	lui	s4,0xffffa
    5f18:	2865                	jal	5fd0 <asc2_1608+0xa0>
    5f1a:	6425                	lui	s0,0x9
    5f1c:	2029                	jal	5f26 <_read+0xf4>
    5f1e:	7369                	lui	t1,0xffffa
    5f20:	6e20                	flw	fs0,88(a2)
    5f22:	7320746f          	jal	s0,d654 <_data_lma+0x4364>
    5f26:	7075                	c.lui	zero,0xffffd
    5f28:	6f70                	flw	fa2,92(a4)
    5f2a:	7472                	flw	fs0,60(sp)
    5f2c:	0021                	c.nop	8
	...

00005f30 <asc2_1608>:
	...
    5f40:	0000 1000 1010 1010 0010 1000 0010 0000     ................
    5f50:	0000 2800 2828 0028 0000 0000 0000 0000     ...((((.........
    5f60:	0000 1200 1612 247f fe24 4828 0048 0000     .......$$.(HH...
    5f70:	0000 0808 493e 6848 0b3e 4909 083e 0008     ....>IHh>..I>...
    5f80:	0000 6000 9090 0c62 4630 0909 0006 0000     ...`..b.0F......
    5f90:	0000 1c00 2020 3030 4549 6245 003d 0000     ....  00IEEb=...
    5fa0:	0000 1000 1010 0010 0000 0000 0000 0000     ................
    5fb0:	0000 080c 1008 1010 1010 0810 0408 0000     ................
    5fc0:	0000 1030 0810 0808 0808 1008 3010 0000     ..0..........0..
    5fd0:	0000 0800 3e49 6b1c 0008 0000 0000 0000     ....I>.k........
    5fe0:	0000 0000 1000 1010 10fe 1010 0000 0000     ................
	...
    5ff8:	0000 1800 1018 0020 0000 0000 0000 0000     ...... .........
    6008:	3800 0000 0000 0000 0000 0000 0000 0000     .8..............
    6018:	0000 1800 0018 0000 0000 0200 0404 0804     ................
    6028:	1008 2010 2020 0040 0000 1c00 4122 4941     ...   @....."AAI
    6038:	4141 2241 001c 0000 0000 1800 0828 0808     AAA"........(...
    6048:	0808 0808 003e 0000 0000 3e00 0143 0201     ....>......>C...
    6058:	0c06 2010 007f 0000 0000 3e00 0141 1c03     ... .......>A...
    6068:	0103 4301 003e 0000 0000 0600 1a0a 2212     ...C>.........."
    6078:	7f42 0202 0002 0000 0000 7e00 4040 427c     B..........~@@|B
    6088:	0101 4201 003c 0000 0000 1e00 6031 5e40     ...B<.......1`@^
    6098:	4163 2341 001e 0000 0000 7f00 0203 0404     cAA#............
    60a8:	0808 1010 0020 0000 0000 3e00 4141 3e41     .... ......>AAA>
    60b8:	4163 6341 003e 0000 0000 3c00 4162 6341     cAAc>......<bAAc
    60c8:	013d 4603 003c 0000 0000 0000 0000 1818     =..F<...........
    60d8:	0000 1800 0018 0000 0000 0000 0000 1818     ................
    60e8:	0000 1800 1018 0020 0000 0000 0100 380e     ...... ........8
    60f8:	3840 010e 0000 0000 0000 0000 0000 007f     @8..............
    6108:	7f00 0000 0000 0000 0000 0000 4000 0e38     .............@8.
    6118:	0e01 4038 0000 0000 0000 3800 0444 180c     ..8@.......8D...
    6128:	1010 1000 0010 0000 0000 1e00 2133 4947     ............3!GI
    6138:	4949 4749 3020 000e 0000 0800 1414 1414     IIIG 0..........
    6148:	3e22 4122 0041 0000 0000 7e00 4141 7e41     ">"AA......~AAA~
    6158:	4143 4341 007e 0000 0000 1e00 4021 4040     CAAC~.......!@@@
    6168:	4040 2140 001e 0000 0000 7c00 4142 4141     @@@!.......|BAAA
    6178:	4141 4241 007c 0000 0000 7f00 4040 7f40     AAAB|.......@@@.
    6188:	4040 4040 007f 0000 0000 7f00 4040 7f40     @@@@........@@@.
    6198:	4040 4040 0040 0000 0000 1e00 4021 4040     @@@@@.......!@@@
    61a8:	4143 2141 001e 0000 0000 4100 4141 7f41     CAA!.......AAAA.
    61b8:	4141 4141 0041 0000 0000 7c00 1010 1010     AAAAA......|....
    61c8:	1010 1010 007c 0000 0000 1c00 0404 0404     ....|...........
    61d8:	0404 4404 0038 0000 0000 4200 4844 7050     ...D8......BDHPp
    61e8:	4878 4644 0042 0000 0000 4000 4040 4040     xHDFB......@@@@@
    61f8:	4040 4040 007f 0000 0000 6300 5563 5555     @@@@.......ccUUU
    6208:	4149 4141 0041 0000 0000 6100 5161 4951     IAAAA......aaQQI
    6218:	4549 4345 0043 0000 0000 1c00 4122 4141     IEECC......."AAA
    6228:	4141 2241 001c 0000 0000 7e00 4143 4341     AAA".......~CAAC
    6238:	407e 4040 0040 0000 0000 1c00 4122 4141     ~@@@@......."AAA
    6248:	4141 2241 061e 0002 0000 7e00 4143 4341     AAA".......~CAAC
    6258:	427c 4141 0040 0000 0000 1e00 4061 3040     |BAA@.......a@@0
    6268:	010e 4301 003e 0000 0000 fe00 1010 1010     ...C>...........
    6278:	1010 1010 0010 0000 0000 4100 4141 4141     ...........AAAAA
    6288:	4141 6341 003e 0000 0000 4100 2241 2222     AAAc>......AA"""
    6298:	1414 1414 0008 0000 0000 8100 8181 5a5a     ..............ZZ
    62a8:	665a 6666 0066 0000 0000 4100 1422 0814     Zffff......A"...
    62b8:	1414 2222 0041 0000 0000 8200 4444 3828     ..""A.......DD(8
    62c8:	1010 1010 0010 0000 0000 7f00 0203 0804     ................
    62d8:	1008 6020 007f 0000 0000 101c 1010 1010     .. `............
    62e8:	1010 1010 1c10 0000 0000 4000 2020 1020     ...........@   .
    62f8:	0810 0408 0404 0002 0000 0838 0808 0808     ..........8.....
    6308:	0808 0808 3808 0000 0000 1000 4428 00c6     .....8......(D..
	...
    632c:	0000 ff00 3000 0810 0000 0000 0000 0000     .....0..........
	...
    6344:	1c00 0222 423e 4642 003a 0000 0000 4040     ..".>BBF:.....@@
    6354:	7c40 4264 4242 6442 005c 0000 0000 0000     @|dBBBBd\.......
    6364:	1c00 4022 4040 2240 001c 0000 0000 0202     .."@@@@"........
    6374:	3e02 4226 4242 2642 003a 0000 0000 0000     .>&BBBB&:.......
    6384:	3c00 4226 407e 2240 001c 0000 0000 100c     .<&B~@@"........
    6394:	7c10 1010 1010 1010 0010 0000 0000 0000     .|..............
    63a4:	3a00 4226 4242 2642 023a 1c22 0000 4040     .:&BBBB&:."...@@
    63b4:	5c40 4262 4242 4242 0042 0000 0000 1010     @\bBBBBBB.......
    63c4:	7000 1010 1010 1010 007c 0000 0000 0808     .p......|.......
    63d4:	3800 0808 0808 0808 0808 7008 0000 4040     .8.........p..@@
    63e4:	4440 5048 4870 4448 0042 0000 0000 1070     @DHPpHHDB.....p.
    63f4:	1010 1010 1010 1010 000e 0000 0000 0000     ................
    6404:	7e00 4949 4949 4949 0049 0000 0000 0000     .~IIIIIII.......
    6414:	5c00 4262 4242 4242 0042 0000 0000 0000     .\bBBBBBB.......
    6424:	3c00 4266 4242 6642 003c 0000 0000 0000     .<fBBBBf<.......
    6434:	5c00 4264 4242 6442 407c 4040 0000 0000     .\dBBBBd|@@@....
    6444:	3a00 4226 4242 2642 023a 0202 0000 0000     .:&BBBB&:.......
    6454:	3c00 2032 2020 2020 0020 0000 0000 0000     .<2      .......
    6464:	3c00 4042 0e70 4202 003c 0000 0000 1000     .<B@p..B<.......
    6474:	7e10 1010 1010 1010 000e 0000 0000 0000     .~..............
    6484:	4200 4242 4242 4642 003a 0000 0000 0000     .BBBBBBF:.......
    6494:	4200 2442 2424 1818 0018 0000 0000 0000     .BB$$$..........
    64a4:	8100 5a81 5a5a 245a 0024 0000 0000 0000     ...ZZZZ$$.......
    64b4:	4200 1824 1818 2424 0042 0000 0000 0000     .B$...$$B.......
    64c4:	4200 2422 1424 1818 0808 3010 0000 0000     .B"$$......0....
    64d4:	7e00 0402 1008 4020 007e 0000 0000 100c     .~.... @~.......
    64e4:	1010 1010 1060 1010 1010 000c 0000 1010     ....`...........
    64f4:	1010 1010 1010 1010 1010 1010 0000 1060     ..............`.
    6504:	1010 1010 100c 1010 1010 0060               ..........`.

00006510 <asc2_2412>:
	...
    6548:	0006 0006 0006 0006 0006 0006 0006 0006     ................
    6558:	0006 0006 0000 0000 0006 0006 0006 0000     ................
	...
    6578:	8019 8019 8019 8019 8019 8019 0000 0000     ................
	...
    65a8:	6006 4004 c00c c00c f07f f07f 8008 8019     .`.@............
    65b8:	8019 e0ff e0ff 0033 0033 0022 0022 0000     ......3.3."."...
	...
    65d4:	0000 0002 0002 800f c01f 403a 0032 0032     ..........:@2.2.
    65e4:	003a 001f c007 e002 6002 6002 e022 c03f     :........`.`".?.
    65f4:	801f 0002 0002 0002 0000 0000 0000 0000     ................
    6604:	0000 0000 0078 0048 00cc 00cc 00cc 4048     ....x.H.......H@
    6614:	c079 000e c073 4002 6006 6006 6006 4002     y...s..@.`.`.`.@
    6624:	c003 0000 0000 0000 0000 0000 0000 0000     ................
    6634:	0000 0000 800f 801f 0018 0018 0018 000c     ................
    6644:	001e 3036 3063 b063 a061 e060 c030 603f     ..60c0c.a.`.0.?`
    6654:	700e 0000 0000 0000 0000 0000 0000 0000     .p..............
    6664:	0000 0000 0006 0006 0006 0006 0006 0006     ................
	...
    6694:	0000 0001 0002 0002 0006 0006 0004 000c     ................
    66a4:	000c 000c 000c 000c 000c 000c 0004 0006     ................
    66b4:	0006 0002 0002 0001 0000 0000 0000 0000     ................
    66c4:	0000 0008 0004 0004 0006 0006 0002 0003     ................
    66d4:	0003 0003 0003 0003 0003 0003 0002 0006     ................
    66e4:	0006 0004 0004 0008 0000 0000 0000 0000     ................
    66f4:	0000 0000 0004 0004 4044 8035 000e 000e     ........D@5.....
    6704:	8035 4044 0004 0004 0000 0000 0000 0000     5.D@............
	...
    672c:	0006 0006 0006 0006 0006 e07f e07f 0006     ................
    673c:	0006 0006 0006 0006 0000 0000 0000 0000     ................
	...
    6770:	0006 0006 0006 0006 000c 000c 0000 0000     ................
	...
    6798:	001f 001f 0000 0000 0000 0000 0000 0000     ................
	...
    67d0:	0006 0006 0006 0000 0000 0000 0000 0000     ................
	...
    67e8:	6000 c000 c000 8001 8001 0003 0003 0006     .`..............
    67f8:	0006 0006 000c 000c 0018 0018 0030 0030     ............0.0.
    6808:	0060 0000 0000 0000 0000 0000 0000 0000     `...............
    6818:	001e 803f 8031 c071 c060 c060 c066 c066     ..?.1.q.`.`.f.f.
    6828:	c060 c060 c060 c071 8031 803f 000e 0000     `.`.`.q.1.?.....
	...
    6848:	0007 001f 001b 0003 0003 0003 0003 0003     ................
    6858:	0003 0003 0003 0003 0003 e01f e01f 0000     ................
	...
    6878:	003f 807f c041 c000 c000 c000 c001 8001     ?...A...........
    6888:	0003 0006 000c 0018 0030 c07f c07f 0000     ........0.......
	...
    68a8:	003f 807f c041 c000 c000 c001 800f 800f     ?...A...........
    68b8:	8001 c000 c000 c000 c041 807f 003f 0000     ........A...?...
	...
    68d8:	8003 8003 8007 8005 800d 8009 8019 8031     ..............1.
    68e8:	8031 8061 e07f e07f 8001 8001 8001 0000     1.a.............
	...
    6908:	803f 803f 0030 0030 0030 003f 803f c021     ?.?.0.0.0.?.?.!.
    6918:	c000 c000 c000 c000 8041 807f 003e 0000     ........A...>...
	...
    6938:	000f 801f 8038 0030 0070 0060 006f 807f     ....8.0.p.`.o...
    6948:	c071 c060 c060 c060 c031 803f 001f 0000     q.`.`.`.1.?.....
	...
    6968:	c07f c07f 8001 8001 8001 0003 0003 0003     ................
    6978:	0006 0006 0006 000c 000c 000c 0018 0000     ................
	...
    6998:	001f 803f c071 c060 c060 8031 001f 803f     ..?.q.`.`.1...?.
    69a8:	8031 c060 c060 c060 c071 803f 001f 0000     1.`.`.`.q.?.....
	...
    69c8:	001f 803f 8071 c060 c060 c060 c071 c03f     ..?.q.`.`.`.q.?.
    69d8:	c01e c000 c000 8001 8023 003f 001e 0000     ........#.?.....
	...
    6a00:	0006 0006 0006 0000 0000 0000 0000 0000     ................
    6a10:	0006 0006 0006 0000 0000 0000 0000 0000     ................
	...
    6a30:	0006 0006 0006 0000 0000 0000 0000 0000     ................
    6a40:	0006 0006 0006 0006 000c 000c 0000 0000     ................
	...
    6a5c:	0000 2000 e001 8007 001e 0070 0070 001e     ... ......p.p...
    6a6c:	8007 e001 2000 0000 0000 0000 0000 0000     ..... ..........
	...
    6a94:	e07f e07f 0000 0000 e07f e07f 0000 0000     ................
	...
    6abc:	0000 0040 0078 001e 8007 e000 e000 8007     ..@.x...........
    6acc:	001e 0078 0040 0000 0000 0000 0000 0000     ..x.@...........
	...
    6ae8:	800f c01f 6010 6000 e000 c001 8003 0006     .....`.`........
    6af8:	0006 0006 0000 0000 0006 0006 0006 0000     ................
	...
    6b18:	0000 8007 c018 6030 6030 e023 6062 6066     ......0`0`#.b`f`
    6b28:	6066 6066 6066 6066 6062 e033 0030 0018     f`f`f`f`b`3.0...
    6b38:	001c 8007 0000 0000 0000 0000 0000 0000     ................
    6b48:	0006 0006 000f 000f 000f 801f 8019 8019     ................
    6b58:	8019 c03f c03f c030 c030 6060 6060 0000     ..?.?.0.0.````..
	...
    6b78:	007f 807f c061 c060 c060 c061 807f 807f     ....a.`.`.a.....
    6b88:	c060 6060 6060 6060 e060 c07f 807f 0000     `.```````.......
	...
    6ba8:	c007 e01f 2038 0030 0060 0060 0060 0060     ....8 0.`.`.`.`.
    6bb8:	0060 0060 0060 0030 2038 e01f c007 0000     `.`.`.0.8 ......
	...
    6bd8:	007e 807f c061 c060 6060 6060 6060 6060     ~...a.`.````````
    6be8:	6060 6060 6060 c060 c061 807f 007e 0000     ```````.a...~...
	...
    6c08:	e07f e07f 0060 0060 0060 0060 e07f e07f     ....`.`.`.`.....
    6c18:	0060 0060 0060 0060 0060 e07f e07f 0000     `.`.`.`.`.......
	...
    6c38:	e07f e07f 0060 0060 0060 0060 c07f c07f     ....`.`.`.`.....
    6c48:	0060 0060 0060 0060 0060 0060 0060 0000     `.`.`.`.`.`.`...
	...
    6c68:	800f c01f 4038 0030 0060 0060 0060 e061     ....8@0.`.`.`.a.
    6c78:	e061 6060 6060 6030 6038 e01f 800f 0000     a.````0`8`......
	...
    6c98:	6060 6060 6060 6060 6060 6060 e07f e07f     ````````````....
    6ca8:	6060 6060 6060 6060 6060 6060 6060 0000     ``````````````..
	...
    6cc8:	c03f c03f 0006 0006 0006 0006 0006 0006     ?.?.............
    6cd8:	0006 0006 0006 0006 0006 c03f c03f 0000     ..........?.?...
	...
    6cf8:	801f 801f 8001 8001 8001 8001 8001 8001     ................
    6d08:	8001 8001 8001 8001 8043 007f 003e 0000     ........C...>...
	...
    6d28:	6060 c060 8061 0063 0066 006c 007c 007e     ```.a.c.f.l.|.~.
    6d38:	0076 0063 8063 8061 c060 e060 6060 0000     v.c.c.a.`.`.``..
	...
    6d58:	0060 0060 0060 0060 0060 0060 0060 0060     `.`.`.`.`.`.`.`.
    6d68:	0060 0060 0060 0060 0060 e07f e07f 0000     `.`.`.`.`.......
	...
    6d88:	e070 e070 e070 e079 6069 6069 606f 6066     p.p.p.y.i`i`o`f`
    6d98:	6066 6066 6060 6060 6060 6060 6060 0000     f`f```````````..
	...
    6db8:	6070 6070 6078 6078 606c 606c 6064 6066     p`p`x`x`l`l`d`f`
    6dc8:	6062 6063 6063 e061 e061 e060 e060 0000     b`c`c`a.a.`.`...
	...
    6de8:	000f c03f c030 e070 6060 6060 6060 6060     ..?.0.p.````````
    6df8:	6060 6060 6060 e070 c030 c03f 000f 0000     ``````p.0.?.....
	...
    6e18:	807f c07f e060 6060 6060 6060 e060 c07f     ....`.```````...
    6e28:	807f 0060 0060 0060 0060 0060 0060 0000     ..`.`.`.`.`.`...
	...
    6e48:	000f c03f c030 e070 6060 6060 6060 6060     ..?.0.p.````````
    6e58:	6060 6060 6060 e070 c030 801f 000f 8001     ``````p.0.......
    6e68:	c000 8000 0000 0000 0000 0000 0000 0000     ................
    6e78:	007f c07f e060 6060 6060 6060 c060 c07f     ....`.```````...
    6e88:	807f c061 c060 6060 6060 3060 3060 0000     ..a.`.`````0`0..
	...
    6ea8:	801f c03f 4070 0060 0060 0070 003e 801f     ..?.p@`.`.p.>...
    6eb8:	c001 6000 6000 6000 e040 c07f 803f 0000     ...`.`.`@...?...
	...
    6ed8:	f0ff f0ff 0006 0006 0006 0006 0006 0006     ................
    6ee8:	0006 0006 0006 0006 0006 0006 0006 0000     ................
	...
    6f08:	6060 6060 6060 6060 6060 6060 6060 6060     ````````````````
    6f18:	6060 6060 6060 6060 e070 c03f 801f 0000     ````````p.?.....
	...
    6f38:	6060 6060 c030 c030 c030 c030 8019 8019     ````0.0.0.0.....
    6f48:	8019 801f 000f 000f 000f 0006 0006 0000     ................
	...
    6f68:	30c0 30c0 30c0 6060 6066 6066 606f 606f     .0.0.0``f`f`o`o`
    6f78:	6069 6069 c039 c039 c039 c030 c030 0000     i`i`9.9.9.0.0...
	...
    6f98:	e070 c030 c039 8019 000f 000f 0006 0006     p.0.9...........
    6fa8:	000f 000f 801b 8019 c031 c030 e060 0000     ........1.0.`...
	...
    6fc8:	70e0 6060 c030 c030 8019 801f 000f 0006     .p``0.0.........
    6fd8:	0006 0006 0006 0006 0006 0006 0006 0000     ................
	...
    6ff8:	e07f e07f c000 c001 8001 0003 0007 0006     ................
    7008:	000e 000c 0018 0038 0030 e07f e07f 0000     ......8.0.......
	...
    7024:	0000 8007 8007 0006 0006 0006 0006 0006     ................
    7034:	0006 0006 0006 0006 0006 0006 0006 0006     ................
    7044:	0006 0006 8007 8007 0000 0000 0000 0000     ................
    7054:	0000 0000 0060 0030 0030 0018 0018 000c     ....`.0.0.......
    7064:	000c 0006 0006 0006 0003 0003 8001 8001     ................
    7074:	c000 c000 6000 0000 0000 0000 0000 0000     .....`..........
    7084:	0000 000f 000f 0003 0003 0003 0003 0003     ................
    7094:	0003 0003 0003 0003 0003 0003 0003 0003     ................
    70a4:	0003 0003 000f 000f 0000 0000 0000 0000     ................
    70b4:	0000 0000 0007 800f 800d c018 6030 3060     ............0``0
	...
    710c:	f0ff f0ff 0000 0000 0018 000c 0006 0003     ................
	...
    7150:	001f 803f c021 c000 c01f c03f c070 c060     ..?.!.....?.p.`.
    7160:	c061 c07f c01c 0000 0000 0000 0000 0000     a...............
    7170:	0000 0000 0000 0060 0060 0060 0060 0060     ......`.`.`.`.`.
    7180:	006f 807f 8071 c060 c060 c060 c060 c060     o...q.`.`.`.`.`.
    7190:	8071 807f 006f 0000 0000 0000 0000 0000     q...o...........
	...
    71b0:	000f 803f 8030 0060 0060 0060 0060 0060     ..?.0.`.`.`.`.`.
    71c0:	8030 803f 000f 0000 0000 0000 0000 0000     0.?.............
    71d0:	0000 0000 0000 c000 c000 c000 c000 c000     ................
    71e0:	c01e c03f c031 c060 c060 c060 c060 c060     ..?.1.`.`.`.`.`.
    71f0:	c031 c03f c01e 0000 0000 0000 0000 0000     1.?.............
	...
    7210:	000f 803f c031 c060 c07f c07f 0060 0060     ..?.1.`.....`.`.
    7220:	4030 c03f 800f 0000 0000 0000 0000 0000     0@?.............
    7230:	0000 0000 0000 e001 e003 0006 0006 0006     ................
    7240:	e03f e03f 0006 0006 0006 0006 0006 0006     ?.?.............
    7250:	0006 0006 0006 0000 0000 0000 0000 0000     ................
	...
    7270:	c01e c03f c031 c060 c060 c060 c060 c060     ..?.1.`.`.`.`.`.
    7280:	c031 c03f c01e c000 c021 803f 001f 0000     1.?.....!.?.....
    7290:	0000 0000 0000 0060 0060 0060 0060 0060     ......`.`.`.`.`.
    72a0:	0067 807f c071 c060 c060 c060 c060 c060     g...q.`.`.`.`.`.
    72b0:	c060 c060 c060 0000 0000 0000 0000 0000     `.`.`...........
    72c0:	0000 0000 0000 0006 0006 0000 0000 0000     ................
    72d0:	003e 003e 0006 0006 0006 0006 0006 0006     >.>.............
    72e0:	0006 e07f e07f 0000 0000 0000 0000 0000     ................
    72f0:	0000 0000 0000 0003 0003 0000 0000 0000     ................
    7300:	001f 001f 0003 0003 0003 0003 0003 0003     ................
    7310:	0003 0003 0003 0003 0003 003e 003c 0000     ..........>.<...
    7320:	0000 0000 0000 0060 0060 0060 0060 0060     ......`.`.`.`.`.
    7330:	c061 8063 0067 006e 007c 007c 0076 0067     a.c.g.n.|.|.v.g.
    7340:	0063 8061 c061 0000 0000 0000 0000 0000     c.a.a...........
    7350:	0000 0000 0000 00fc 00fc 000c 000c 000c     ................
    7360:	000c 000c 000c 000c 000c 000c 000c 000c     ................
    7370:	000e c007 c003 0000 0000 0000 0000 0000     ................
	...
    7390:	c06d e07f 6066 6066 6066 6066 6066 6066     m...f`f`f`f`f`f`
    73a0:	6066 6066 6066 0000 0000 0000 0000 0000     f`f`f`..........
	...
    73c0:	0067 807f c071 c060 c060 c060 c060 c060     g...q.`.`.`.`.`.
    73d0:	c060 c060 c060 0000 0000 0000 0000 0000     `.`.`...........
	...
    73f0:	001f 803f 8031 c060 c060 c060 c060 c060     ..?.1.`.`.`.`.`.
    7400:	8031 803f 001f 0000 0000 0000 0000 0000     1.?.............
	...
    7420:	006f 807f 8071 c060 c060 c060 c060 c060     o...q.`.`.`.`.`.
    7430:	8071 807f 006f 0060 0060 0060 0060 0000     q...o.`.`.`.`...
	...
    7450:	c01e c03f c031 c060 c060 c060 c060 c060     ..?.1.`.`.`.`.`.
    7460:	c031 c03f c01e c000 c000 c000 c000 0000     1.?.............
	...
    7480:	e00c f00d 100f 000e 000c 000c 000c 000c     ................
    7490:	000c 000c 000c 0000 0000 0000 0000 0000     ................
	...
    74b0:	801f c03f 4060 0060 007f 801f c001 c000     ..?.`@`.........
    74c0:	c041 807f 003f 0000 0000 0000 0000 0000     A...?...........
	...
    74d8:	0000 000c 000c 000c c07f c07f 000c 000c     ................
    74e8:	000c 000c 000c 000c 000c c00f c007 0000     ................
	...
    7510:	c060 c060 c060 c060 c060 c060 c060 c060     `.`.`.`.`.`.`.`.
    7520:	c071 c03f c01c 0000 0000 0000 0000 0000     q.?.............
	...
    7540:	c060 c071 8031 8031 803b 001b 001b 001b     `.q.1.1.;.......
    7550:	000e 000e 000e 0000 0000 0000 0000 0000     ................
	...
    7570:	30c0 30c0 6060 6066 6066 6066 c03f c039     .0.0``f`f`f`?.9.
    7580:	c039 c039 c030 0000 0000 0000 0000 0000     9.9.0...........
	...
    75a0:	c071 8031 001b 001f 000e 000e 000e 001f     q.1.............
    75b0:	001b 8031 c071 0000 0000 0000 0000 0000     ..1.q...........
	...
    75d0:	c060 8031 8031 8031 001b 001b 001f 000e     `.1.1.1.........
    75e0:	000e 0006 000c 000c 000c 0038 0038 0000     ..........8.8...
	...
    7600:	c07f c07f 8003 0003 0007 000e 001c 0018     ................
    7610:	0030 c07f c07f 0000 0000 0000 0000 0000     0...............
    7620:	0000 0000 0000 c003 c007 0006 0006 0006     ................
    7630:	0006 0006 0006 003c 003c 000e 0006 0006     ......<.<.......
    7640:	0006 0006 0006 0006 c007 c003 0000 0000     ................
    7650:	0000 0000 0000 0006 0006 0006 0006 0006     ................
    7660:	0006 0006 0006 0006 0006 0006 0006 0006     ................
    7670:	0006 0006 0006 0006 0006 0006 0006 0006     ................
    7680:	0000 0000 0000 003c 003e 0006 0006 0006     ......<.>.......
    7690:	0006 0006 0006 c003 c003 0007 0006 0006     ................
    76a0:	0006 0006 0006 0006 003e 003c 0000 0000     ........>.<.....

000076b0 <asc2_3216>:
	...
    76fc:	c001 c001 c001 c001 c001 c001 c001 c001     ................
    770c:	c001 c001 c001 c001 c001 c001 0000 0000     ................
    771c:	0000 c001 c001 c001 0000 0000 0000 0000     ................
	...
    773c:	3006 3006 3006 3006 3006 3006 3006 3006     .0.0.0.0.0.0.0.0
	...
    7778:	0000 8c01 8c03 0c03 1803 1803 1803 ff7f     ................
    7788:	ff7f 3006 3006 300e 700c 600c feff feff     ...0.0.0.p.`....
    7798:	6018 c018 c018 c018 c030 8031 0000 0000     .`......0.1.....
	...
    77b8:	0000 8000 8000 8000 f003 fc0f 8c0e 801c     ................
    77c8:	801c 801c 801c 800e e00f f803 fc00 9e00     ................
    77d8:	8e00 8e00 8e00 9c10 f81f f007 8000 8000     ................
    77e8:	8000 8000 0000 0000 0000 0000 0000 0000     ................
    77f8:	0000 0000 003c 007e 00e7 00c3 00c3 00c3     ....<.~.........
    7808:	00e7 1c7e 783c c001 0007 783c fc70 ce01     ..~.<x....<xp...
    7818:	8601 8601 8601 ce01 fc00 7800 0000 0000     ...........x....
	...
    783c:	c007 e00f 201e 001c 001c 001c 001e 000e     ..... ..........
    784c:	000f 001f 833f c333 e371 e370 f670 7e70     ....?.3.q.p.p.p~
    785c:	3c78 3e3c ee1f cf07 0000 0000 0000 0000     x<<>............
	...
    787c:	8001 8001 8001 8001 8001 8001 8001 8001     ................
	...
    78b8:	0000 3000 6000 6000 e000 c000 c001 c001     ...0.`.`........
    78c8:	8001 8003 8003 8003 8003 8003 8003 8003     ................
    78d8:	8003 8003 8001 c001 c001 c000 e000 6000     ...............`
    78e8:	6000 3000 0000 0000 0000 0000 0000 0000     .`.0............
    78f8:	0000 0006 0003 0003 8003 8001 c001 c001     ................
    7908:	c000 e000 e000 e000 e000 e000 e000 e000     ................
    7918:	e000 e000 c000 c001 c001 8001 8003 0003     ................
    7928:	0003 0006 0000 0000 0000 0000 0000 0000     ................
    7938:	0000 0000 8001 8001 8421 9c39 f00f c003     ........!.9.....
    7948:	c003 f00f 9c39 8421 8001 8001 0000 0000     ....9.!.........
	...
    7984:	8001 8001 8001 8001 8001 8001 fe7f fe7f     ................
    7994:	8001 8001 8001 8001 8001 8001 0000 0000     ................
	...
    79dc:	c001 c001 c001 c001 8001 8003 8003 0003     ................
	...
    7a10:	0000 f007 f007 0000 0000 0000 0000 0000     ................
	...
    7a5c:	8003 8003 8003 8003 0000 0000 0000 0000     ................
	...
    7a7c:	1c00 3800 3800 7000 7000 7000 e000 e000     ...8.8.p.p.p....
    7a8c:	c001 c001 8003 8003 8003 0007 0007 000e     ................
    7a9c:	000e 001c 001c 001c 0038 0038 0070 0000     ........8.8.p...
	...
    7abc:	e003 f80f 380e 1c1c 1c1c 0e38 0e38 0e38     .....8....8.8.8.
    7acc:	ce39 ce39 ce39 0e38 0e38 0e38 0e38 1c1c     9.9.9.8.8.8.8...
    7adc:	1c1c 380e f80f e003 0000 0000 0000 0000     ...8............
	...
    7afc:	e003 e00f e00c e000 e000 e000 e000 e000     ................
    7b0c:	e000 e000 e000 e000 e000 e000 e000 e000     ................
    7b1c:	e000 e000 fe0f fe0f 0000 0000 0000 0000     ................
	...
    7b3c:	e00f f83f 3c38 1e20 0e00 0e00 0e00 0e00     ..?.8< .........
    7b4c:	1e00 3c00 7c00 f800 f000 e001 c003 0007     ...<.|..........
    7b5c:	000e 001c fe3f fe3f 0000 0000 0000 0000     ....?.?.........
	...
    7b7c:	f007 f81f 1c18 0e00 0e00 0e00 0e00 3c00     ...............<
    7b8c:	f007 f007 3c00 1c00 0e00 0e00 0e00 0e00     .....<..........
    7b9c:	1e00 3c30 f83f e00f 0000 0000 0000 0000     ..0<?...........
	...
    7bbc:	7000 f000 f001 f001 7003 7007 7006 700c     .p.......p.p.p.p
    7bcc:	700c 7018 7038 7030 7060 fe7f fe7f 7000     .p.p8p0p`p.....p
    7bdc:	7000 7000 7000 7000 0000 0000 0000 0000     .p.p.p.p........
	...
    7bfc:	fc1f fc1f 001c 001c 001c 001c e01f f81f     ................
    7c0c:	3c10 1c00 0e00 0e00 0e00 0e00 0e00 0e00     .<..............
    7c1c:	1c00 3c20 f83f e01f 0000 0000 0000 0000     .. <?...........
	...
    7c3c:	f801 fc07 040f 001e 001c 001c 0038 f039     ............8.9.
    7c4c:	f83b 3c3e 1e3c 0e38 0e38 0e38 0e38 0e18     ;.><<.8.8.8.8...
    7c5c:	1c1c 3c0e f80f f003 0000 0000 0000 0000     ...<............
	...
    7c7c:	fe3f fe3f 1e00 1c00 1c00 3800 3800 3800     ?.?........8.8.8
    7c8c:	7000 7000 f000 e000 e000 e001 c001 c001     .p.p............
    7c9c:	8003 8003 8003 0007 0000 0000 0000 0000     ................
	...
    7cbc:	f007 fc1f 1c1c 0e38 0e38 0e38 0e38 1c1c     ......8.8.8.8...
    7ccc:	f007 f80f 3c1e 1c1c 0e38 0e38 0e38 0e38     .....<..8.8.8.8.
    7cdc:	1e3c 3c1e f80f f007 0000 0000 0000 0000     <..<............
	...
    7cfc:	e007 f80f 381e 1c3c 0c38 0e38 0e38 0e38     .....8<.8.8.8.8.
    7d0c:	0e38 1e3c 3e1e ee0f ce07 0e00 1c00 1c00     8.<..>..........
    7d1c:	3c00 7810 f01f c00f 0000 0000 0000 0000     .<.x............
	...
    7d48:	8003 8003 8003 8003 0000 0000 0000 0000     ................
    7d58:	0000 0000 8003 8003 8003 8003 0000 0000     ................
	...
    7d88:	8003 8003 8003 8003 0000 0000 0000 0000     ................
    7d98:	0000 0000 8003 8003 8003 8003 0003 0007     ................
    7da8:	0007 0006 0000 0000 0000 0000 0000 0000     ................
	...
    7dc4:	0200 1e00 7e00 f801 c00f 003f 0078 0078     .....~....?.x.x.
    7dd4:	003f c00f f801 7e00 1e00 0200 0000 0000     ?......~........
	...
    7e0c:	fe7f fe7f 0000 0000 0000 fe7f fe7f 0000     ................
	...
    7e44:	0040 0078 007e 801f f003 fc00 1e00 1e00     @.x.~...........
    7e54:	fc00 f003 801f 007e 0078 0040 0000 0000     ......~.x.@.....
	...
    7e7c:	e003 f80f 381c 1c10 1c00 3c00 3c00 7800     .....8.....<.<.x
    7e8c:	f000 e001 c003 8003 8003 8003 8003 0000     ................
    7e9c:	0000 8003 8003 8003 0000 0000 0000 0000     ................
	...
    7ebc:	0000 f801 fc07 0e0e 061c 0318 0330 7b30     ............0.0{
    7ecc:	ff61 8761 0363 0363 0363 0363 0363 8761     a.a.c.c.c.c.c.a.
    7edc:	ff71 7b30 0030 0018 001c 040f fc03 fc00     q.0{0...........
	...
    7efc:	c001 e003 e003 e003 e003 7007 7007 7007     ...........p.p.p
    7f0c:	780f 380e 380e 380e fc1f fc1f 1c1c 0e38     .x.8.8.8......8.
    7f1c:	0e38 0e38 0f78 0770 0000 0000 0000 0000     8.8.x.p.........
	...
    7f3c:	e03f f83f 3838 1c38 1c38 1c38 1c38 3838     ?.?.888.8.8.8.88
    7f4c:	f03f f03f 3c38 1c38 0e38 0e38 0e38 0e38     ?.?.8<8.8.8.8.8.
    7f5c:	1e38 3c38 f83f e03f 0000 0000 0000 0000     8.8<?.?.........
	...
    7f7c:	f801 fc07 0c0f 041e 001c 001c 0038 0038     ............8.8.
    7f8c:	0038 0038 0038 0038 0038 0038 001c 001c     8.8.8.8.8.8.....
    7f9c:	041e 0c0f fc07 f801 0000 0000 0000 0000     ................
	...
    7fbc:	c03f f03f 7838 1c38 1c38 0c38 0e38 0e38     ?.?.8x8.8.8.8.8.
    7fcc:	0e38 0e38 0e38 0e38 0e38 0e38 0c38 1c38     8.8.8.8.8.8.8.8.
    7fdc:	1c38 7838 f03f c03f 0000 0000 0000 0000     8.8x?.?.........
	...
    7ffc:	fe1f fe1f 001c 001c 001c 001c 001c 001c     ................
    800c:	fc1f fc1f 001c 001c 001c 001c 001c 001c     ................
    801c:	001c 001c fe1f fe1f 0000 0000 0000 0000     ................
	...
    803c:	fe1f fe1f 001c 001c 001c 001c 001c 001c     ................
    804c:	fc1f fc1f 001c 001c 001c 001c 001c 001c     ................
    805c:	001c 001c 001c 001c 0000 0000 0000 0000     ................
	...
    807c:	f801 fc07 0c0f 041e 001c 001c 0038 0038     ............8.8.
    808c:	0038 7e38 7e38 0e38 0e38 0e38 0e1c 0e1c     8.8~8~8.8.8.....
    809c:	0e1c 1e0f fe07 f801 0000 0000 0000 0000     ................
	...
    80bc:	0e38 0e38 0e38 0e38 0e38 0e38 0e38 0e38     8.8.8.8.8.8.8.8.
    80cc:	fe3f fe3f 0e38 0e38 0e38 0e38 0e38 0e38     ?.?.8.8.8.8.8.8.
    80dc:	0e38 0e38 0e38 0e38 0000 0000 0000 0000     8.8.8.8.........
	...
    80fc:	fc1f fc1f c001 c001 c001 c001 c001 c001     ................
    810c:	c001 c001 c001 c001 c001 c001 c001 c001     ................
    811c:	c001 c001 fc1f fc1f 0000 0000 0000 0000     ................
	...
    813c:	f807 f807 3800 3800 3800 3800 3800 3800     .....8.8.8.8.8.8
    814c:	3800 3800 3800 3800 3800 3800 3800 3800     .8.8.8.8.8.8.8.8
    815c:	3820 7030 f03f c00f 0000 0000 0000 0000      80p?...........
	...
    817c:	0738 0e38 1c38 3838 7038 e038 c039 803b     8.8.8.888p8.9.;.
    818c:	803f c03f c03f e03d f038 7038 7838 3c38     ?.?.?.=.8.8p8x8<
    819c:	1c38 1e38 0f38 0738 0000 0000 0000 0000     8.8.8.8.........
	...
    81bc:	001c 001c 001c 001c 001c 001c 001c 001c     ................
    81cc:	001c 001c 001c 001c 001c 001c 001c 001c     ................
    81dc:	001c 001c fe1f fe1f 0000 0000 0000 0000     ................
	...
    81fc:	1e78 1e78 3e7c 3e7c 3e7c 6e76 6e76 6e76     x.x.|>|>|>vnvnvn
    820c:	4e72 ce73 ce73 8e71 8e71 0e70 0e70 0e70     rNs.s.q.q.p.p.p.
    821c:	0e70 0e70 0e70 0e70 0000 0000 0000 0000     p.p.p.p.........
	...
    823c:	0e3c 0e3c 0e3e 0e3e 0e3e 0e3b 0e3b 8e3b     <.<.>.>.>.;.;.;.
    824c:	8e39 8e39 ce38 ce38 ee38 6e38 6e38 3e38     9.9.8.8.8.8n8n8>
    825c:	3e38 3e38 1e38 1e38 0000 0000 0000 0000     8>8>8.8.........
	...
    827c:	e003 f80f 380e 1c1c 1c1c 0e38 0e38 0e38     .....8....8.8.8.
    828c:	0e38 0e38 0e38 0e38 0e38 0e38 0e38 1c1c     8.8.8.8.8.8.8...
    829c:	1c1c 380e f80f e003 0000 0000 0000 0000     ...8............
	...
    82bc:	f01f fc1f 1e1c 0f1c 071c 071c 071c 071c     ................
    82cc:	0f1c 1e1c fc1f f01f 001c 001c 001c 001c     ................
    82dc:	001c 001c 001c 001c 0000 0000 0000 0000     ................
	...
    82fc:	e003 f80f 380e 1c1c 1c1c 0e38 0e38 0e38     .....8....8.8.8.
    830c:	0e38 0e38 0e38 0e38 0e38 0e38 0e38 1c1c     8.8.8.8.8.8.8...
    831c:	1c1c 380e f80f e003 7000 3800 1c00 1000     ...8.....p.8....
	...
    833c:	e03f f03f 7838 3c38 1c38 1c38 1c38 1c38     ?.?.8x8<8.8.8.8.
    834c:	1c38 3838 f03f e03f f038 7838 3838 3c38     8.88?.?.8.8x888<
    835c:	1c38 1e38 0e38 0f38 0000 0000 0000 0000     8.8.8.8.........
	...
    837c:	f003 fc0f 0c1e 043c 0038 0038 0038 003e     ......<.8.8.8.>.
    838c:	c01f f80f fc03 3c00 1e00 0e00 0e00 0e00     .......<........
    839c:	1e20 3c38 f83f e00f 0000 0000 0000 0000      .8<?...........
	...
    83bc:	ff7f ff7f c001 c001 c001 c001 c001 c001     ................
    83cc:	c001 c001 c001 c001 c001 c001 c001 c001     ................
    83dc:	c001 c001 c001 c001 0000 0000 0000 0000     ................
	...
    83fc:	1c38 1c38 1c38 1c38 1c38 1c38 1c38 1c38     8.8.8.8.8.8.8.8.
    840c:	1c38 1c38 1c38 1c38 1c38 1c38 1c38 1c38     8.8.8.8.8.8.8.8.
    841c:	1c38 381c f00f e007 0000 0000 0000 0000     8..8............
	...
    843c:	0770 0f78 0e38 0e38 0e38 1c1c 1c1c 1c1c     p.x.8.8.8.......
    844c:	3c1e 380e 380e 380e 7007 7007 7007 e003     .<.8.8.8.p.p.p..
    845c:	e003 e003 e003 c001 0000 0000 0000 0000     ................
	...
    847c:	07e0 07e0 07e0 0e70 0e70 0e70 ce73 ce73     ......p.p.p.s.s.
    848c:	ce73 ce73 dc3b 7c3e 7c3e 7c3e 7c3e 3c3c     s.s.;.>|>|>|>|<<
    849c:	3c3c 381c 381c 1818 0000 0000 0000 0000     <<.8.8..........
	...
    84bc:	0778 0f3c 0e1c 1e1e 3c0f 3807 f007 f003     x.<......<.8....
    84cc:	e001 e001 e001 f003 f007 7807 3c0f 1c0e     ...........x.<..
    84dc:	1e1e 0e3c 0738 0778 0000 0000 0000 0000     ..<.8.x.........
	...
    84fc:	0f78 0e38 1e3c 1c1c 3c1e 380e 7007 f007     x.8.<....<.8.p..
    850c:	e003 e003 c001 c001 c001 c001 c001 c001     ................
    851c:	c001 c001 c001 c001 0000 0000 0000 0000     ................
	...
    853c:	fe3f fe3f 1e00 1c00 3c00 7800 7000 f000     ?.?......<.x.p..
    854c:	e000 e001 c003 8003 8007 0007 000f 001e     ................
    855c:	001c 003c fe3f fe3f 0000 0000 0000 0000     ..<.?.?.........
	...
    8578:	0000 f003 f003 8003 8003 8003 8003 8003     ................
    8588:	8003 8003 8003 8003 8003 8003 8003 8003     ................
    8598:	8003 8003 8003 8003 8003 8003 8003 8003     ................
    85a8:	f003 f003 0000 0000 0000 0000 0000 0000     ................
    85b8:	0000 0000 0070 0038 0038 001c 001c 001c     ....p.8.8.......
    85c8:	000e 000e 0007 0007 8003 8003 8003 c001     ................
    85d8:	c001 e000 e000 7000 7000 7000 3800 3800     .......p.p.p.8.8
    85e8:	1c00 0000 0000 0000 0000 0000 0000 0000     ................
    85f8:	0000 e007 e007 e000 e000 e000 e000 e000     ................
    8608:	e000 e000 e000 e000 e000 e000 e000 e000     ................
    8618:	e000 e000 e000 e000 e000 e000 e000 e000     ................
    8628:	e007 e007 0000 0000 0000 0000 0000 0000     ................
    8638:	0000 0000 c003 c003 e007 700e 300c 1818     ...........p.0..
    8648:	1c38 0e70 0000 0000 0000 0000 0000 0000     8.p.............
	...
    86ac:	0000 ffff 0000 0000 0000 0000 000e 0007     ................
    86bc:	0003 8001 c000 0000 0000 0000 0000 0000     ................
	...
    8704:	0000 f007 fc1f 1c18 0e00 0e00 fe07 fe0f     ................
    8714:	0e1c 0e38 0e38 1e38 1e38 3e3c ee1f ce07     ..8.8.8.8.<>....
	...
    8738:	0000 001c 001c 001c 001c 001c 001c f81c     ................
    8748:	fc1f 1e1f 0e1e 071c 071c 071c 071c 071c     ................
    8758:	071c 071c 0e1e 1e1f fc1f f81c 0000 0000     ................
	...
    8784:	0000 f001 f807 0c0f 000e 001c 001c 001c     ................
    8794:	001c 001c 001c 001e 000e 0c0f f807 f001     ................
	...
    87b8:	0000 0e00 0e00 0e00 0e00 0e00 0e00 ce07     ................
    87c8:	fe0f 3e1e 1e1c 0e38 0e38 0e38 0e38 0e38     ...>..8.8.8.8.8.
    87d8:	0e38 0e38 1e1c 3e1e fe0f ce07 0000 0000     8.8....>........
	...
    8804:	0000 e003 f80f 3c1e 1c1c 0e3c 0e38 0e38     .......<..<.8.8.
    8814:	fe3f fe3f 0038 0038 041c 0c1e f80f e003     ?.?.8.8.........
	...
    8838:	0000 7e00 fe00 e001 c001 c001 c001 fe1f     ...~............
    8848:	fe1f c001 c001 c001 c001 c001 c001 c001     ................
    8858:	c001 c001 c001 c001 c001 c001 0000 0000     ................
	...
    8884:	0000 ce07 ee0f 3e1e 1e1c 0e38 0e38 0e38     .......>..8.8.8.
    8894:	0e38 0e38 0e38 0e38 1e1c 3e1e ee0f ce07     8.8.8.8....>....
    88a4:	0e00 0e00 1c00 3c08 f80f e007 0000 0000     .......<........
    88b4:	0000 0000 0000 001c 001c 001c 001c 001c     ................
    88c4:	001c f01c f81d 3c1e 1c1e 1c1c 1c1c 1c1c     .......<........
    88d4:	1c1c 1c1c 1c1c 1c1c 1c1c 1c1c 1c1c 1c1c     ................
	...
    88f8:	0000 c001 c001 c001 0000 0000 0000 c01f     ................
    8908:	c01f c001 c001 c001 c001 c001 c001 c001     ................
    8918:	c001 c001 c001 c001 fe3f fe3f 0000 0000     ........?.?.....
	...
    8938:	0000 e000 e000 e000 0000 0000 0000 e00f     ................
    8948:	e00f e000 e000 e000 e000 e000 e000 e000     ................
    8958:	e000 e000 e000 e000 e000 e000 e000 e000     ................
    8968:	e000 c001 c01f 001f 0000 0000 0000 0000     ................
    8978:	0000 001c 001c 001c 001c 001c 001c 0f1c     ................
    8988:	1e1c 3c1c 781c f01c e01d c01f e01f e01f     ...<.x..........
    8998:	f01e 781c 3c1c 1c1c 1e1c 0f1c 0000 0000     ...x.<..........
	...
    89b8:	0000 807f 807f 8003 8003 8003 8003 8003     ................
    89c8:	8003 8003 8003 8003 8003 8003 8003 8003     ................
    89d8:	8003 8003 8003 c001 fc01 7c00 0000 0000     ...........|....
	...
    8a04:	0000 1c77 be7f e771 c771 c771 c771 c771     ..w...q.q.q.q.q.
    8a14:	c771 c771 c771 c771 c771 c771 c771 c771     q.q.q.q.q.q.q.q.
	...
    8a44:	0000 f01c f81d 3c1e 1c1e 1c1c 1c1c 1c1c     .......<........
    8a54:	1c1c 1c1c 1c1c 1c1c 1c1c 1c1c 1c1c 1c1c     ................
	...
    8a84:	0000 e003 f80f 3c1e 1c1c 0e38 0e38 0e38     .......<..8.8.8.
    8a94:	0e38 0e38 0e38 0e38 1c1c 3c1e f80f e003     8.8.8.8....<....
	...
    8ac4:	0000 f81c fc1f 1e1f 0e1e 071c 071c 071c     ................
    8ad4:	071c 071c 071c 071c 0e1e 1e1f fc1f f81c     ................
    8ae4:	001c 001c 001c 001c 001c 001c 0000 0000     ................
	...
    8b04:	0000 ce07 fe0f 3e1e 1e1c 0e38 0e38 0e38     .......>..8.8.8.
    8b14:	0e38 0e38 0e38 0e38 1e1c 3e1e fe0f ce07     8.8.8.8....>....
    8b24:	0e00 0e00 0e00 0e00 0e00 0e00 0000 0000     ................
	...
    8b44:	0000 3c07 7e07 c207 8007 8007 0007 0007     ...<.~..........
    8b54:	0007 0007 0007 0007 0007 0007 0007 0007     ................
	...
    8b84:	0000 f003 f80f 081e 001c 001c 001f f00f     ................
    8b94:	f807 fc00 3c00 1c00 1c00 3c10 f81f e007     .....<.....<....
	...
    8bbc:	0000 8003 8003 8003 8003 fe3f fe3f 8003     ..........?.?...
    8bcc:	8003 8003 8003 8003 8003 8003 8003 8003     ................
    8bdc:	8003 c003 fe01 fe00 0000 0000 0000 0000     ................
	...
    8c04:	0000 1c1c 1c1c 1c1c 1c1c 1c1c 1c1c 1c1c     ................
    8c14:	1c1c 1c1c 1c1c 1c1c 3c1c 3c1e dc0f 9c07     .........<.<....
	...
    8c44:	0000 0e70 1c38 1c38 1c38 381c 381c 781e     ..p.8.8.8..8.8.x
    8c54:	700e 700e f00f e007 e007 e007 c003 c003     .p.p............
	...
    8c84:	0000 07e0 07e0 0e70 0e70 8e71 8e71 de7b     ......p.p.q.q.{.
    8c94:	dc3b 5c3a 5c3a 7c3e 781e 381c 381c 381c     ;.:\:\>|.x.8.8.8
	...
    8cc4:	0000 3c3c 781e 700e f00f e007 c003 c003     ..<<.x.p........
    8cd4:	8001 c003 e007 f00f 700e 781e 3c3c 1e78     .........p.x<<x.
	...
    8d04:	0000 0e70 1c38 1c38 3c3c 381c 381c 781e     ..p.8.8.<<.8.8.x
    8d14:	700e 700e e007 e007 e007 c003 c003 8003     .p.p............
    8d24:	8003 8003 0007 000f 003e 003c 0000 0000     ........>.<.....
	...
    8d44:	0000 fc1f fc1f 3c00 7800 7000 f000 e001     .......<.x.p....
    8d54:	c001 c003 8007 0007 000f 001e fc1f fc1f     ................
	...
    8d78:	0000 7c00 fc00 e001 c001 c001 c001 c001     ...|............
    8d88:	c001 c001 c001 c001 8003 001f 001f 8003     ................
    8d98:	c001 c001 c001 c001 c001 c001 c001 c001     ................
    8da8:	e001 fc00 7c00 0000 0000 0000 0000 0000     .....|..........
    8db8:	0000 8001 8001 8001 8001 8001 8001 8001     ................
    8dc8:	8001 8001 8001 8001 8001 8001 8001 8001     ................
    8dd8:	8001 8001 8001 8001 8001 8001 8001 8001     ................
    8de8:	8001 8001 8001 8001 0000 0000 0000 0000     ................
    8df8:	0000 001f 801f c003 c001 c001 c001 c001     ................
    8e08:	c001 c001 c001 c001 e000 7c00 7c00 e000     ...........|.|..
    8e18:	c001 c001 c001 c001 c001 c001 c001 c001     ................
    8e28:	c003 801f 001f 0000 4946 4f46 4f20 0d56     ........FIFO OV.
    8e38:	0000 0000 4000 461c 0000 42c8 7953 7473     .....@.F...BSyst
    8e48:	6d65 4320 6f6c 6b63 5320 6570 6465 3d20     em Clock Speed =
    8e58:	2520 2e64 3025 6433 484d 0d7a 000a 0000      %d.%03dMHz.....
    8e68:	6c42 6e69 2064 614e 6976 6167 6974 6e6f     Blind Navigation
    8e78:	0000 0000 7453 6572 7465 4320 6e6f 6964     ....Street Condi
    8e88:	6974 6e6f 0073 0000 6944 7073 616c 3a79     tions...Display:
    8e98:	5420 6d69 7265 2620 4920 554d 6420 7461      Timer & IMU dat
    8ea8:	0d61 0000 000d 0000 7453 7461 3a65 4157     a.......State:WA
    8eb8:	4556 0000 6550 6564 7473 6972 6e61 7420     VE..Pedestrian t
    8ec8:	6172 6666 6369 6920 2073 6f6e 6d72 6c61     raffic is normal
    8ed8:	0000 0000 7453 7461 3a65 4552 5453 0000     ....State:REST..
    8ee8:	7453 7461 3a65 4548 504c 0000 6550 6564     State:HELP..Pede
    8ef8:	7473 6972 6e61 7420 6172 6666 6369 6920     strian traffic i
    8f08:	2073 6261 6f6e 6d72 6c61 0000 6143 656d     s abnormal..Came
    8f18:	6172 4520 7272 0000 2020 2020 2020 2020     ra Err..        
    8f28:	2020 0000 4752 3542 3536 4d5f 444f 0d45       ..RGB565_MODE.
    8f38:	0000 0000 494d 3a44 3025 7838 0a0d 0000     ....MID:%08x....
    8f48:	4950 3a44 3025 7838 0a0d 0000               PID:%08x....

00008f54 <OV2640_InitRegTbl>:
    8f54:	00ff ff2c df2e 01ff 323c 0011 0209 d804     ..,.....<2......
    8f64:	e513 4814 0c2c 7833 333a fb3b 003e 1143     ...H,.3x:3;.>.C.
    8f74:	1016 9239 da35 1a22 c337 0023 c034 1a36     ..9.5.".7.#.4.6.
    8f84:	8806 c007 870d 410e 004c 0048 005b 0342     .......AL.H.[.B.
    8f94:	814a 9921 4024 3825 8226 005c 0063 0046     J.!.$@%8&.\.c.F.
    8fa4:	3c0c 7061 8062 057c 8020 3028 006c 806d     .<apb.|. .(0l.m.
    8fb4:	006e 0270 9471 c173 343d 575a 0012 1117     n.p.q.s.=4ZW....
    8fc4:	7518 0119 971a 3632 0f03 4037 ca4f a850     .u....26..7@O.P.
    8fd4:	235a 006d 386d 00ff 7fe5 c0f9 2441 14e0     Z#m.m8......A$..
    8fe4:	ff76 a033 2042 1843 004c d587 3f88 03d7     v.3.B C.L....?..
    8ff4:	10d9 82d3 08c8 80c9 007c 007d 037c 487d     ........|.}.|.}H
    9004:	487d 087c 207d 107d 0e7d 0090 0e91 1a91     }H|.} }.}.......
    9014:	3191 5a91 6991 7591 7e91 8891 8f91 9691     .1.Z.i.u.~......
    9024:	a391 af91 c491 d791 e891 2091 0092 0693     ........... ....
    9034:	e393 0593 0593 0093 0493 0093 0093 0093     ................
    9044:	0093 0093 0093 0093 0096 0897 1997 0297     ................
    9054:	0c97 2497 3097 2897 2697 0297 9897 8097     ...$.0.(.&......
    9064:	0097 0097 efc3 00a4 00a8 11c5 51c6 80bf     .............Q..
    9074:	10c7 66b6 a5b8 64b7 7cb9 afb3 97b4 ffb5     ...f...d.|......
    9084:	c5b0 94b1 0fb2 5cc4 c8c0 96c1 008c 3d86     .......\.......=
    9094:	0050 5051 2c52 0053 0054 8855 2c5a 2c5b     P.QPR,S.T.U.Z,[,
    90a4:	005c 02d3 edc3 007f 09da 1fe5 67e1 00e0     \............g..
    90b4:	7fdd 0005                                   ....

000090b8 <OV2640_RGB565RegTbl>:
    90b8:	00ff 08da 03d7 02df a033 003c 67e1 01ff     ........3.<..g..
    90c8:	00e0 00e1 00e5 00d7 00da 00e0 a904 ffff     ................
    90d8:	a7f6 ffff a7f6 ffff a7f4 ffff a7fc ffff     ................
    90e8:	a7fc ffff a7c2 ffff a7f4 ffff a7fc ffff     ................
    90f8:	a7c2 ffff a7fc ffff a7f4 ffff a8f0 ffff     ................
    9108:	a8f0 ffff a8f0 ffff a7c2 ffff b0dc ffff     ................
    9118:	b02e ffff b02e ffff b02c ffff b032 ffff     ........,...2...
    9128:	b032 ffff b002 ffff b02c ffff b032 ffff     2.......,...2...
    9138:	b002 ffff b032 ffff b02c ffff b0ca ffff     ....2...,.......
    9148:	b0ca ffff b0ca ffff b002 ffff               ............

00009154 <__clz_tab>:
    9154:	0100 0202 0303 0303 0404 0404 0404 0404     ................
    9164:	0505 0505 0505 0505 0505 0505 0505 0505     ................
    9174:	0606 0606 0606 0606 0606 0606 0606 0606     ................
    9184:	0606 0606 0606 0606 0606 0606 0606 0606     ................
    9194:	0707 0707 0707 0707 0707 0707 0707 0707     ................
    91a4:	0707 0707 0707 0707 0707 0707 0707 0707     ................
    91b4:	0707 0707 0707 0707 0707 0707 0707 0707     ................
    91c4:	0707 0707 0707 0707 0707 0707 0707 0707     ................
    91d4:	0808 0808 0808 0808 0808 0808 0808 0808     ................
    91e4:	0808 0808 0808 0808 0808 0808 0808 0808     ................
    91f4:	0808 0808 0808 0808 0808 0808 0808 0808     ................
    9204:	0808 0808 0808 0808 0808 0808 0808 0808     ................
    9214:	0808 0808 0808 0808 0808 0808 0808 0808     ................
    9224:	0808 0808 0808 0808 0808 0808 0808 0808     ................
    9234:	0808 0808 0808 0808 0808 0808 0808 0808     ................
    9244:	0808 0808 0808 0808 0808 0808 0808 0808     ................

00009254 <__sf_fake_stderr>:
	...

00009274 <__sf_fake_stdin>:
	...

00009294 <__sf_fake_stdout>:
	...
    92b4:	2d23 2b30 0020 0000 6c68 004c 6665 4567     #-0+ ...hlL.efgE
    92c4:	4746 0000 3130 3332 3534 3736 3938 4241     FG..0123456789AB
    92d4:	4443 4645 0000 0000 3130 3332 3534 3736     CDEF....01234567
    92e4:	3938 6261 6463 6665 0000 0000               89abcdef....
