
Glass_Cracker2.elf:     file format elf32-littleriscv
Glass_Cracker2.elf
architecture: riscv:rv32, flags 0x00000112:
EXEC_P, HAS_SYMS, D_PAGED
start address 0x00000000

Program Header:
    LOAD off    0x00001000 vaddr 0x00000000 paddr 0x00000000 align 2**12
         filesz 0x00008354 memsz 0x00008354 flags r-x
    LOAD off    0x0000a000 vaddr 0x20000000 paddr 0x00008354 align 2**12
         filesz 0x00000098 memsz 0x00000514 flags rw-
    LOAD off    0x0000a800 vaddr 0x20007800 paddr 0x20007800 align 2**12
         filesz 0x00000000 memsz 0x00000800 flags rw-

Sections:
Idx Name          Size      VMA       LMA       File off  Algn
  0 .init         00000038  00000000  00000000  00001000  2**1
                  CONTENTS, ALLOC, LOAD, READONLY, CODE
  1 .vector       000001c8  00000038  00000038  00001038  2**1
                  CONTENTS, ALLOC, LOAD, READONLY, CODE
  2 .text         00008154  00000200  00000200  00001200  2**3
                  CONTENTS, ALLOC, LOAD, READONLY, CODE
  3 .fini         00000000  00008354  00008354  0000a098  2**0
                  CONTENTS, ALLOC, LOAD, CODE
  4 .dalign       00000000  20000000  20000000  0000a098  2**0
                  CONTENTS
  5 .dlalign      00000000  00008354  00008354  0000a098  2**0
                  CONTENTS
  6 .data         00000098  20000000  00008354  0000a000  2**2
                  CONTENTS, ALLOC, LOAD, DATA
  7 .bss          0000047c  20000098  000083ec  0000a098  2**2
                  ALLOC
  8 .stack        00000800  20007800  20007800  0000a800  2**0
                  ALLOC
  9 .debug_info   00017aaf  00000000  00000000  0000a098  2**0
                  CONTENTS, READONLY, DEBUGGING
 10 .debug_abbrev 00003a85  00000000  00000000  00021b47  2**0
                  CONTENTS, READONLY, DEBUGGING
 11 .debug_aranges 00000c78  00000000  00000000  000255d0  2**3
                  CONTENTS, READONLY, DEBUGGING
 12 .debug_ranges 00000d08  00000000  00000000  00026248  2**3
                  CONTENTS, READONLY, DEBUGGING
 13 .debug_line   00012d1f  00000000  00000000  00026f50  2**0
                  CONTENTS, READONLY, DEBUGGING
 14 .debug_str    00003e58  00000000  00000000  00039c6f  2**0
                  CONTENTS, READONLY, DEBUGGING
 15 .comment      00000033  00000000  00000000  0003dac7  2**0
                  CONTENTS, READONLY
 16 .debug_frame  00002b38  00000000  00000000  0003dafc  2**2
                  CONTENTS, READONLY, DEBUGGING
 17 .debug_loc    00007091  00000000  00000000  00040634  2**0
                  CONTENTS, READONLY, DEBUGGING
 18 .stab         00000084  00000000  00000000  000476c8  2**2
                  CONTENTS, READONLY, DEBUGGING
 19 .stabstr      00000117  00000000  00000000  0004774c  2**0
                  CONTENTS, READONLY, DEBUGGING
SYMBOL TABLE:
00000000 l    d  .init	00000000 .init
00000038 l    d  .vector	00000000 .vector
00000200 l    d  .text	00000000 .text
00008354 l    d  .fini	00000000 .fini
20000000 l    d  .dalign	00000000 .dalign
00008354 l    d  .dlalign	00000000 .dlalign
20000000 l    d  .data	00000000 .data
20000098 l    d  .bss	00000000 .bss
20007800 l    d  .stack	00000000 .stack
00000000 l    d  .debug_info	00000000 .debug_info
00000000 l    d  .debug_abbrev	00000000 .debug_abbrev
00000000 l    d  .debug_aranges	00000000 .debug_aranges
00000000 l    d  .debug_ranges	00000000 .debug_ranges
00000000 l    d  .debug_line	00000000 .debug_line
00000000 l    d  .debug_str	00000000 .debug_str
00000000 l    d  .comment	00000000 .comment
00000000 l    d  .debug_frame	00000000 .debug_frame
00000000 l    d  .debug_loc	00000000 .debug_loc
00000000 l    d  .stab	00000000 .stab
00000000 l    d  .stabstr	00000000 .stabstr
00000000 l    df *ABS*	00000000 ./Startup/startup_ch32v30x_D8C.o
00000038 l       .vector	00000000 _vector_base
00000000 l    df *ABS*	00000000 ch32v30x_it.c
00000000 l    df *ABS*	00000000 gpio.c
00000000 l    df *ABS*	00000000 i2c.c
00000000 l    df *ABS*	00000000 imu_mpu6050.c
00000000 l    df *ABS*	00000000 lcd_st7789.c
00000000 l    df *ABS*	00000000 main.c
00000000 l    df *ABS*	00000000 system_ch32v30x.c
00000000 l    df *ABS*	00000000 timer.c
00000000 l    df *ABS*	00000000 ch32v30x_dma.c
00000000 l    df *ABS*	00000000 ch32v30x_exti.c
00000000 l    df *ABS*	00000000 ch32v30x_fsmc.c
00000000 l    df *ABS*	00000000 ch32v30x_gpio.c
00000000 l    df *ABS*	00000000 ch32v30x_i2c.c
00000000 l    df *ABS*	00000000 ch32v30x_misc.c
00000000 l    df *ABS*	00000000 ch32v30x_rcc.c
20000000 l     O .data	00000010 APBAHBPrescTable
20000084 l     O .data	00000004 ADCPrescTable
00000000 l    df *ABS*	00000000 ch32v30x_tim.c
00000000 l    df *ABS*	00000000 ch32v30x_usart.c
00000000 l    df *ABS*	00000000 debug.c
200000bc l     O .bss	00000002 p_ms
200000be l     O .bss	00000001 p_us
20000088 l     O .data	00000004 curbrk.5226
00000000 l    df *ABS*	00000000 divdf3.c
00000000 l    df *ABS*	00000000 floatunsidf.c
00000000 l    df *ABS*	00000000 addsf3.c
00000000 l    df *ABS*	00000000 divsf3.c
00000000 l    df *ABS*	00000000 lesf2.c
00000000 l    df *ABS*	00000000 extendsfdf2.c
00000000 l    df *ABS*	00000000 truncdfsf2.c
00000000 l    df *ABS*	00000000 libgcc2.c
00000000 l    df *ABS*	00000000 printf.c
00000000 l    df *ABS*	00000000 puts.c
00000000 l    df *ABS*	00000000 vsnprintf.c
00000000 l    df *ABS*	00000000 wbuf.c
00000000 l    df *ABS*	00000000 wsetup.c
00000000 l    df *ABS*	00000000 fflush.c
00000000 l    df *ABS*	00000000 findfp.c
00003e5a l     F .text	0000006a std
00000000 l    df *ABS*	00000000 fwalk.c
00000000 l    df *ABS*	00000000 makebuf.c
00000000 l    df *ABS*	00000000 nano-mallocr.c
00000000 l    df *ABS*	00000000 nano-mallocr.c
00000000 l    df *ABS*	00000000 nano-vfprintf.c
00000000 l    df *ABS*	00000000 nano-vfprintf.c
00004668 l     F .text	0000002a __sfputc_r
00000000 l    df *ABS*	00000000 nano-vfprintf_i.c
00000000 l    df *ABS*	00000000 sbrkr.c
00000000 l    df *ABS*	00000000 stdio.c
00000000 l    df *ABS*	00000000 writer.c
00000000 l    df *ABS*	00000000 closer.c
00000000 l    df *ABS*	00000000 fstatr.c
00000000 l    df *ABS*	00000000 isattyr.c
00000000 l    df *ABS*	00000000 lseekr.c
00000000 l    df *ABS*	00000000 memchr.c
00000000 l    df *ABS*	00000000 memcpy.c
00000000 l    df *ABS*	00000000 memmove.c
00000000 l    df *ABS*	00000000 mlock.c
00000000 l    df *ABS*	00000000 nano-mallocr.c
00000000 l    df *ABS*	00000000 readr.c
00000000 l    df *ABS*	00000000 nano-mallocr.c
00000000 l    df *ABS*	00000000 close.c
00000000 l    df *ABS*	00000000 fstat.c
00000000 l    df *ABS*	00000000 isatty.c
00000000 l    df *ABS*	00000000 lseek.c
00000000 l    df *ABS*	00000000 read.c
00000000 l    df *ABS*	00000000 libgcc2.c
00000000 l    df *ABS*	00000000 impure.c
20000010 l     O .data	00000060 impure_data
00000000 l    df *ABS*	00000000 reent.c
0000507e g     F .text	00000014 _malloc_usable_size_r
00001a7e  w      .text	00000000 EXTI2_IRQHandler
00001ac8  w      .text	00000000 TIM8_TRG_COM_IRQHandler
00001aca  w      .text	00000000 TIM8_CC_IRQHandler
200000a8 g     O .bss	00000004 href_cnt
00004e88 g     F .text	00000028 _isatty_r
00000c84 g     F .text	00000384 LCD_ShowChar
0000399a g     F .text	000000da _puts_r
00004eb0 g     F .text	0000002c _lseek_r
200004c8 g     O .bss	0000000c acc
00001d4c g     F .text	00000014 DMA_Cmd
0000275a g     F .text	00000006 TIM_SetCompare2
00001b00  w      .text	00000000 UART8_IRQHandler
00000582 g     F .text	00000010 IMU_SetGyroFsr
2000009a g     O .bss	00000002 BACK_COLOR
000011e6 g     F .text	0000004e GPIO_CFG
0000395a g     F .text	00000040 printf
20000870 g       .data	00000000 __global_pointer$
00001aa4  w      .text	00000000 TIM1_CC_IRQHandler
00002184 g     F .text	0000000a I2C_ReceiveData
00004dcc g     F .text	00000036 __sseek
00003f14 g     F .text	00000066 __sinit
00003aee g     F .text	000000c0 __swbuf_r
000002ac g     F .text	00000002 HardFault_Handler
00003ece g     F .text	00000046 __sfmoreglue
00000608 g     F .text	00000110 IMU_ReadByte
200004d4 g     O .bss	00000004 acc_total_100x
000007b6 g     F .text	0000001a LCD_ReadData
00004ff8 g     F .text	00000002 __malloc_unlock
00001a2a g     F .text	0000001e TIM6_IRQHandler
00003394 g     F .text	000002ae .hidden __divsf3
00001a6a  w      .text	00000000 SysTick_Handler
000002ae g     F .text	000000ee Button_INT_Init
000021f4 g     F .text	000000b8 NVIC_Init
200004d8 g     O .bss	00000004 raw_acc_total
00001a70  w      .text	00000000 PVD_IRQHandler
00001ad0  w      .text	00000000 SDIO_IRQHandler
00004fac g     F .text	0000004a memmove
00001b02  w      .text	00000000 TIM9_BRK_IRQHandler
00001b16  w      .text	00000000 DMA2_Channel8_IRQHandler
000002a8 g     F .text	00000004 NMI_Handler
00001af0  w      .text	00000000 CAN2_RX1_IRQHandler
00001a80  w      .text	00000000 EXTI3_IRQHandler
000009c0 g     F .text	0000000e LCD_SetColor
200004dc g     O .bss	00000004 raw_gyro_total
200004e0 g     O .bss	00000006 raw_gyro
00001af8  w      .text	00000000 USBHS_IRQHandler
00000a8a g     F .text	0000004c LCD_Clear
000028b4 g     F .text	0000000c USART_GetFlagStatus
00001b18  w      .text	00000000 DMA2_Channel9_IRQHandler
00004e5e g     F .text	0000002a _fstat_r
00001b10  w      .text	00000000 TIM10_CC_IRQHandler
20000510 g     O .bss	00000004 errno
20000098 g       .bss	00000000 _sbss
00000800 g       *ABS*	00000000 __stack_size
00002942 g     F .text	0000005a USART_Printf_Init
00001d14 g     F .text	00000038 DMA_Init
00001d64 g     F .text	00000008 DMA_GetCurrDataCounter
200000ac g     O .bss	00000001 refresh_flag
00001ec6 g     F .text	0000001e FSMC_NORSRAMCmd
000026f0 g     F .text	00000016 TIM_CtrlPWMOutputs
00004ef6 g     F .text	000000b6 memcpy
0000128e g     F .text	00000016 uartWriteBLEstr
00003ec4 g     F .text	0000000a _cleanup_r
000043e8 g     F .text	00000280 _svfprintf_r
20000070 g     O .data	00000002 FORE_COLOR
000003c6 g     F .text	00000050 EXTI0_IRQHandler
00001ab0  w      .text	00000000 I2C2_EV_IRQHandler
00001b0e  w      .text	00000000 TIM10_TRG_COM_IRQHandler
00001234 g     F .text	0000005a uartWriteBLE
00001856 g     F .text	00000026 Tick_TIM_INT_Init
000026d4 g     F .text	0000001c TIM_Cmd
00003a74 g     F .text	0000000a puts
20000080 g     O .data	00000004 SystemCoreClock
000017f6 g     F .text	00000060 Refresh_TIM_Init
00002766 g     F .text	0000000e TIM_ClearFlag
0000509e g     F .text	0000000c _fstat
00000038 g       .init	00000000 _einit
00002790 g     F .text	0000000e TIM_ClearITPendingBit
00001d60 g     F .text	00000004 DMA_SetCurrDataCounter
00002760 g     F .text	00000006 TIM_GetCounter
00003ade g     F .text	00000010 vsnprintf
00003642 g     F .text	0000008c .hidden __lesf2
000023d8 g     F .text	0000001e RCC_APB2PeriphClockCmd
00001af2  w      .text	00000000 CAN2_SCE_IRQHandler
00001a92  w      .text	00000000 ADC1_2_IRQHandler
00001ee4 g     F .text	000000c2 GPIO_Init
00001a68  w      .text	00000000 Break_Point_Handler
2000009c g     O .bss	00000004 addr_cnt
200000b8 g     O .bss	00000004 NVIC_Priority_Group
00001ab4  w      .text	00000000 SPI1_IRQHandler
00002878 g     F .text	0000001c USART_Cmd
0000187c g     F .text	00000026 Refresh_TIM_INT_Init
00004d24 g     F .text	0000002a _sbrk_r
00001a72  w      .text	00000000 TAMPER_IRQHandler
0000573c g     O .text	000011a0 asc2_2412
00005052 g     F .text	0000002c _read_r
00001aee  w      .text	00000000 CAN2_RX0_IRQHandler
00000986 g     F .text	0000001c LCD_SetBrightness
000036ce g     F .text	000000ac .hidden __extendsfdf2
00001ac6  w      .text	00000000 TIM8_UP_IRQHandler
00002450 g     F .text	000000f8 TIM_DeInit
000023f6 g     F .text	0000001e RCC_APB1PeriphClockCmd
00001a64  w      .text	00000000 Ecall_M_Mode_Handler
20007800 g       .stack	00000000 _heap_end
000050aa g     F .text	0000000c _isatty
000028e6 g     F .text	0000002e Delay_Us
20000090 g     O .data	00000004 _global_impure_ptr
00004ffa g     F .text	00000058 _realloc_r
00001ae0  w      .text	00000000 DMA2_Channel2_IRQHandler
000023ba g     F .text	0000001e RCC_AHBPeriphClockCmd
00001a8a  w      .text	00000000 DMA1_Channel4_IRQHandler
0000217e g     F .text	00000006 I2C_SendData
00002fc2 g     F .text	00000068 .hidden __floatunsidf
000029e8 g     F .text	00000026 _sbrk
200000b4 g     O .bss	00000004 distance
200004e6 g     O .bss	00000001 img_tape
200004e8 g     O .bss	00000004 time_stamp_record
00001fee g     F .text	0000011a I2C_Init
00001b04  w      .text	00000000 TIM9_UP_IRQHandler
00001abc  w      .text	00000000 USART3_IRQHandler
000012a4 g     F .text	00000072 EXTI_INT_INIT
00001a74  w      .text	00000000 RTC_IRQHandler
20000514 g       .bss	00000000 _ebss
00001a90  w      .text	00000000 DMA1_Channel7_IRQHandler
00003ade g     F .text	00000010 vsniprintf
00001a98  w      .text	00000000 CAN1_RX1_IRQHandler
000028c0 g     F .text	00000026 Delay_Init
00001316 g     F .text	00000150 DVP_IRQHandler
00001ad8  w      .text	00000000 UART5_IRQHandler
00001fb0 g     F .text	00000004 GPIO_SetBits
000009a2 g     F .text	0000001e LCD_ConvertColor
00001aaa  w      .text	00000000 TIM4_IRQHandler
0000271c g     F .text	0000001e TIM_ARRPreloadConfig
00001fb8 g     F .text	0000000a GPIO_WriteBit
000005a2 g     F .text	00000034 IMU_SetLPF
00001ade  w      .text	00000000 DMA2_Channel1_IRQHandler
00002124 g     F .text	0000001e I2C_GenerateSTART
000082b8 g     O .text	00000020 __sf_fake_stderr
00001aac  w      .text	00000000 I2C1_EV_IRQHandler
000042fc g     F .text	000000ec __ssputs_r
00002774 g     F .text	0000001c TIM_GetITStatus
200004ec g     O .bss	0000000c gyro
000022ac g     F .text	0000010e RCC_GetClocksFreq
00001a8e  w      .text	00000000 DMA1_Channel6_IRQHandler
000038e4 g     F .text	00000076 .hidden __clzsi2
00004692 g     F .text	00000042 __sfputs_r
00001ad6  w      .text	00000000 UART4_IRQHandler
00001ae4  w      .text	00000000 DMA2_Channel4_IRQHandler
00004edc g     F .text	0000001a memchr
0000279e g     F .text	000000da USART_Init
0000417a g     F .text	000000a8 _free_r
00001aa8  w      .text	00000000 TIM3_IRQHandler
00001a78  w      .text	00000000 RCC_IRQHandler
00001aa2  w      .text	00000000 TIM1_TRG_COM_IRQHandler
00001164 g     F .text	00000082 DMA_INIT
00001a84  w      .text	00000000 DMA1_Channel1_IRQHandler
00000000 g       .init	00000000 _start
00001b14  w      .text	00000000 DMA2_Channel7_IRQHandler
00001e02 g     F .text	0000000a EXTI_ClearFlag
000021bc g     F .text	00000032 I2C_GetFlagStatus
000050b6 g     F .text	0000000c _lseek
0000273a g     F .text	0000001a TIM_OC2PreloadConfig
00001abe  w      .text	00000000 EXTI15_10_IRQHandler
00002706 g     F .text	00000016 TIM_ITConfig
00000718 g     F .text	00000088 IMU_Init
200000ae g     O .bss	00000001 warning_flag
00002608 g     F .text	000000cc TIM_OC2Init
0000171c g     F .text	00000080 Input_Capture_Init
00001d98 g     F .text	0000006a EXTI_Init
200000a4 g     O .bss	00000004 frame_cnt
00002108 g     F .text	0000001c I2C_Cmd
00001fb4 g     F .text	00000004 GPIO_ResetBits
00001a48 g     F .text	00000018 TIM7_IRQHandler
00004e36 g     F .text	00000028 _close_r
00001aec  w      .text	00000000 CAN2_TX_IRQHandler
20000000 g       .dalign	00000000 _data_vma
000010dc g     F .text	00000088 USARTx_CFG
00001ad2  w      .text	00000000 TIM5_IRQHandler
00001e0c g     F .text	000000ba FSMC_NORSRAMInit
00003bae g     F .text	0000010c __swsetup_r
00001a9c  w      .text	00000000 EXTI9_5_IRQHandler
200000ad g     O .bss	00000001 tick
00002a0e g     F .text	000005b4 .hidden __divdf3
00003f7a g     F .text	0000009c __sfp
000018a2 g     F .text	0000001c ENABLE_TIM
00001fc2 g     F .text	0000002c GPIO_EXTILineConfig
00003a7e g     F .text	00000060 _vsnprintf_r
200004f8 g     O .bss	00000004 time_stamp_trigger
00004d4e g     F .text	00000030 __sread
0000218e g     F .text	00000014 I2C_Send7bitAddress
00001aea  w      .text	00000000 ETH_WKUP_IRQHandler
00004ff6 g     F .text	00000002 __malloc_lock
00003df6 g     F .text	00000064 _fflush_r
00001ab6  w      .text	00000000 SPI2_IRQHandler
000082d8 g     O .text	00000020 __sf_fake_stdin
200000c8 g     O .bss	00000400 RxBuffer
00000ad6 g     F .text	000001ae LCD_Init
00000200 g     F .text	000000a8 memset
00001466 g     F .text	000001bc main
0000515c g     O .text	000005e0 asc2_1608
00001b0a  w      .text	00000000 TIM10_BRK_IRQHandler
00001b08  w      .text	00000000 TIM9_CC_IRQHandler
00003642 g     F .text	0000008c .hidden __ltsf2
00004e02 g     F .text	00000006 __sclose
00001ae6  w      .text	00000000 DMA2_Channel5_IRQHandler
00000416 g     F .text	00000084 IIC_Init
0000377a g     F .text	0000016a .hidden __truncdfsf2
00004222 g     F .text	000000da _malloc_r
200004fc g     O .bss	00000004 time
000018c8 g     F .text	0000013a Ultrasoniclength
00001a8c  w      .text	00000000 DMA1_Channel5_IRQHandler
00002754 g     F .text	00000006 TIM_SetCounter
00001a82  w      .text	00000000 EXTI4_IRQHandler
20000500 g     O .bss	00000004 gyro_total_10x
00002914 g     F .text	0000002e Delay_Ms
00001a96  w      .text	00000000 USB_LP_CAN1_RX0_IRQHandler
00000a2c g     F .text	0000005e LCD_AddressSetRead
2000007c g     O .data	00000002 TxBuffer
00001622 g     F .text	000000fa SystemInit
00001acc  w      .text	00000000 RNG_IRQHandler
200000b0 g     O .bss	00000002 count
200000a0 g     O .bss	00000001 crack_flag
0000395a g     F .text	00000040 iprintf
00001a94  w      .text	00000000 USB_HP_CAN1_TX_IRQHandler
000081b8 g     O .text	00000100 .hidden __clz_tab
00000000 g       .init	00000000 _sinit
00004e08 g     F .text	0000002e _write_r
20000504 g     O .bss	00000006 raw_acc
00001a88  w      .text	00000000 DMA1_Channel3_IRQHandler
00001ace  w      .text	00000000 FSMC_IRQHandler
00001ae8  w      .text	00000000 ETH_IRQHandler
0000496e g     F .text	0000010c _printf_common
2000008c g     O .data	00000004 _impure_ptr
00001aa0  w      .text	00000000 TIM1_UP_IRQHandler
00003cba g     F .text	0000013c __sflush_r
000005d6 g     F .text	00000032 IMU_SetRate
20000074 g     O .data	00000004 RGB565_DVPDMAaddr0
000043e8 g     F .text	00000280 _svfiprintf_r
0000039c g     F .text	0000002a Start_Trig
00001a6e  w      .text	00000000 WWDG_IRQHandler
00001af6  w      .text	00000000 USBHSWakeup_IRQHandler
00001b1c  w      .text	00000000 DMA2_Channel11_IRQHandler
00002432 g     F .text	0000001e RCC_APB1PeriphResetCmd
00001a66  w      .text	00000000 Ecall_U_Mode_Handler
00001b12  w      .text	00000000 DMA2_Channel6_IRQHandler
00001a02 g     F .text	00000028 TIM2_IRQHandler
20008000 g       .stack	00000000 _eusrstack
00003a7e g     F .text	00000060 _vsniprintf_r
00001a6c  w      .text	00000000 SW_Handler
20000099 g     O .bss	00000001 gyro_fsr
200000a1 g     O .bss	00000001 crack_halt_flag
00001a9e  w      .text	00000000 TIM1_BRK_IRQHandler
00004082 g     F .text	0000005a __swhatbuf_r
000028aa g     F .text	0000000a USART_SendData
00001b1a  w      .text	00000000 DMA2_Channel10_IRQHandler
00001a7c  w      .text	00000000 EXTI1_IRQHandler
0000299c g     F .text	0000004c _write
20000098 g     O .bss	00000001 accel_fsr
20000098 g       .data	00000000 _edata
2000050c g     O .bss	00000004 acc_record_100x
20000514 g       .bss	00000000 _end
000068dc g     O .text	00001780 asc2_3216
00002548 g     F .text	000000c0 TIM_TimeBaseInit
00001ac0  w      .text	00000000 RTCAlarm_IRQHandler
200000a2 g     O .bss	00000001 crack_repair_flag
00008354 g       .dlalign	00000000 _data_lma
00001b0c  w      .text	00000000 TIM10_UP_IRQHandler
00001b06  w      .text	00000000 TIM9_TRG_COM_IRQHandler
00001afe  w      .text	00000000 UART7_IRQHandler
00001aba  w      .text	00000000 USART2_IRQHandler
00001afc  w      .text	00000000 UART6_IRQHandler
00004d7e g     F .text	0000004e __swrite
00000592 g     F .text	00000010 IMU_SetAccelFsr
000046d4 g     F .text	0000029a _vfiprintf_r
00004016 g     F .text	0000006c _fwalk_reent
00001ab2  w      .text	00000000 I2C2_ER_IRQHandler
00001a86  w      .text	00000000 DMA1_Channel2_IRQHandler
000082f8 g     O .text	00000020 __sf_fake_stdout
00001ac4  w      .text	00000000 TIM8_BRK_IRQHandler
00001d6c g     F .text	0000002c DMA_ClearFlag
000050c2 g     F .text	0000000c _read
00001b1e  w      .text	00000000 handle_reset
000018be g     F .text	0000000a DISABLE_TIM
00001a9a  w      .text	00000000 CAN1_SCE_IRQHandler
00001a76  w      .text	00000000 FLASH_IRQHandler
00001008 g     F .text	000000d4 LCD_ShowString
00001ab8  w      .text	00000000 USART1_IRQHandler
000040dc g     F .text	0000009e __smakebuf_r
00002160 g     F .text	0000001e I2C_AcknowledgeConfig
00001af4  w      .text	00000000 OTG_FS_IRQHandler
00004a7a g     F .text	000002aa _printf_i
00001ad4  w      .text	00000000 SPI3_IRQHandler
0000179c g     F .text	0000005a Tick_TIM_Init
200000c4 g     O .bss	00000004 __malloc_sbrk_start
000021a2 g     F .text	0000001a I2C_CheckEvent
00002414 g     F .text	0000001e RCC_APB2PeriphResetCmd
00002142 g     F .text	0000001e I2C_GenerateSTOP
00001aae  w      .text	00000000 I2C1_ER_IRQHandler
000021ee g     F .text	00000006 NVIC_PriorityGroupConfig
00001ba8 g     F .text	0000016c DMA_DeInit
200000c0 g     O .bss	00000004 __malloc_free_list
000007a0 g     F .text	00000016 LCD_WriteHalfWord
000046d4 g     F .text	0000029a _vfprintf_r
00001fa6 g     F .text	0000000a GPIO_ReadInputDataBit
00002894 g     F .text	00000016 USART_DMACmd
20000078 g     O .data	00000004 RGB565_DVPDMAaddr1
0000302a g     F .text	0000036a .hidden __addsf3
000008f0 g     F .text	00000096 LCD_GPIOInit
0000049a g     F .text	000000e8 IMU_WriteByte
00001ac2  w      .text	00000000 USBWakeUp_IRQHandler
000009ce g     F .text	0000005e LCD_AddressSetWrite
00005092 g     F .text	0000000c _close
00001ae2  w      .text	00000000 DMA2_Channel3_IRQHandler
000007d0 g     F .text	00000120 LCD_FSMCInit



Disassembly of section .init:

00000000 <_sinit>:
   0:	31f0106f          	j	1b1e <handle_reset>
   4:	00000013          	nop
   8:	00000013          	nop
   c:	00000013          	nop
  10:	00000013          	nop
  14:	00000013          	nop
  18:	00000013          	nop
  1c:	00000013          	nop
  20:	00000013          	nop
  24:	00000013          	nop
  28:	00000013          	nop
  2c:	00000013          	nop
  30:	00000013          	nop
  34:	00100073          	ebreak

Disassembly of section .vector:

00000038 <_vector_base>:
	...
  40:	02a8                	addi	a0,sp,328
  42:	0000                	unimp
  44:	02ac                	addi	a1,sp,328
  46:	0000                	unimp
  48:	0000                	unimp
  4a:	0000                	unimp
  4c:	1a64                	addi	s1,sp,316
	...
  56:	0000                	unimp
  58:	1a66                	slli	s4,s4,0x39
  5a:	0000                	unimp
  5c:	1a68                	addi	a0,sp,316
	...
  66:	0000                	unimp
  68:	1a6a                	slli	s4,s4,0x3a
  6a:	0000                	unimp
  6c:	0000                	unimp
  6e:	0000                	unimp
  70:	1a6c                	addi	a1,sp,316
  72:	0000                	unimp
  74:	0000                	unimp
  76:	0000                	unimp
  78:	1a6e                	slli	s4,s4,0x3b
  7a:	0000                	unimp
  7c:	1a70                	addi	a2,sp,316
  7e:	0000                	unimp
  80:	1a72                	slli	s4,s4,0x3c
  82:	0000                	unimp
  84:	1a74                	addi	a3,sp,316
  86:	0000                	unimp
  88:	1a76                	slli	s4,s4,0x3d
  8a:	0000                	unimp
  8c:	1a78                	addi	a4,sp,316
  8e:	0000                	unimp
  90:	03c6                	slli	t2,t2,0x11
  92:	0000                	unimp
  94:	1a7c                	addi	a5,sp,316
  96:	0000                	unimp
  98:	1a7e                	slli	s4,s4,0x3f
  9a:	0000                	unimp
  9c:	1a80                	addi	s0,sp,368
  9e:	0000                	unimp
  a0:	1a82                	slli	s5,s5,0x20
  a2:	0000                	unimp
  a4:	1a84                	addi	s1,sp,368
  a6:	0000                	unimp
  a8:	1a86                	slli	s5,s5,0x21
  aa:	0000                	unimp
  ac:	1a88                	addi	a0,sp,368
  ae:	0000                	unimp
  b0:	1a8a                	slli	s5,s5,0x22
  b2:	0000                	unimp
  b4:	1a8c                	addi	a1,sp,368
  b6:	0000                	unimp
  b8:	1a8e                	slli	s5,s5,0x23
  ba:	0000                	unimp
  bc:	1a90                	addi	a2,sp,368
  be:	0000                	unimp
  c0:	1a92                	slli	s5,s5,0x24
  c2:	0000                	unimp
  c4:	1a94                	addi	a3,sp,368
  c6:	0000                	unimp
  c8:	1a96                	slli	s5,s5,0x25
  ca:	0000                	unimp
  cc:	1a98                	addi	a4,sp,368
  ce:	0000                	unimp
  d0:	1a9a                	slli	s5,s5,0x26
  d2:	0000                	unimp
  d4:	1a9c                	addi	a5,sp,368
  d6:	0000                	unimp
  d8:	1a9e                	slli	s5,s5,0x27
  da:	0000                	unimp
  dc:	1aa0                	addi	s0,sp,376
  de:	0000                	unimp
  e0:	1aa2                	slli	s5,s5,0x28
  e2:	0000                	unimp
  e4:	1aa4                	addi	s1,sp,376
  e6:	0000                	unimp
  e8:	1a02                	slli	s4,s4,0x20
  ea:	0000                	unimp
  ec:	1aa8                	addi	a0,sp,376
  ee:	0000                	unimp
  f0:	1aaa                	slli	s5,s5,0x2a
  f2:	0000                	unimp
  f4:	1aac                	addi	a1,sp,376
  f6:	0000                	unimp
  f8:	1aae                	slli	s5,s5,0x2b
  fa:	0000                	unimp
  fc:	1ab0                	addi	a2,sp,376
  fe:	0000                	unimp
 100:	1ab2                	slli	s5,s5,0x2c
 102:	0000                	unimp
 104:	1ab4                	addi	a3,sp,376
 106:	0000                	unimp
 108:	1ab6                	slli	s5,s5,0x2d
 10a:	0000                	unimp
 10c:	1ab8                	addi	a4,sp,376
 10e:	0000                	unimp
 110:	1aba                	slli	s5,s5,0x2e
 112:	0000                	unimp
 114:	1abc                	addi	a5,sp,376
 116:	0000                	unimp
 118:	1abe                	slli	s5,s5,0x2f
 11a:	0000                	unimp
 11c:	1ac0                	addi	s0,sp,372
 11e:	0000                	unimp
 120:	1ac2                	slli	s5,s5,0x30
 122:	0000                	unimp
 124:	1ac4                	addi	s1,sp,372
 126:	0000                	unimp
 128:	1ac6                	slli	s5,s5,0x31
 12a:	0000                	unimp
 12c:	1ac8                	addi	a0,sp,372
 12e:	0000                	unimp
 130:	1aca                	slli	s5,s5,0x32
 132:	0000                	unimp
 134:	1acc                	addi	a1,sp,372
 136:	0000                	unimp
 138:	1ace                	slli	s5,s5,0x33
 13a:	0000                	unimp
 13c:	1ad0                	addi	a2,sp,372
 13e:	0000                	unimp
 140:	1ad2                	slli	s5,s5,0x34
 142:	0000                	unimp
 144:	1ad4                	addi	a3,sp,372
 146:	0000                	unimp
 148:	1ad6                	slli	s5,s5,0x35
 14a:	0000                	unimp
 14c:	1ad8                	addi	a4,sp,372
 14e:	0000                	unimp
 150:	1a2a                	slli	s4,s4,0x2a
 152:	0000                	unimp
 154:	1a48                	addi	a0,sp,308
 156:	0000                	unimp
 158:	1ade                	slli	s5,s5,0x37
 15a:	0000                	unimp
 15c:	1ae0                	addi	s0,sp,380
 15e:	0000                	unimp
 160:	1ae2                	slli	s5,s5,0x38
 162:	0000                	unimp
 164:	1ae4                	addi	s1,sp,380
 166:	0000                	unimp
 168:	1ae6                	slli	s5,s5,0x39
 16a:	0000                	unimp
 16c:	1ae8                	addi	a0,sp,380
 16e:	0000                	unimp
 170:	1aea                	slli	s5,s5,0x3a
 172:	0000                	unimp
 174:	1aec                	addi	a1,sp,380
 176:	0000                	unimp
 178:	1aee                	slli	s5,s5,0x3b
 17a:	0000                	unimp
 17c:	1af0                	addi	a2,sp,380
 17e:	0000                	unimp
 180:	1af2                	slli	s5,s5,0x3c
 182:	0000                	unimp
 184:	1af4                	addi	a3,sp,380
 186:	0000                	unimp
 188:	1af6                	slli	s5,s5,0x3d
 18a:	0000                	unimp
 18c:	1af8                	addi	a4,sp,380
 18e:	0000                	unimp
 190:	1316                	slli	t1,t1,0x25
 192:	0000                	unimp
 194:	1afc                	addi	a5,sp,380
 196:	0000                	unimp
 198:	1afe                	slli	s5,s5,0x3f
 19a:	0000                	unimp
 19c:	1b00                	addi	s0,sp,432
 19e:	0000                	unimp
 1a0:	1b02                	slli	s6,s6,0x20
 1a2:	0000                	unimp
 1a4:	1b04                	addi	s1,sp,432
 1a6:	0000                	unimp
 1a8:	1b06                	slli	s6,s6,0x21
 1aa:	0000                	unimp
 1ac:	1b08                	addi	a0,sp,432
 1ae:	0000                	unimp
 1b0:	1b0a                	slli	s6,s6,0x22
 1b2:	0000                	unimp
 1b4:	1b0c                	addi	a1,sp,432
 1b6:	0000                	unimp
 1b8:	1b0e                	slli	s6,s6,0x23
 1ba:	0000                	unimp
 1bc:	1b10                	addi	a2,sp,432
 1be:	0000                	unimp
 1c0:	1b12                	slli	s6,s6,0x24
 1c2:	0000                	unimp
 1c4:	1b14                	addi	a3,sp,432
 1c6:	0000                	unimp
 1c8:	1b16                	slli	s6,s6,0x25
 1ca:	0000                	unimp
 1cc:	1b18                	addi	a4,sp,432
 1ce:	0000                	unimp
 1d0:	1b1a                	slli	s6,s6,0x26
 1d2:	0000                	unimp
 1d4:	1b1c                	addi	a5,sp,432
	...

Disassembly of section .text:

00000200 <memset>:
     200:	433d                	li	t1,15
     202:	872a                	mv	a4,a0
     204:	02c37363          	bgeu	t1,a2,22a <memset+0x2a>
     208:	00f77793          	andi	a5,a4,15
     20c:	efbd                	bnez	a5,28a <memset+0x8a>
     20e:	e5ad                	bnez	a1,278 <memset+0x78>
     210:	ff067693          	andi	a3,a2,-16
     214:	8a3d                	andi	a2,a2,15
     216:	96ba                	add	a3,a3,a4
     218:	c30c                	sw	a1,0(a4)
     21a:	c34c                	sw	a1,4(a4)
     21c:	c70c                	sw	a1,8(a4)
     21e:	c74c                	sw	a1,12(a4)
     220:	0741                	addi	a4,a4,16
     222:	fed76be3          	bltu	a4,a3,218 <memset+0x18>
     226:	e211                	bnez	a2,22a <memset+0x2a>
     228:	8082                	ret
     22a:	40c306b3          	sub	a3,t1,a2
     22e:	068a                	slli	a3,a3,0x2
     230:	00000297          	auipc	t0,0x0
     234:	9696                	add	a3,a3,t0
     236:	00a68067          	jr	10(a3)
     23a:	00b70723          	sb	a1,14(a4)
     23e:	00b706a3          	sb	a1,13(a4)
     242:	00b70623          	sb	a1,12(a4)
     246:	00b705a3          	sb	a1,11(a4)
     24a:	00b70523          	sb	a1,10(a4)
     24e:	00b704a3          	sb	a1,9(a4)
     252:	00b70423          	sb	a1,8(a4)
     256:	00b703a3          	sb	a1,7(a4)
     25a:	00b70323          	sb	a1,6(a4)
     25e:	00b702a3          	sb	a1,5(a4)
     262:	00b70223          	sb	a1,4(a4)
     266:	00b701a3          	sb	a1,3(a4)
     26a:	00b70123          	sb	a1,2(a4)
     26e:	00b700a3          	sb	a1,1(a4)
     272:	00b70023          	sb	a1,0(a4)
     276:	8082                	ret
     278:	0ff5f593          	andi	a1,a1,255
     27c:	00859693          	slli	a3,a1,0x8
     280:	8dd5                	or	a1,a1,a3
     282:	01059693          	slli	a3,a1,0x10
     286:	8dd5                	or	a1,a1,a3
     288:	b761                	j	210 <memset+0x10>
     28a:	00279693          	slli	a3,a5,0x2
     28e:	00000297          	auipc	t0,0x0
     292:	9696                	add	a3,a3,t0
     294:	8286                	mv	t0,ra
     296:	fa8680e7          	jalr	-88(a3)
     29a:	8096                	mv	ra,t0
     29c:	17c1                	addi	a5,a5,-16
     29e:	8f1d                	sub	a4,a4,a5
     2a0:	963e                	add	a2,a2,a5
     2a2:	f8c374e3          	bgeu	t1,a2,22a <memset+0x2a>
     2a6:	b7a5                	j	20e <memset+0xe>

000002a8 <NMI_Handler>:
     2a8:	30200073          	mret

000002ac <HardFault_Handler>:
     2ac:	a001                	j	2ac <HardFault_Handler>

000002ae <Button_INT_Init>:
     2ae:	715d                	addi	sp,sp,-80
     2b0:	4585                	li	a1,1
     2b2:	4515                	li	a0,5
     2b4:	c686                	sw	ra,76(sp)
     2b6:	c4a2                	sw	s0,72(sp)
     2b8:	c2a6                	sw	s1,68(sp)
     2ba:	c0ca                	sw	s2,64(sp)
     2bc:	de4e                	sw	s3,60(sp)
     2be:	ca02                	sw	zero,20(sp)
     2c0:	cc02                	sw	zero,24(sp)
     2c2:	ce02                	sw	zero,28(sp)
     2c4:	d002                	sw	zero,32(sp)
     2c6:	d202                	sw	zero,36(sp)
     2c8:	d402                	sw	zero,40(sp)
     2ca:	d602                	sw	zero,44(sp)
     2cc:	c602                	sw	zero,12(sp)
     2ce:	c802                	sw	zero,16(sp)
     2d0:	108020ef          	jal	ra,23d8 <RCC_APB2PeriphClockCmd>
     2d4:	40011437          	lui	s0,0x40011
     2d8:	4785                	li	a5,1
     2da:	00f11a23          	sh	a5,20(sp)
     2de:	084c                	addi	a1,sp,20
     2e0:	04800793          	li	a5,72
     2e4:	80040513          	addi	a0,s0,-2048 # 40010800 <_eusrstack+0x20008800>
     2e8:	ce3e                	sw	a5,28(sp)
     2ea:	3fb010ef          	jal	ra,1ee4 <GPIO_Init>
     2ee:	4581                	li	a1,0
     2f0:	4501                	li	a0,0
     2f2:	4d1010ef          	jal	ra,1fc2 <GPIO_EXTILineConfig>
     2f6:	4485                	li	s1,1
     2f8:	47a1                	li	a5,8
     2fa:	1008                	addi	a0,sp,32
     2fc:	d026                	sw	s1,32(sp)
     2fe:	d43e                	sw	a5,40(sp)
     300:	d626                	sw	s1,44(sp)
     302:	d202                	sw	zero,36(sp)
     304:	295010ef          	jal	ra,1d98 <EXTI_Init>
     308:	11600793          	li	a5,278
     30c:	00f11623          	sh	a5,12(sp)
     310:	0068                	addi	a0,sp,12
     312:	4789                	li	a5,2
     314:	00f10723          	sb	a5,14(sp)
     318:	c826                	sw	s1,16(sp)
     31a:	6db010ef          	jal	ra,21f4 <NVIC_Init>
     31e:	4585                	li	a1,1
     320:	04000513          	li	a0,64
     324:	0b4020ef          	jal	ra,23d8 <RCC_APB2PeriphClockCmd>
     328:	400124b7          	lui	s1,0x40012
     32c:	6789                	lui	a5,0x2
     32e:	49c1                	li	s3,16
     330:	490d                	li	s2,3
     332:	084c                	addi	a1,sp,20
     334:	80048513          	addi	a0,s1,-2048 # 40011800 <_eusrstack+0x20009800>
     338:	00f11a23          	sh	a5,20(sp)
     33c:	ce4e                	sw	s3,28(sp)
     33e:	cc4a                	sw	s2,24(sp)
     340:	3a5010ef          	jal	ra,1ee4 <GPIO_Init>
     344:	77e1                	lui	a5,0xffff8
     346:	00f11a23          	sh	a5,20(sp)
     34a:	084c                	addi	a1,sp,20
     34c:	4791                	li	a5,4
     34e:	80048513          	addi	a0,s1,-2048
     352:	ce3e                	sw	a5,28(sp)
     354:	391010ef          	jal	ra,1ee4 <GPIO_Init>
     358:	80048513          	addi	a0,s1,-2048
     35c:	65a9                	lui	a1,0xa
     35e:	457010ef          	jal	ra,1fb4 <GPIO_ResetBits>
     362:	4585                	li	a1,1
     364:	02000513          	li	a0,32
     368:	070020ef          	jal	ra,23d8 <RCC_APB2PeriphClockCmd>
     36c:	40000793          	li	a5,1024
     370:	084c                	addi	a1,sp,20
     372:	40040513          	addi	a0,s0,1024
     376:	00f11a23          	sh	a5,20(sp)
     37a:	ce4e                	sw	s3,28(sp)
     37c:	cc4a                	sw	s2,24(sp)
     37e:	367010ef          	jal	ra,1ee4 <GPIO_Init>
     382:	40040513          	addi	a0,s0,1024
     386:	40000593          	li	a1,1024
     38a:	42b010ef          	jal	ra,1fb4 <GPIO_ResetBits>
     38e:	40b6                	lw	ra,76(sp)
     390:	4426                	lw	s0,72(sp)
     392:	4496                	lw	s1,68(sp)
     394:	4906                	lw	s2,64(sp)
     396:	59f2                	lw	s3,60(sp)
     398:	6161                	addi	sp,sp,80
     39a:	8082                	ret

0000039c <Start_Trig>:
     39c:	1141                	addi	sp,sp,-16
     39e:	c422                	sw	s0,8(sp)
     3a0:	40012437          	lui	s0,0x40012
     3a4:	6589                	lui	a1,0x2
     3a6:	80040513          	addi	a0,s0,-2048 # 40011800 <_eusrstack+0x20009800>
     3aa:	c606                	sw	ra,12(sp)
     3ac:	405010ef          	jal	ra,1fb0 <GPIO_SetBits>
     3b0:	4551                	li	a0,20
     3b2:	534020ef          	jal	ra,28e6 <Delay_Us>
     3b6:	80040513          	addi	a0,s0,-2048
     3ba:	4422                	lw	s0,8(sp)
     3bc:	40b2                	lw	ra,12(sp)
     3be:	6589                	lui	a1,0x2
     3c0:	0141                	addi	sp,sp,16
     3c2:	3f30106f          	j	1fb4 <GPIO_ResetBits>

000003c6 <EXTI0_IRQHandler>:
     3c6:	1141                	addi	sp,sp,-16
     3c8:	4505                	li	a0,1
     3ca:	c622                	sw	s0,12(sp)
     3cc:	237010ef          	jal	ra,1e02 <EXTI_ClearFlag>
     3d0:	06400513          	li	a0,100
     3d4:	540020ef          	jal	ra,2914 <Delay_Ms>
     3d8:	00005437          	lui	s0,0x5
     3dc:	0d040513          	addi	a0,s0,208 # 50d0 <_read+0xe>
     3e0:	6af000ef          	jal	ra,128e <uartWriteBLEstr>
     3e4:	dd65                	beqz	a0,3dc <EXTI0_IRQHandler+0x16>
     3e6:	8311c703          	lbu	a4,-1999(gp) # 200000a1 <crack_halt_flag>
     3ea:	c315                	beqz	a4,40e <EXTI0_IRQHandler+0x48>
     3ec:	82018f23          	sb	zero,-1986(gp) # 200000ae <warning_flag>
     3f0:	82018823          	sb	zero,-2000(gp) # 200000a0 <crack_flag>
     3f4:	820188a3          	sb	zero,-1999(gp) # 200000a1 <crack_halt_flag>
     3f8:	4705                	li	a4,1
     3fa:	82e18923          	sb	a4,-1998(gp) # 200000a2 <crack_repair_flag>
     3fe:	c801a623          	sw	zero,-884(gp) # 200004fc <time>
     402:	c801a423          	sw	zero,-888(gp) # 200004f8 <time_stamp_trigger>
     406:	c601ac23          	sw	zero,-904(gp) # 200004e8 <time_stamp_record>
     40a:	c801ae23          	sw	zero,-868(gp) # 2000050c <acc_record_100x>
     40e:	4432                	lw	s0,12(sp)
     410:	0141                	addi	sp,sp,16
     412:	30200073          	mret

00000416 <IIC_Init>:
     416:	7179                	addi	sp,sp,-48
     418:	d422                	sw	s0,40(sp)
     41a:	d226                	sw	s1,36(sp)
     41c:	842e                	mv	s0,a1
     41e:	84aa                	mv	s1,a0
     420:	4585                	li	a1,1
     422:	4521                	li	a0,8
     424:	d606                	sw	ra,44(sp)
     426:	7b3010ef          	jal	ra,23d8 <RCC_APB2PeriphClockCmd>
     42a:	4585                	li	a1,1
     42c:	00400537          	lui	a0,0x400
     430:	7c7010ef          	jal	ra,23f6 <RCC_APB1PeriphClockCmd>
     434:	6785                	lui	a5,0x1
     436:	c0078793          	addi	a5,a5,-1024 # c00 <LCD_Init+0x12a>
     43a:	00f11223          	sh	a5,4(sp)
     43e:	40011537          	lui	a0,0x40011
     442:	47f1                	li	a5,28
     444:	c63e                	sw	a5,12(sp)
     446:	004c                	addi	a1,sp,4
     448:	478d                	li	a5,3
     44a:	c0050513          	addi	a0,a0,-1024 # 40010c00 <_eusrstack+0x20008c00>
     44e:	c43e                	sw	a5,8(sp)
     450:	295010ef          	jal	ra,1ee4 <GPIO_Init>
     454:	400007b7          	lui	a5,0x40000
     458:	ca3e                	sw	a5,20(sp)
     45a:	00811c23          	sh	s0,24(sp)
     45e:	40000793          	li	a5,1024
     462:	40006437          	lui	s0,0x40006
     466:	00f11d23          	sh	a5,26(sp)
     46a:	080c                	addi	a1,sp,16
     46c:	6791                	lui	a5,0x4
     46e:	80040513          	addi	a0,s0,-2048 # 40005800 <_eusrstack+0x1fffd800>
     472:	00f11e23          	sh	a5,28(sp)
     476:	c826                	sw	s1,16(sp)
     478:	377010ef          	jal	ra,1fee <I2C_Init>
     47c:	80040513          	addi	a0,s0,-2048
     480:	4585                	li	a1,1
     482:	487010ef          	jal	ra,2108 <I2C_Cmd>
     486:	80040513          	addi	a0,s0,-2048
     48a:	4585                	li	a1,1
     48c:	4d5010ef          	jal	ra,2160 <I2C_AcknowledgeConfig>
     490:	50b2                	lw	ra,44(sp)
     492:	5422                	lw	s0,40(sp)
     494:	5492                	lw	s1,36(sp)
     496:	6145                	addi	sp,sp,48
     498:	8082                	ret

0000049a <IMU_WriteByte>:
     49a:	1101                	addi	sp,sp,-32
     49c:	cc22                	sw	s0,24(sp)
     49e:	40006437          	lui	s0,0x40006
     4a2:	c84a                	sw	s2,16(sp)
     4a4:	c64e                	sw	s3,12(sp)
     4a6:	892e                	mv	s2,a1
     4a8:	89aa                	mv	s3,a0
     4aa:	4585                	li	a1,1
     4ac:	80040513          	addi	a0,s0,-2048 # 40005800 <_eusrstack+0x1fffd800>
     4b0:	ce06                	sw	ra,28(sp)
     4b2:	ca26                	sw	s1,20(sp)
     4b4:	c452                	sw	s4,8(sp)
     4b6:	4ab010ef          	jal	ra,2160 <I2C_AcknowledgeConfig>
     4ba:	80040513          	addi	a0,s0,-2048
     4be:	4585                	li	a1,1
     4c0:	00030437          	lui	s0,0x30
     4c4:	400064b7          	lui	s1,0x40006
     4c8:	45d010ef          	jal	ra,2124 <I2C_GenerateSTART>
     4cc:	0405                	addi	s0,s0,1
     4ce:	80048a13          	addi	s4,s1,-2048 # 40005800 <_eusrstack+0x1fffd800>
     4d2:	85a2                	mv	a1,s0
     4d4:	8552                	mv	a0,s4
     4d6:	4cd010ef          	jal	ra,21a2 <I2C_CheckEvent>
     4da:	dd65                	beqz	a0,4d2 <IMU_WriteByte+0x38>
     4dc:	80048513          	addi	a0,s1,-2048
     4e0:	4601                	li	a2,0
     4e2:	0d000593          	li	a1,208
     4e6:	000704b7          	lui	s1,0x70
     4ea:	40006437          	lui	s0,0x40006
     4ee:	4a1010ef          	jal	ra,218e <I2C_Send7bitAddress>
     4f2:	08248493          	addi	s1,s1,130 # 70082 <_data_lma+0x67d2e>
     4f6:	80040413          	addi	s0,s0,-2048 # 40005800 <_eusrstack+0x1fffd800>
     4fa:	85a6                	mv	a1,s1
     4fc:	8522                	mv	a0,s0
     4fe:	4a5010ef          	jal	ra,21a2 <I2C_CheckEvent>
     502:	dd65                	beqz	a0,4fa <IMU_WriteByte+0x60>
     504:	10000437          	lui	s0,0x10000
     508:	400064b7          	lui	s1,0x40006
     50c:	08040413          	addi	s0,s0,128 # 10000080 <_data_lma+0xfff7d2c>
     510:	80048a13          	addi	s4,s1,-2048 # 40005800 <_eusrstack+0x1fffd800>
     514:	85a2                	mv	a1,s0
     516:	8552                	mv	a0,s4
     518:	4a5010ef          	jal	ra,21bc <I2C_GetFlagStatus>
     51c:	dd65                	beqz	a0,514 <IMU_WriteByte+0x7a>
     51e:	80048513          	addi	a0,s1,-2048
     522:	85ce                	mv	a1,s3
     524:	000704b7          	lui	s1,0x70
     528:	40006437          	lui	s0,0x40006
     52c:	453010ef          	jal	ra,217e <I2C_SendData>
     530:	08448493          	addi	s1,s1,132 # 70084 <_data_lma+0x67d30>
     534:	80040413          	addi	s0,s0,-2048 # 40005800 <_eusrstack+0x1fffd800>
     538:	85a6                	mv	a1,s1
     53a:	8522                	mv	a0,s0
     53c:	467010ef          	jal	ra,21a2 <I2C_CheckEvent>
     540:	dd65                	beqz	a0,538 <IMU_WriteByte+0x9e>
     542:	100004b7          	lui	s1,0x10000
     546:	40006437          	lui	s0,0x40006
     54a:	08048493          	addi	s1,s1,128 # 10000080 <_data_lma+0xfff7d2c>
     54e:	80040993          	addi	s3,s0,-2048 # 40005800 <_eusrstack+0x1fffd800>
     552:	85a6                	mv	a1,s1
     554:	854e                	mv	a0,s3
     556:	467010ef          	jal	ra,21bc <I2C_GetFlagStatus>
     55a:	dd65                	beqz	a0,552 <IMU_WriteByte+0xb8>
     55c:	85ca                	mv	a1,s2
     55e:	80040513          	addi	a0,s0,-2048
     562:	41d010ef          	jal	ra,217e <I2C_SendData>
     566:	80040513          	addi	a0,s0,-2048
     56a:	4585                	li	a1,1
     56c:	3d7010ef          	jal	ra,2142 <I2C_GenerateSTOP>
     570:	40f2                	lw	ra,28(sp)
     572:	4462                	lw	s0,24(sp)
     574:	44d2                	lw	s1,20(sp)
     576:	4942                	lw	s2,16(sp)
     578:	49b2                	lw	s3,12(sp)
     57a:	4a22                	lw	s4,8(sp)
     57c:	4501                	li	a0,0
     57e:	6105                	addi	sp,sp,32
     580:	8082                	ret

00000582 <IMU_SetGyroFsr>:
     582:	00351593          	slli	a1,a0,0x3
     586:	82a184a3          	sb	a0,-2007(gp) # 20000099 <gyro_fsr>
     58a:	0f85f593          	andi	a1,a1,248
     58e:	456d                	li	a0,27
     590:	b729                	j	49a <IMU_WriteByte>

00000592 <IMU_SetAccelFsr>:
     592:	00351593          	slli	a1,a0,0x3
     596:	82a18423          	sb	a0,-2008(gp) # 20000098 <_edata>
     59a:	0f85f593          	andi	a1,a1,248
     59e:	4571                	li	a0,28
     5a0:	bded                	j	49a <IMU_WriteByte>

000005a2 <IMU_SetLPF>:
     5a2:	0bb00793          	li	a5,187
     5a6:	4585                	li	a1,1
     5a8:	02a7e563          	bltu	a5,a0,5d2 <IMU_SetLPF+0x30>
     5ac:	06100793          	li	a5,97
     5b0:	4589                	li	a1,2
     5b2:	02a7e063          	bltu	a5,a0,5d2 <IMU_SetLPF+0x30>
     5b6:	02900793          	li	a5,41
     5ba:	458d                	li	a1,3
     5bc:	00a7eb63          	bltu	a5,a0,5d2 <IMU_SetLPF+0x30>
     5c0:	47cd                	li	a5,19
     5c2:	4591                	li	a1,4
     5c4:	00a7e763          	bltu	a5,a0,5d2 <IMU_SetLPF+0x30>
     5c8:	47a5                	li	a5,9
     5ca:	4595                	li	a1,5
     5cc:	00a7e363          	bltu	a5,a0,5d2 <IMU_SetLPF+0x30>
     5d0:	4599                	li	a1,6
     5d2:	4569                	li	a0,26
     5d4:	b5d9                	j	49a <IMU_WriteByte>

000005d6 <IMU_SetRate>:
     5d6:	4791                	li	a5,4
     5d8:	85aa                	mv	a1,a0
     5da:	00f57363          	bgeu	a0,a5,5e0 <IMU_SetRate+0xa>
     5de:	4591                	li	a1,4
     5e0:	01059713          	slli	a4,a1,0x10
     5e4:	8341                	srli	a4,a4,0x10
     5e6:	3e800793          	li	a5,1000
     5ea:	00e7f463          	bgeu	a5,a4,5f2 <IMU_SetRate+0x1c>
     5ee:	3e800593          	li	a1,1000
     5f2:	05c2                	slli	a1,a1,0x10
     5f4:	81c1                	srli	a1,a1,0x10
     5f6:	3e800793          	li	a5,1000
     5fa:	02b7c5b3          	div	a1,a5,a1
     5fe:	4565                	li	a0,25
     600:	15fd                	addi	a1,a1,-1
     602:	0ff5f593          	andi	a1,a1,255
     606:	bd51                	j	49a <IMU_WriteByte>

00000608 <IMU_ReadByte>:
     608:	1101                	addi	sp,sp,-32
     60a:	cc22                	sw	s0,24(sp)
     60c:	40006437          	lui	s0,0x40006
     610:	c84a                	sw	s2,16(sp)
     612:	4585                	li	a1,1
     614:	892a                	mv	s2,a0
     616:	80040513          	addi	a0,s0,-2048 # 40005800 <_eusrstack+0x1fffd800>
     61a:	ce06                	sw	ra,28(sp)
     61c:	ca26                	sw	s1,20(sp)
     61e:	c64e                	sw	s3,12(sp)
     620:	341010ef          	jal	ra,2160 <I2C_AcknowledgeConfig>
     624:	80040513          	addi	a0,s0,-2048
     628:	4585                	li	a1,1
     62a:	00030437          	lui	s0,0x30
     62e:	400064b7          	lui	s1,0x40006
     632:	2f3010ef          	jal	ra,2124 <I2C_GenerateSTART>
     636:	0405                	addi	s0,s0,1
     638:	80048993          	addi	s3,s1,-2048 # 40005800 <_eusrstack+0x1fffd800>
     63c:	85a2                	mv	a1,s0
     63e:	854e                	mv	a0,s3
     640:	363010ef          	jal	ra,21a2 <I2C_CheckEvent>
     644:	dd65                	beqz	a0,63c <IMU_ReadByte+0x34>
     646:	80048513          	addi	a0,s1,-2048
     64a:	4601                	li	a2,0
     64c:	0d000593          	li	a1,208
     650:	00070437          	lui	s0,0x70
     654:	400064b7          	lui	s1,0x40006
     658:	337010ef          	jal	ra,218e <I2C_Send7bitAddress>
     65c:	08240413          	addi	s0,s0,130 # 70082 <_data_lma+0x67d2e>
     660:	80048993          	addi	s3,s1,-2048 # 40005800 <_eusrstack+0x1fffd800>
     664:	85a2                	mv	a1,s0
     666:	854e                	mv	a0,s3
     668:	33b010ef          	jal	ra,21a2 <I2C_CheckEvent>
     66c:	dd65                	beqz	a0,664 <IMU_ReadByte+0x5c>
     66e:	85ca                	mv	a1,s2
     670:	80048513          	addi	a0,s1,-2048
     674:	00070437          	lui	s0,0x70
     678:	400064b7          	lui	s1,0x40006
     67c:	303010ef          	jal	ra,217e <I2C_SendData>
     680:	08440413          	addi	s0,s0,132 # 70084 <_data_lma+0x67d30>
     684:	80048913          	addi	s2,s1,-2048 # 40005800 <_eusrstack+0x1fffd800>
     688:	85a2                	mv	a1,s0
     68a:	854a                	mv	a0,s2
     68c:	317010ef          	jal	ra,21a2 <I2C_CheckEvent>
     690:	dd65                	beqz	a0,688 <IMU_ReadByte+0x80>
     692:	80048513          	addi	a0,s1,-2048
     696:	4585                	li	a1,1
     698:	00030437          	lui	s0,0x30
     69c:	400064b7          	lui	s1,0x40006
     6a0:	285010ef          	jal	ra,2124 <I2C_GenerateSTART>
     6a4:	0405                	addi	s0,s0,1
     6a6:	80048913          	addi	s2,s1,-2048 # 40005800 <_eusrstack+0x1fffd800>
     6aa:	85a2                	mv	a1,s0
     6ac:	854a                	mv	a0,s2
     6ae:	2f5010ef          	jal	ra,21a2 <I2C_CheckEvent>
     6b2:	dd65                	beqz	a0,6aa <IMU_ReadByte+0xa2>
     6b4:	80048513          	addi	a0,s1,-2048
     6b8:	4605                	li	a2,1
     6ba:	0d100593          	li	a1,209
     6be:	000304b7          	lui	s1,0x30
     6c2:	40006437          	lui	s0,0x40006
     6c6:	2c9010ef          	jal	ra,218e <I2C_Send7bitAddress>
     6ca:	0489                	addi	s1,s1,2
     6cc:	80040413          	addi	s0,s0,-2048 # 40005800 <_eusrstack+0x1fffd800>
     6d0:	85a6                	mv	a1,s1
     6d2:	8522                	mv	a0,s0
     6d4:	2cf010ef          	jal	ra,21a2 <I2C_CheckEvent>
     6d8:	dd65                	beqz	a0,6d0 <IMU_ReadByte+0xc8>
     6da:	100004b7          	lui	s1,0x10000
     6de:	40006437          	lui	s0,0x40006
     6e2:	04048493          	addi	s1,s1,64 # 10000040 <_data_lma+0xfff7cec>
     6e6:	80040913          	addi	s2,s0,-2048 # 40005800 <_eusrstack+0x1fffd800>
     6ea:	85a6                	mv	a1,s1
     6ec:	854a                	mv	a0,s2
     6ee:	2cf010ef          	jal	ra,21bc <I2C_GetFlagStatus>
     6f2:	dd65                	beqz	a0,6ea <IMU_ReadByte+0xe2>
     6f4:	80040513          	addi	a0,s0,-2048
     6f8:	28d010ef          	jal	ra,2184 <I2C_ReceiveData>
     6fc:	84aa                	mv	s1,a0
     6fe:	4585                	li	a1,1
     700:	80040513          	addi	a0,s0,-2048
     704:	23f010ef          	jal	ra,2142 <I2C_GenerateSTOP>
     708:	40f2                	lw	ra,28(sp)
     70a:	4462                	lw	s0,24(sp)
     70c:	8526                	mv	a0,s1
     70e:	4942                	lw	s2,16(sp)
     710:	44d2                	lw	s1,20(sp)
     712:	49b2                	lw	s3,12(sp)
     714:	6105                	addi	sp,sp,32
     716:	8082                	ret

00000718 <IMU_Init>:
     718:	6561                	lui	a0,0x18
     71a:	1141                	addi	sp,sp,-16
     71c:	4589                	li	a1,2
     71e:	6a050513          	addi	a0,a0,1696 # 186a0 <_data_lma+0x1034c>
     722:	c606                	sw	ra,12(sp)
     724:	39cd                	jal	416 <IIC_Init>
     726:	08000593          	li	a1,128
     72a:	06b00513          	li	a0,107
     72e:	33b5                	jal	49a <IMU_WriteByte>
     730:	1f400513          	li	a0,500
     734:	1e0020ef          	jal	ra,2914 <Delay_Ms>
     738:	4581                	li	a1,0
     73a:	06b00513          	li	a0,107
     73e:	3bb1                	jal	49a <IMU_WriteByte>
     740:	450d                	li	a0,3
     742:	3581                	jal	582 <IMU_SetGyroFsr>
     744:	450d                	li	a0,3
     746:	35b1                	jal	592 <IMU_SetAccelFsr>
     748:	3e800513          	li	a0,1000
     74c:	3569                	jal	5d6 <IMU_SetRate>
     74e:	1f400513          	li	a0,500
     752:	3d81                	jal	5a2 <IMU_SetLPF>
     754:	4581                	li	a1,0
     756:	03800513          	li	a0,56
     75a:	3381                	jal	49a <IMU_WriteByte>
     75c:	4581                	li	a1,0
     75e:	06a00513          	li	a0,106
     762:	3b25                	jal	49a <IMU_WriteByte>
     764:	4581                	li	a1,0
     766:	02300513          	li	a0,35
     76a:	3b05                	jal	49a <IMU_WriteByte>
     76c:	08000593          	li	a1,128
     770:	03700513          	li	a0,55
     774:	331d                	jal	49a <IMU_WriteByte>
     776:	07500513          	li	a0,117
     77a:	3579                	jal	608 <IMU_ReadByte>
     77c:	06800713          	li	a4,104
     780:	4785                	li	a5,1
     782:	00e51b63          	bne	a0,a4,798 <IMU_Init+0x80>
     786:	4585                	li	a1,1
     788:	06b00513          	li	a0,107
     78c:	3339                	jal	49a <IMU_WriteByte>
     78e:	4581                	li	a1,0
     790:	06c00513          	li	a0,108
     794:	3319                	jal	49a <IMU_WriteByte>
     796:	4781                	li	a5,0
     798:	40b2                	lw	ra,12(sp)
     79a:	853e                	mv	a0,a5
     79c:	0141                	addi	sp,sp,16
     79e:	8082                	ret

000007a0 <LCD_WriteHalfWord>:
     7a0:	00855713          	srli	a4,a0,0x8
     7a4:	600207b7          	lui	a5,0x60020
     7a8:	00e78023          	sb	a4,0(a5) # 60020000 <_eusrstack+0x40018000>
     7ac:	0ff57513          	andi	a0,a0,255
     7b0:	00a78023          	sb	a0,0(a5)
     7b4:	8082                	ret

000007b6 <LCD_ReadData>:
     7b6:	600207b7          	lui	a5,0x60020
     7ba:	0007c783          	lbu	a5,0(a5) # 60020000 <_eusrstack+0x40018000>
     7be:	1141                	addi	sp,sp,-16
     7c0:	0ff7f793          	andi	a5,a5,255
     7c4:	00f107a3          	sb	a5,15(sp)
     7c8:	00f14503          	lbu	a0,15(sp)
     7cc:	0141                	addi	sp,sp,16
     7ce:	8082                	ret

000007d0 <LCD_FSMCInit>:
     7d0:	7135                	addi	sp,sp,-160
     7d2:	03c00613          	li	a2,60
     7d6:	4581                	li	a1,0
     7d8:	00c8                	addi	a0,sp,68
     7da:	cf06                	sw	ra,156(sp)
     7dc:	cd22                	sw	s0,152(sp)
     7de:	cb26                	sw	s1,148(sp)
     7e0:	c94a                	sw	s2,144(sp)
     7e2:	c74e                	sw	s3,140(sp)
     7e4:	c552                	sw	s4,136(sp)
     7e6:	c356                	sw	s5,132(sp)
     7e8:	c002                	sw	zero,0(sp)
     7ea:	00c10a93          	addi	s5,sp,12
     7ee:	c202                	sw	zero,4(sp)
     7f0:	c402                	sw	zero,8(sp)
     7f2:	3439                	jal	200 <memset>
     7f4:	4671                	li	a2,28
     7f6:	4581                	li	a1,0
     7f8:	8556                	mv	a0,s5
     7fa:	3419                	jal	200 <memset>
     7fc:	02810a13          	addi	s4,sp,40
     800:	4671                	li	a2,28
     802:	4581                	li	a1,0
     804:	8552                	mv	a0,s4
     806:	3aed                	jal	200 <memset>
     808:	4585                	li	a1,1
     80a:	10000513          	li	a0,256
     80e:	3ad010ef          	jal	ra,23ba <RCC_AHBPeriphClockCmd>
     812:	4585                	li	a1,1
     814:	06800513          	li	a0,104
     818:	3c1010ef          	jal	ra,23d8 <RCC_APB2PeriphClockCmd>
     81c:	400114b7          	lui	s1,0x40011
     820:	77f1                	lui	a5,0xffffc
     822:	440d                	li	s0,3
     824:	49e1                	li	s3,24
     826:	73378793          	addi	a5,a5,1843 # ffffc733 <_eusrstack+0xdfff4733>
     82a:	858a                	mv	a1,sp
     82c:	40048513          	addi	a0,s1,1024 # 40011400 <_eusrstack+0x20009400>
     830:	00f11023          	sh	a5,0(sp)
     834:	c44e                	sw	s3,8(sp)
     836:	c222                	sw	s0,4(sp)
     838:	6ac010ef          	jal	ra,1ee4 <GPIO_Init>
     83c:	40012537          	lui	a0,0x40012
     840:	f8000793          	li	a5,-128
     844:	858a                	mv	a1,sp
     846:	80050513          	addi	a0,a0,-2048 # 40011800 <_eusrstack+0x20009800>
     84a:	00f11023          	sh	a5,0(sp)
     84e:	c44e                	sw	s3,8(sp)
     850:	c222                	sw	s0,4(sp)
     852:	692010ef          	jal	ra,1ee4 <GPIO_Init>
     856:	858a                	mv	a1,sp
     858:	40048513          	addi	a0,s1,1024
     85c:	6905                	lui	s2,0x1
     85e:	01211023          	sh	s2,0(sp)
     862:	c44e                	sw	s3,8(sp)
     864:	c222                	sw	s0,4(sp)
     866:	67e010ef          	jal	ra,1ee4 <GPIO_Init>
     86a:	47c1                	li	a5,16
     86c:	858a                	mv	a1,sp
     86e:	40048513          	addi	a0,s1,1024
     872:	80090913          	addi	s2,s2,-2048 # 800 <__stack_size>
     876:	c43e                	sw	a5,8(sp)
     878:	01211023          	sh	s2,0(sp)
     87c:	c222                	sw	s0,4(sp)
     87e:	6905                	lui	s2,0x1
     880:	664010ef          	jal	ra,1ee4 <GPIO_Init>
     884:	80090593          	addi	a1,s2,-2048 # 800 <__stack_size>
     888:	40048513          	addi	a0,s1,1024
     88c:	728010ef          	jal	ra,1fb4 <GPIO_ResetBits>
     890:	4785                	li	a5,1
     892:	c63e                	sw	a5,12(sp)
     894:	47bd                	li	a5,15
     896:	ca3e                	sw	a5,20(sp)
     898:	00c8                	addi	a0,sp,68
     89a:	6791                	lui	a5,0x4
     89c:	d822                	sw	s0,48(sp)
     89e:	d4ca                	sw	s2,104(sp)
     8a0:	d8be                	sw	a5,112(sp)
     8a2:	dcd6                	sw	s5,120(sp)
     8a4:	ded2                	sw	s4,124(sp)
     8a6:	c802                	sw	zero,16(sp)
     8a8:	cc02                	sw	zero,24(sp)
     8aa:	ce02                	sw	zero,28(sp)
     8ac:	d002                	sw	zero,32(sp)
     8ae:	d202                	sw	zero,36(sp)
     8b0:	d402                	sw	zero,40(sp)
     8b2:	d602                	sw	zero,44(sp)
     8b4:	da02                	sw	zero,52(sp)
     8b6:	dc02                	sw	zero,56(sp)
     8b8:	de02                	sw	zero,60(sp)
     8ba:	c082                	sw	zero,64(sp)
     8bc:	c282                	sw	zero,68(sp)
     8be:	c482                	sw	zero,72(sp)
     8c0:	c682                	sw	zero,76(sp)
     8c2:	c882                	sw	zero,80(sp)
     8c4:	ca82                	sw	zero,84(sp)
     8c6:	ce82                	sw	zero,92(sp)
     8c8:	cc82                	sw	zero,88(sp)
     8ca:	d082                	sw	zero,96(sp)
     8cc:	d282                	sw	zero,100(sp)
     8ce:	d682                	sw	zero,108(sp)
     8d0:	da82                	sw	zero,116(sp)
     8d2:	53a010ef          	jal	ra,1e0c <FSMC_NORSRAMInit>
     8d6:	4585                	li	a1,1
     8d8:	4501                	li	a0,0
     8da:	5ec010ef          	jal	ra,1ec6 <FSMC_NORSRAMCmd>
     8de:	40fa                	lw	ra,156(sp)
     8e0:	446a                	lw	s0,152(sp)
     8e2:	44da                	lw	s1,148(sp)
     8e4:	494a                	lw	s2,144(sp)
     8e6:	49ba                	lw	s3,140(sp)
     8e8:	4a2a                	lw	s4,136(sp)
     8ea:	4a9a                	lw	s5,132(sp)
     8ec:	610d                	addi	sp,sp,160
     8ee:	8082                	ret

000008f0 <LCD_GPIOInit>:
     8f0:	6505                	lui	a0,0x1
     8f2:	7139                	addi	sp,sp,-64
     8f4:	4585                	li	a1,1
     8f6:	80950513          	addi	a0,a0,-2039 # 809 <__stack_size+0x9>
     8fa:	de06                	sw	ra,60(sp)
     8fc:	dc22                	sw	s0,56(sp)
     8fe:	2db010ef          	jal	ra,23d8 <RCC_APB2PeriphClockCmd>
     902:	6791                	lui	a5,0x4
     904:	00f11a23          	sh	a5,20(sp)
     908:	40011537          	lui	a0,0x40011
     90c:	47e1                	li	a5,24
     90e:	ce3e                	sw	a5,28(sp)
     910:	084c                	addi	a1,sp,20
     912:	478d                	li	a5,3
     914:	c0050513          	addi	a0,a0,-1024 # 40010c00 <_eusrstack+0x20008c00>
     918:	cc3e                	sw	a5,24(sp)
     91a:	5ca010ef          	jal	ra,1ee4 <GPIO_Init>
     91e:	40013437          	lui	s0,0x40013
     922:	08f00793          	li	a5,143
     926:	c43e                	sw	a5,8(sp)
     928:	002c                	addi	a1,sp,8
     92a:	06400793          	li	a5,100
     92e:	c0040513          	addi	a0,s0,-1024 # 40012c00 <_eusrstack+0x2000ac00>
     932:	c63e                	sw	a5,12(sp)
     934:	415010ef          	jal	ra,2548 <TIM_TimeBaseInit>
     938:	06000793          	li	a5,96
     93c:	02f11023          	sh	a5,32(sp)
     940:	003207b7          	lui	a5,0x320
     944:	0791                	addi	a5,a5,4
     946:	100c                	addi	a1,sp,32
     948:	c0040513          	addi	a0,s0,-1024
     94c:	d23e                	sw	a5,36(sp)
     94e:	02011523          	sh	zero,42(sp)
     952:	4b7010ef          	jal	ra,2608 <TIM_OC2Init>
     956:	c0040513          	addi	a0,s0,-1024
     95a:	4585                	li	a1,1
     95c:	595010ef          	jal	ra,26f0 <TIM_CtrlPWMOutputs>
     960:	c0040513          	addi	a0,s0,-1024
     964:	4581                	li	a1,0
     966:	5d5010ef          	jal	ra,273a <TIM_OC2PreloadConfig>
     96a:	c0040513          	addi	a0,s0,-1024
     96e:	4585                	li	a1,1
     970:	5ad010ef          	jal	ra,271c <TIM_ARRPreloadConfig>
     974:	c0040513          	addi	a0,s0,-1024
     978:	4585                	li	a1,1
     97a:	55b010ef          	jal	ra,26d4 <TIM_Cmd>
     97e:	50f2                	lw	ra,60(sp)
     980:	5462                	lw	s0,56(sp)
     982:	6121                	addi	sp,sp,64
     984:	8082                	ret

00000986 <LCD_SetBrightness>:
     986:	06400793          	li	a5,100
     98a:	0ff57593          	andi	a1,a0,255
     98e:	00a7f463          	bgeu	a5,a0,996 <LCD_SetBrightness+0x10>
     992:	06400593          	li	a1,100
     996:	40013537          	lui	a0,0x40013
     99a:	c0050513          	addi	a0,a0,-1024 # 40012c00 <_eusrstack+0x2000ac00>
     99e:	5bd0106f          	j	275a <TIM_SetCompare2>

000009a2 <LCD_ConvertColor>:
     9a2:	00855793          	srli	a5,a0,0x8
     9a6:	00555713          	srli	a4,a0,0x5
     9aa:	7e077713          	andi	a4,a4,2016
     9ae:	8007f793          	andi	a5,a5,-2048
     9b2:	810d                	srli	a0,a0,0x3
     9b4:	8fd9                	or	a5,a5,a4
     9b6:	897d                	andi	a0,a0,31
     9b8:	8d5d                	or	a0,a0,a5
     9ba:	0542                	slli	a0,a0,0x10
     9bc:	8141                	srli	a0,a0,0x10
     9be:	8082                	ret

000009c0 <LCD_SetColor>:
     9c0:	82019523          	sh	zero,-2006(gp) # 2000009a <BACK_COLOR>
     9c4:	200007b7          	lui	a5,0x20000
     9c8:	06b79823          	sh	a1,112(a5) # 20000070 <FORE_COLOR>
     9cc:	8082                	ret

000009ce <LCD_AddressSetWrite>:
     9ce:	600207b7          	lui	a5,0x60020
     9d2:	02a00713          	li	a4,42
     9d6:	fee78fa3          	sb	a4,-1(a5) # 6001ffff <_eusrstack+0x40017fff>
     9da:	00855713          	srli	a4,a0,0x8
     9de:	00e78023          	sb	a4,0(a5)
     9e2:	0ff57513          	andi	a0,a0,255
     9e6:	00a78023          	sb	a0,0(a5)
     9ea:	00865713          	srli	a4,a2,0x8
     9ee:	00e78023          	sb	a4,0(a5)
     9f2:	0ff67613          	andi	a2,a2,255
     9f6:	00c78023          	sb	a2,0(a5)
     9fa:	02b00713          	li	a4,43
     9fe:	fee78fa3          	sb	a4,-1(a5)
     a02:	0085d713          	srli	a4,a1,0x8
     a06:	00e78023          	sb	a4,0(a5)
     a0a:	0ff5f593          	andi	a1,a1,255
     a0e:	00b78023          	sb	a1,0(a5)
     a12:	0086d713          	srli	a4,a3,0x8
     a16:	00e78023          	sb	a4,0(a5)
     a1a:	0ff6f693          	andi	a3,a3,255
     a1e:	00d78023          	sb	a3,0(a5)
     a22:	02c00713          	li	a4,44
     a26:	fee78fa3          	sb	a4,-1(a5)
     a2a:	8082                	ret

00000a2c <LCD_AddressSetRead>:
     a2c:	600207b7          	lui	a5,0x60020
     a30:	02a00713          	li	a4,42
     a34:	fee78fa3          	sb	a4,-1(a5) # 6001ffff <_eusrstack+0x40017fff>
     a38:	00855713          	srli	a4,a0,0x8
     a3c:	00e78023          	sb	a4,0(a5)
     a40:	0ff57513          	andi	a0,a0,255
     a44:	00a78023          	sb	a0,0(a5)
     a48:	00865713          	srli	a4,a2,0x8
     a4c:	00e78023          	sb	a4,0(a5)
     a50:	0ff67613          	andi	a2,a2,255
     a54:	00c78023          	sb	a2,0(a5)
     a58:	02b00713          	li	a4,43
     a5c:	fee78fa3          	sb	a4,-1(a5)
     a60:	0085d713          	srli	a4,a1,0x8
     a64:	00e78023          	sb	a4,0(a5)
     a68:	0ff5f593          	andi	a1,a1,255
     a6c:	00b78023          	sb	a1,0(a5)
     a70:	0086d713          	srli	a4,a3,0x8
     a74:	00e78023          	sb	a4,0(a5)
     a78:	0ff6f693          	andi	a3,a3,255
     a7c:	00d78023          	sb	a3,0(a5)
     a80:	02e00713          	li	a4,46
     a84:	fee78fa3          	sb	a4,-1(a5)
     a88:	8082                	ret

00000a8a <LCD_Clear>:
     a8a:	1141                	addi	sp,sp,-16
     a8c:	c422                	sw	s0,8(sp)
     a8e:	c226                	sw	s1,4(sp)
     a90:	0ef00693          	li	a3,239
     a94:	00855493          	srli	s1,a0,0x8
     a98:	0ff57413          	andi	s0,a0,255
     a9c:	0ef00613          	li	a2,239
     aa0:	4581                	li	a1,0
     aa2:	4501                	li	a0,0
     aa4:	c606                	sw	ra,12(sp)
     aa6:	3725                	jal	9ce <LCD_AddressSetWrite>
     aa8:	0f000713          	li	a4,240
     aac:	600206b7          	lui	a3,0x60020
     ab0:	0f000793          	li	a5,240
     ab4:	17fd                	addi	a5,a5,-1
     ab6:	00968023          	sb	s1,0(a3) # 60020000 <_eusrstack+0x40018000>
     aba:	07c2                	slli	a5,a5,0x10
     abc:	00868023          	sb	s0,0(a3)
     ac0:	83c1                	srli	a5,a5,0x10
     ac2:	fbed                	bnez	a5,ab4 <LCD_Clear+0x2a>
     ac4:	177d                	addi	a4,a4,-1
     ac6:	0742                	slli	a4,a4,0x10
     ac8:	8341                	srli	a4,a4,0x10
     aca:	f37d                	bnez	a4,ab0 <LCD_Clear+0x26>
     acc:	40b2                	lw	ra,12(sp)
     ace:	4422                	lw	s0,8(sp)
     ad0:	4492                	lw	s1,4(sp)
     ad2:	0141                	addi	sp,sp,16
     ad4:	8082                	ret

00000ad6 <LCD_Init>:
     ad6:	1141                	addi	sp,sp,-16
     ad8:	c606                	sw	ra,12(sp)
     ada:	c422                	sw	s0,8(sp)
     adc:	c226                	sw	s1,4(sp)
     ade:	3d09                	jal	8f0 <LCD_GPIOInit>
     ae0:	39c5                	jal	7d0 <LCD_FSMCInit>
     ae2:	60020437          	lui	s0,0x60020
     ae6:	4791                	li	a5,4
     ae8:	fef40fa3          	sb	a5,-1(s0) # 6001ffff <_eusrstack+0x40017fff>
     aec:	31e9                	jal	7b6 <LCD_ReadData>
     aee:	31e1                	jal	7b6 <LCD_ReadData>
     af0:	31d9                	jal	7b6 <LCD_ReadData>
     af2:	31d1                	jal	7b6 <LCD_ReadData>
     af4:	03200513          	li	a0,50
     af8:	61d010ef          	jal	ra,2914 <Delay_Ms>
     afc:	03600793          	li	a5,54
     b00:	fef40fa3          	sb	a5,-1(s0)
     b04:	00040023          	sb	zero,0(s0)
     b08:	03a00613          	li	a2,58
     b0c:	fec40fa3          	sb	a2,-1(s0)
     b10:	4795                	li	a5,5
     b12:	00f40023          	sb	a5,0(s0)
     b16:	fb200793          	li	a5,-78
     b1a:	fef40fa3          	sb	a5,-1(s0)
     b1e:	46b1                	li	a3,12
     b20:	00d40023          	sb	a3,0(s0)
     b24:	00d40023          	sb	a3,0(s0)
     b28:	00040023          	sb	zero,0(s0)
     b2c:	03300793          	li	a5,51
     b30:	00f40023          	sb	a5,0(s0)
     b34:	00f40023          	sb	a5,0(s0)
     b38:	fb700713          	li	a4,-73
     b3c:	fee40fa3          	sb	a4,-1(s0)
     b40:	00040023          	sb	zero,0(s0)
     b44:	fbb00713          	li	a4,-69
     b48:	fee40fa3          	sb	a4,-1(s0)
     b4c:	03f00313          	li	t1,63
     b50:	00640023          	sb	t1,0(s0)
     b54:	fc000713          	li	a4,-64
     b58:	fee40fa3          	sb	a4,-1(s0)
     b5c:	02c00713          	li	a4,44
     b60:	00e40023          	sb	a4,0(s0)
     b64:	fc200713          	li	a4,-62
     b68:	fee40fa3          	sb	a4,-1(s0)
     b6c:	4705                	li	a4,1
     b6e:	00e40023          	sb	a4,0(s0)
     b72:	fc300713          	li	a4,-61
     b76:	fee40fa3          	sb	a4,-1(s0)
     b7a:	48b5                	li	a7,13
     b7c:	01140023          	sb	a7,0(s0)
     b80:	fc400713          	li	a4,-60
     b84:	fee40fa3          	sb	a4,-1(s0)
     b88:	02000713          	li	a4,32
     b8c:	00e40023          	sb	a4,0(s0)
     b90:	fc600713          	li	a4,-58
     b94:	fee40fa3          	sb	a4,-1(s0)
     b98:	470d                	li	a4,3
     b9a:	00e40023          	sb	a4,0(s0)
     b9e:	fd000593          	li	a1,-48
     ba2:	feb40fa3          	sb	a1,-1(s0)
     ba6:	fa400593          	li	a1,-92
     baa:	00b40023          	sb	a1,0(s0)
     bae:	fa100593          	li	a1,-95
     bb2:	00b40023          	sb	a1,0(s0)
     bb6:	5581                	li	a1,-32
     bb8:	feb40fa3          	sb	a1,-1(s0)
     bbc:	5841                	li	a6,-16
     bbe:	01040023          	sb	a6,0(s0)
     bc2:	00e40023          	sb	a4,0(s0)
     bc6:	45a5                	li	a1,9
     bc8:	00b40023          	sb	a1,0(s0)
     bcc:	00e40023          	sb	a4,0(s0)
     bd0:	4541                	li	a0,16
     bd2:	00e40023          	sb	a4,0(s0)
     bd6:	02d00593          	li	a1,45
     bda:	00a40023          	sb	a0,0(s0)
     bde:	00b40023          	sb	a1,0(s0)
     be2:	04300713          	li	a4,67
     be6:	00e40023          	sb	a4,0(s0)
     bea:	00640023          	sb	t1,0(s0)
     bee:	00f40023          	sb	a5,0(s0)
     bf2:	01140023          	sb	a7,0(s0)
     bf6:	4739                	li	a4,14
     bf8:	00e40023          	sb	a4,0(s0)
     bfc:	02900493          	li	s1,41
     c00:	00940023          	sb	s1,0(s0)
     c04:	03200893          	li	a7,50
     c08:	01140023          	sb	a7,0(s0)
     c0c:	5885                	li	a7,-31
     c0e:	ff140fa3          	sb	a7,-1(s0)
     c12:	01040023          	sb	a6,0(s0)
     c16:	00d40023          	sb	a3,0(s0)
     c1a:	00a40023          	sb	a0,0(s0)
     c1e:	00e40023          	sb	a4,0(s0)
     c22:	00e40023          	sb	a4,0(s0)
     c26:	4729                	li	a4,10
     c28:	00e40023          	sb	a4,0(s0)
     c2c:	00b40023          	sb	a1,0(s0)
     c30:	00f40023          	sb	a5,0(s0)
     c34:	04500793          	li	a5,69
     c38:	00f40023          	sb	a5,0(s0)
     c3c:	00c40023          	sb	a2,0(s0)
     c40:	47d1                	li	a5,20
     c42:	00f40023          	sb	a5,0(s0)
     c46:	47e5                	li	a5,25
     c48:	00f40023          	sb	a5,0(s0)
     c4c:	03100793          	li	a5,49
     c50:	00f40023          	sb	a5,0(s0)
     c54:	03700793          	li	a5,55
     c58:	00f40023          	sb	a5,0(s0)
     c5c:	02100793          	li	a5,33
     c60:	fef40fa3          	sb	a5,-1(s0)
     c64:	47c5                	li	a5,17
     c66:	fef40fa3          	sb	a5,-1(s0)
     c6a:	06400513          	li	a0,100
     c6e:	4a7010ef          	jal	ra,2914 <Delay_Ms>
     c72:	4501                	li	a0,0
     c74:	3d19                	jal	a8a <LCD_Clear>
     c76:	fe940fa3          	sb	s1,-1(s0)
     c7a:	40b2                	lw	ra,12(sp)
     c7c:	4422                	lw	s0,8(sp)
     c7e:	4492                	lw	s1,4(sp)
     c80:	0141                	addi	sp,sp,16
     c82:	8082                	ret

00000c84 <LCD_ShowChar>:
     c84:	0016d813          	srli	a6,a3,0x1
     c88:	0f000793          	li	a5,240
     c8c:	41078833          	sub	a6,a5,a6
     c90:	36a86b63          	bltu	a6,a0,1006 <LCD_ShowChar+0x382>
     c94:	8f95                	sub	a5,a5,a3
     c96:	36b7e863          	bltu	a5,a1,1006 <LCD_ShowChar+0x382>
     c9a:	9c010113          	addi	sp,sp,-1600
     c9e:	62812c23          	sw	s0,1592(sp)
     ca2:	62912a23          	sw	s1,1588(sp)
     ca6:	63212823          	sw	s2,1584(sp)
     caa:	63312623          	sw	s3,1580(sp)
     cae:	1601                	addi	a2,a2,-32
     cb0:	62112e23          	sw	ra,1596(sp)
     cb4:	63412423          	sw	s4,1576(sp)
     cb8:	63512223          	sw	s5,1572(sp)
     cbc:	63612023          	sw	s6,1568(sp)
     cc0:	61712e23          	sw	s7,1564(sp)
     cc4:	61812c23          	sw	s8,1560(sp)
     cc8:	61912a23          	sw	s9,1556(sp)
     ccc:	61a12823          	sw	s10,1552(sp)
     cd0:	61b12623          	sw	s11,1548(sp)
     cd4:	47c1                	li	a5,16
     cd6:	89ba                	mv	s3,a4
     cd8:	84ae                	mv	s1,a1
     cda:	842a                	mv	s0,a0
     cdc:	0ff67913          	andi	s2,a2,255
     ce0:	10f69063          	bne	a3,a5,de0 <LCD_ShowChar+0x15c>
     ce4:	00740a13          	addi	s4,s0,7
     ce8:	00f48a93          	addi	s5,s1,15
     cec:	18000613          	li	a2,384
     cf0:	4581                	li	a1,0
     cf2:	850a                	mv	a0,sp
     cf4:	0a42                	slli	s4,s4,0x10
     cf6:	0ac2                	slli	s5,s5,0x10
     cf8:	d08ff0ef          	jal	ra,200 <memset>
     cfc:	010a5a13          	srli	s4,s4,0x10
     d00:	010ada93          	srli	s5,s5,0x10
     d04:	08098b63          	beqz	s3,d9a <LCD_ShowChar+0x116>
     d08:	86d6                	mv	a3,s5
     d0a:	85a6                	mv	a1,s1
     d0c:	8652                	mv	a2,s4
     d0e:	8522                	mv	a0,s0
     d10:	6a95                	lui	s5,0x5
     d12:	3975                	jal	9ce <LCD_AddressSetWrite>
     d14:	0912                	slli	s2,s2,0x4
     d16:	4481                	li	s1,0
     d18:	15ca8a93          	addi	s5,s5,348 # 515c <asc2_1608>
     d1c:	4be1                	li	s7,24
     d1e:	20000cb7          	lui	s9,0x20000
     d22:	4b41                	li	s6,16
     d24:	03748433          	mul	s0,s1,s7
     d28:	009907b3          	add	a5,s2,s1
     d2c:	97d6                	add	a5,a5,s5
     d2e:	0007cd03          	lbu	s10,0(a5)
     d32:	4a21                	li	s4,8
     d34:	940a                	add	s0,s0,sp
     d36:	018d1793          	slli	a5,s10,0x18
     d3a:	87e1                	srai	a5,a5,0x18
     d3c:	0807d163          	bgez	a5,dbe <LCD_ShowChar+0x13a>
     d40:	070cd503          	lhu	a0,112(s9) # 20000070 <FORE_COLOR>
     d44:	1a7d                	addi	s4,s4,-1
     d46:	0a42                	slli	s4,s4,0x10
     d48:	0d06                	slli	s10,s10,0x1
     d4a:	010a5a13          	srli	s4,s4,0x10
     d4e:	3c89                	jal	7a0 <LCD_WriteHalfWord>
     d50:	0ffd7d13          	andi	s10,s10,255
     d54:	040d                	addi	s0,s0,3
     d56:	fe0a10e3          	bnez	s4,d36 <LCD_ShowChar+0xb2>
     d5a:	0485                	addi	s1,s1,1
     d5c:	fd6494e3          	bne	s1,s6,d24 <LCD_ShowChar+0xa0>
     d60:	63c12083          	lw	ra,1596(sp)
     d64:	63812403          	lw	s0,1592(sp)
     d68:	63412483          	lw	s1,1588(sp)
     d6c:	63012903          	lw	s2,1584(sp)
     d70:	62c12983          	lw	s3,1580(sp)
     d74:	62812a03          	lw	s4,1576(sp)
     d78:	62412a83          	lw	s5,1572(sp)
     d7c:	62012b03          	lw	s6,1568(sp)
     d80:	61c12b83          	lw	s7,1564(sp)
     d84:	61812c03          	lw	s8,1560(sp)
     d88:	61412c83          	lw	s9,1556(sp)
     d8c:	61012d03          	lw	s10,1552(sp)
     d90:	60c12d83          	lw	s11,1548(sp)
     d94:	64010113          	addi	sp,sp,1600
     d98:	8082                	ret
     d9a:	86d6                	mv	a3,s5
     d9c:	8652                	mv	a2,s4
     d9e:	85a6                	mv	a1,s1
     da0:	8522                	mv	a0,s0
     da2:	3169                	jal	a2c <LCD_AddressSetRead>
     da4:	3c09                	jal	7b6 <LCD_ReadData>
     da6:	4b01                	li	s6,0
     da8:	18000b93          	li	s7,384
     dac:	3429                	jal	7b6 <LCD_ReadData>
     dae:	016107b3          	add	a5,sp,s6
     db2:	00a78023          	sb	a0,0(a5)
     db6:	0b05                	addi	s6,s6,1
     db8:	ff7b1ae3          	bne	s6,s7,dac <LCD_ShowChar+0x128>
     dbc:	b7b1                	j	d08 <LCD_ShowChar+0x84>
     dbe:	00098563          	beqz	s3,dc8 <LCD_ShowChar+0x144>
     dc2:	82a1d503          	lhu	a0,-2006(gp) # 2000009a <BACK_COLOR>
     dc6:	bfbd                	j	d44 <LCD_ShowChar+0xc0>
     dc8:	00044783          	lbu	a5,0(s0)
     dcc:	00144503          	lbu	a0,1(s0)
     dd0:	07c2                	slli	a5,a5,0x10
     dd2:	0522                	slli	a0,a0,0x8
     dd4:	8fc9                	or	a5,a5,a0
     dd6:	00244503          	lbu	a0,2(s0)
     dda:	8d5d                	or	a0,a0,a5
     ddc:	36d9                	jal	9a2 <LCD_ConvertColor>
     dde:	b79d                	j	d44 <LCD_ShowChar+0xc0>
     de0:	47e1                	li	a5,24
     de2:	10f69563          	bne	a3,a5,eec <LCD_ShowChar+0x268>
     de6:	00b40a93          	addi	s5,s0,11
     dea:	01748a13          	addi	s4,s1,23
     dee:	36000613          	li	a2,864
     df2:	4581                	li	a1,0
     df4:	850a                	mv	a0,sp
     df6:	0ac2                	slli	s5,s5,0x10
     df8:	0a42                	slli	s4,s4,0x10
     dfa:	c06ff0ef          	jal	ra,200 <memset>
     dfe:	010ada93          	srli	s5,s5,0x10
     e02:	010a5a13          	srli	s4,s4,0x10
     e06:	08098263          	beqz	s3,e8a <LCD_ShowChar+0x206>
     e0a:	85a6                	mv	a1,s1
     e0c:	86d2                	mv	a3,s4
     e0e:	8656                	mv	a2,s5
     e10:	8522                	mv	a0,s0
     e12:	3e75                	jal	9ce <LCD_AddressSetWrite>
     e14:	18000793          	li	a5,384
     e18:	02f90933          	mul	s2,s2,a5
     e1c:	6c15                	lui	s8,0x5
     e1e:	848a                	mv	s1,sp
     e20:	4c81                	li	s9,0
     e22:	73cc0c13          	addi	s8,s8,1852 # 573c <asc2_2412>
     e26:	20000db7          	lui	s11,0x20000
     e2a:	00395913          	srli	s2,s2,0x3
     e2e:	010c9b13          	slli	s6,s9,0x10
     e32:	03000793          	li	a5,48
     e36:	010b5b13          	srli	s6,s6,0x10
     e3a:	f2fc83e3          	beq	s9,a5,d60 <LCD_ShowChar+0xdc>
     e3e:	01990733          	add	a4,s2,s9
     e42:	9762                	add	a4,a4,s8
     e44:	001b7b13          	andi	s6,s6,1
     e48:	00074a83          	lbu	s5,0(a4)
     e4c:	4ba1                	li	s7,8
     e4e:	000b0363          	beqz	s6,e54 <LCD_ShowChar+0x1d0>
     e52:	4b91                	li	s7,4
     e54:	0bc2                	slli	s7,s7,0x10
     e56:	8426                	mv	s0,s1
     e58:	4a01                	li	s4,0
     e5a:	010bdb93          	srli	s7,s7,0x10
     e5e:	018a9713          	slli	a4,s5,0x18
     e62:	8761                	srai	a4,a4,0x18
     e64:	04075763          	bgez	a4,eb2 <LCD_ShowChar+0x22e>
     e68:	070dd503          	lhu	a0,112(s11) # 20000070 <FORE_COLOR>
     e6c:	0a05                	addi	s4,s4,1
     e6e:	0a42                	slli	s4,s4,0x10
     e70:	0a86                	slli	s5,s5,0x1
     e72:	010a5a13          	srli	s4,s4,0x10
     e76:	92bff0ef          	jal	ra,7a0 <LCD_WriteHalfWord>
     e7a:	0ffafa93          	andi	s5,s5,255
     e7e:	040d                	addi	s0,s0,3
     e80:	fd7a6fe3          	bltu	s4,s7,e5e <LCD_ShowChar+0x1da>
     e84:	0c85                	addi	s9,s9,1
     e86:	04c9                	addi	s1,s1,18
     e88:	b75d                	j	e2e <LCD_ShowChar+0x1aa>
     e8a:	86d2                	mv	a3,s4
     e8c:	8656                	mv	a2,s5
     e8e:	85a6                	mv	a1,s1
     e90:	8522                	mv	a0,s0
     e92:	3e69                	jal	a2c <LCD_AddressSetRead>
     e94:	923ff0ef          	jal	ra,7b6 <LCD_ReadData>
     e98:	4b01                	li	s6,0
     e9a:	36000b93          	li	s7,864
     e9e:	919ff0ef          	jal	ra,7b6 <LCD_ReadData>
     ea2:	016107b3          	add	a5,sp,s6
     ea6:	00a78023          	sb	a0,0(a5)
     eaa:	0b05                	addi	s6,s6,1
     eac:	ff7b19e3          	bne	s6,s7,e9e <LCD_ShowChar+0x21a>
     eb0:	bfa9                	j	e0a <LCD_ShowChar+0x186>
     eb2:	00098563          	beqz	s3,ebc <LCD_ShowChar+0x238>
     eb6:	82a1d503          	lhu	a0,-2006(gp) # 2000009a <BACK_COLOR>
     eba:	bf4d                	j	e6c <LCD_ShowChar+0x1e8>
     ebc:	000b1e63          	bnez	s6,ed8 <LCD_ShowChar+0x254>
     ec0:	00044703          	lbu	a4,0(s0)
     ec4:	00144503          	lbu	a0,1(s0)
     ec8:	0742                	slli	a4,a4,0x10
     eca:	0522                	slli	a0,a0,0x8
     ecc:	8f49                	or	a4,a4,a0
     ece:	00244503          	lbu	a0,2(s0)
     ed2:	8d59                	or	a0,a0,a4
     ed4:	34f9                	jal	9a2 <LCD_ConvertColor>
     ed6:	bf59                	j	e6c <LCD_ShowChar+0x1e8>
     ed8:	00644703          	lbu	a4,6(s0)
     edc:	00744503          	lbu	a0,7(s0)
     ee0:	0742                	slli	a4,a4,0x10
     ee2:	0522                	slli	a0,a0,0x8
     ee4:	8f49                	or	a4,a4,a0
     ee6:	00844503          	lbu	a0,8(s0)
     eea:	b7e5                	j	ed2 <LCD_ShowChar+0x24e>
     eec:	02000793          	li	a5,32
     ef0:	0cf69963          	bne	a3,a5,fc2 <LCD_ShowChar+0x33e>
     ef4:	00f40a13          	addi	s4,s0,15
     ef8:	01f48a93          	addi	s5,s1,31
     efc:	60000613          	li	a2,1536
     f00:	4581                	li	a1,0
     f02:	850a                	mv	a0,sp
     f04:	0a42                	slli	s4,s4,0x10
     f06:	0ac2                	slli	s5,s5,0x10
     f08:	af8ff0ef          	jal	ra,200 <memset>
     f0c:	010a5a13          	srli	s4,s4,0x10
     f10:	010ada93          	srli	s5,s5,0x10
     f14:	06098163          	beqz	s3,f76 <LCD_ShowChar+0x2f2>
     f18:	86d6                	mv	a3,s5
     f1a:	85a6                	mv	a1,s1
     f1c:	8652                	mv	a2,s4
     f1e:	8522                	mv	a0,s0
     f20:	6a9d                	lui	s5,0x7
     f22:	3475                	jal	9ce <LCD_AddressSetWrite>
     f24:	091a                	slli	s2,s2,0x6
     f26:	4481                	li	s1,0
     f28:	8dca8a93          	addi	s5,s5,-1828 # 68dc <asc2_3216>
     f2c:	4be1                	li	s7,24
     f2e:	20000cb7          	lui	s9,0x20000
     f32:	04000b13          	li	s6,64
     f36:	03748433          	mul	s0,s1,s7
     f3a:	009907b3          	add	a5,s2,s1
     f3e:	97d6                	add	a5,a5,s5
     f40:	0007cd03          	lbu	s10,0(a5)
     f44:	4a21                	li	s4,8
     f46:	940a                	add	s0,s0,sp
     f48:	018d1793          	slli	a5,s10,0x18
     f4c:	87e1                	srai	a5,a5,0x18
     f4e:	0407d863          	bgez	a5,f9e <LCD_ShowChar+0x31a>
     f52:	070cd503          	lhu	a0,112(s9) # 20000070 <FORE_COLOR>
     f56:	1a7d                	addi	s4,s4,-1
     f58:	0a42                	slli	s4,s4,0x10
     f5a:	0d06                	slli	s10,s10,0x1
     f5c:	010a5a13          	srli	s4,s4,0x10
     f60:	841ff0ef          	jal	ra,7a0 <LCD_WriteHalfWord>
     f64:	0ffd7d13          	andi	s10,s10,255
     f68:	040d                	addi	s0,s0,3
     f6a:	fc0a1fe3          	bnez	s4,f48 <LCD_ShowChar+0x2c4>
     f6e:	0485                	addi	s1,s1,1
     f70:	fd6493e3          	bne	s1,s6,f36 <LCD_ShowChar+0x2b2>
     f74:	b3f5                	j	d60 <LCD_ShowChar+0xdc>
     f76:	86d6                	mv	a3,s5
     f78:	8652                	mv	a2,s4
     f7a:	85a6                	mv	a1,s1
     f7c:	8522                	mv	a0,s0
     f7e:	347d                	jal	a2c <LCD_AddressSetRead>
     f80:	837ff0ef          	jal	ra,7b6 <LCD_ReadData>
     f84:	4b01                	li	s6,0
     f86:	60000b93          	li	s7,1536
     f8a:	82dff0ef          	jal	ra,7b6 <LCD_ReadData>
     f8e:	016107b3          	add	a5,sp,s6
     f92:	00a78023          	sb	a0,0(a5)
     f96:	0b05                	addi	s6,s6,1
     f98:	ff7b19e3          	bne	s6,s7,f8a <LCD_ShowChar+0x306>
     f9c:	bfb5                	j	f18 <LCD_ShowChar+0x294>
     f9e:	00098563          	beqz	s3,fa8 <LCD_ShowChar+0x324>
     fa2:	82a1d503          	lhu	a0,-2006(gp) # 2000009a <BACK_COLOR>
     fa6:	bf45                	j	f56 <LCD_ShowChar+0x2d2>
     fa8:	00044783          	lbu	a5,0(s0)
     fac:	00144503          	lbu	a0,1(s0)
     fb0:	07c2                	slli	a5,a5,0x10
     fb2:	0522                	slli	a0,a0,0x8
     fb4:	8fc9                	or	a5,a5,a0
     fb6:	00244503          	lbu	a0,2(s0)
     fba:	8d5d                	or	a0,a0,a5
     fbc:	9e7ff0ef          	jal	ra,9a2 <LCD_ConvertColor>
     fc0:	bf59                	j	f56 <LCD_ShowChar+0x2d2>
     fc2:	63812403          	lw	s0,1592(sp)
     fc6:	63c12083          	lw	ra,1596(sp)
     fca:	63412483          	lw	s1,1588(sp)
     fce:	63012903          	lw	s2,1584(sp)
     fd2:	62c12983          	lw	s3,1580(sp)
     fd6:	62812a03          	lw	s4,1576(sp)
     fda:	62412a83          	lw	s5,1572(sp)
     fde:	62012b03          	lw	s6,1568(sp)
     fe2:	61c12b83          	lw	s7,1564(sp)
     fe6:	61812c03          	lw	s8,1560(sp)
     fea:	61412c83          	lw	s9,1556(sp)
     fee:	61012d03          	lw	s10,1552(sp)
     ff2:	60c12d83          	lw	s11,1548(sp)
     ff6:	00005537          	lui	a0,0x5
     ffa:	0f050513          	addi	a0,a0,240 # 50f0 <_read+0x2e>
     ffe:	64010113          	addi	sp,sp,1600
    1002:	1590206f          	j	395a <iprintf>
    1006:	8082                	ret

00001008 <LCD_ShowString>:
    1008:	7155                	addi	sp,sp,-208
    100a:	db26                	sw	s1,180(sp)
    100c:	d94a                	sw	s2,176(sp)
    100e:	d74e                	sw	s3,172(sp)
    1010:	84aa                	mv	s1,a0
    1012:	89b2                	mv	s3,a2
    1014:	892e                	mv	s2,a1
    1016:	08000613          	li	a2,128
    101a:	4581                	li	a1,0
    101c:	0808                	addi	a0,sp,16
    101e:	dd22                	sw	s0,184(sp)
    1020:	cf5e                	sw	s7,156(sp)
    1022:	843a                	mv	s0,a4
    1024:	c3be                	sw	a5,196(sp)
    1026:	df06                	sw	ra,188(sp)
    1028:	d552                	sw	s4,168(sp)
    102a:	d356                	sw	s5,164(sp)
    102c:	d15a                	sw	s6,160(sp)
    102e:	cd62                	sw	s8,152(sp)
    1030:	8bb6                	mv	s7,a3
    1032:	c5c2                	sw	a6,200(sp)
    1034:	c7c6                	sw	a7,204(sp)
    1036:	9caff0ef          	jal	ra,200 <memset>
    103a:	ff79f713          	andi	a4,s3,-9
    103e:	47c1                	li	a5,16
    1040:	00f70d63          	beq	a4,a5,105a <LCD_ShowString+0x52>
    1044:	02000793          	li	a5,32
    1048:	00f98963          	beq	s3,a5,105a <LCD_ShowString+0x52>
    104c:	00005537          	lui	a0,0x5
    1050:	85ce                	mv	a1,s3
    1052:	13c50513          	addi	a0,a0,316 # 513c <_read+0x7a>
    1056:	105020ef          	jal	ra,395a <iprintf>
    105a:	01d4                	addi	a3,sp,196
    105c:	8622                	mv	a2,s0
    105e:	06400593          	li	a1,100
    1062:	0808                	addi	a0,sp,16
    1064:	c636                	sw	a3,12(sp)
    1066:	279020ef          	jal	ra,3ade <vsniprintf>
    106a:	0019d713          	srli	a4,s3,0x1
    106e:	0f000793          	li	a5,240
    1072:	01071b13          	slli	s6,a4,0x10
    1076:	6a41                	lui	s4,0x10
    1078:	40e78c33          	sub	s8,a5,a4
    107c:	010b5b13          	srli	s6,s6,0x10
    1080:	0800                	addi	s0,sp,16
    1082:	41378ab3          	sub	s5,a5,s3
    1086:	800a0a13          	addi	s4,s4,-2048 # f800 <_data_lma+0x74ac>
    108a:	00044783          	lbu	a5,0(s0)
    108e:	ef89                	bnez	a5,10a8 <LCD_ShowString+0xa0>
    1090:	50fa                	lw	ra,188(sp)
    1092:	546a                	lw	s0,184(sp)
    1094:	54da                	lw	s1,180(sp)
    1096:	594a                	lw	s2,176(sp)
    1098:	59ba                	lw	s3,172(sp)
    109a:	5a2a                	lw	s4,168(sp)
    109c:	5a9a                	lw	s5,164(sp)
    109e:	5b0a                	lw	s6,160(sp)
    10a0:	4bfa                	lw	s7,156(sp)
    10a2:	4c6a                	lw	s8,152(sp)
    10a4:	6169                	addi	sp,sp,208
    10a6:	8082                	ret
    10a8:	009c7763          	bgeu	s8,s1,10b6 <LCD_ShowString+0xae>
    10ac:	994e                	add	s2,s2,s3
    10ae:	0942                	slli	s2,s2,0x10
    10b0:	01095913          	srli	s2,s2,0x10
    10b4:	4481                	li	s1,0
    10b6:	012af763          	bgeu	s5,s2,10c4 <LCD_ShowString+0xbc>
    10ba:	8552                	mv	a0,s4
    10bc:	9cfff0ef          	jal	ra,a8a <LCD_Clear>
    10c0:	4901                	li	s2,0
    10c2:	4481                	li	s1,0
    10c4:	00044603          	lbu	a2,0(s0)
    10c8:	8526                	mv	a0,s1
    10ca:	94da                	add	s1,s1,s6
    10cc:	875e                	mv	a4,s7
    10ce:	86ce                	mv	a3,s3
    10d0:	85ca                	mv	a1,s2
    10d2:	04c2                	slli	s1,s1,0x10
    10d4:	3e45                	jal	c84 <LCD_ShowChar>
    10d6:	80c1                	srli	s1,s1,0x10
    10d8:	0405                	addi	s0,s0,1
    10da:	bf45                	j	108a <LCD_ShowString+0x82>

000010dc <USARTx_CFG>:
    10dc:	7179                	addi	sp,sp,-48
    10de:	4585                	li	a1,1
    10e0:	08000513          	li	a0,128
    10e4:	d606                	sw	ra,44(sp)
    10e6:	d422                	sw	s0,40(sp)
    10e8:	30e010ef          	jal	ra,23f6 <RCC_APB1PeriphClockCmd>
    10ec:	4585                	li	a1,1
    10ee:	4541                	li	a0,16
    10f0:	2e8010ef          	jal	ra,23d8 <RCC_APB2PeriphClockCmd>
    10f4:	4791                	li	a5,4
    10f6:	00f11223          	sh	a5,4(sp)
    10fa:	478d                	li	a5,3
    10fc:	c43e                	sw	a5,8(sp)
    10fe:	004c                	addi	a1,sp,4
    1100:	47e1                	li	a5,24
    1102:	40011537          	lui	a0,0x40011
    1106:	c63e                	sw	a5,12(sp)
    1108:	5dd000ef          	jal	ra,1ee4 <GPIO_Init>
    110c:	47a1                	li	a5,8
    110e:	00f11223          	sh	a5,4(sp)
    1112:	004c                	addi	a1,sp,4
    1114:	04800793          	li	a5,72
    1118:	40011537          	lui	a0,0x40011
    111c:	c63e                	sw	a5,12(sp)
    111e:	5c7000ef          	jal	ra,1ee4 <GPIO_Init>
    1122:	67f1                	lui	a5,0x1c
    1124:	40002437          	lui	s0,0x40002
    1128:	20078793          	addi	a5,a5,512 # 1c200 <_data_lma+0x13eac>
    112c:	c83e                	sw	a5,16(sp)
    112e:	080c                	addi	a1,sp,16
    1130:	000c07b7          	lui	a5,0xc0
    1134:	c0040513          	addi	a0,s0,-1024 # 40001c00 <_eusrstack+0x1fff9c00>
    1138:	cc3e                	sw	a5,24(sp)
    113a:	ca02                	sw	zero,20(sp)
    113c:	00011e23          	sh	zero,28(sp)
    1140:	65e010ef          	jal	ra,279e <USART_Init>
    1144:	40020537          	lui	a0,0x40020
    1148:	4585                	li	a1,1
    114a:	4a050513          	addi	a0,a0,1184 # 400204a0 <_eusrstack+0x200184a0>
    114e:	3ff000ef          	jal	ra,1d4c <DMA_Cmd>
    1152:	c0040513          	addi	a0,s0,-1024
    1156:	4585                	li	a1,1
    1158:	720010ef          	jal	ra,2878 <USART_Cmd>
    115c:	50b2                	lw	ra,44(sp)
    115e:	5422                	lw	s0,40(sp)
    1160:	6145                	addi	sp,sp,48
    1162:	8082                	ret

00001164 <DMA_INIT>:
    1164:	7139                	addi	sp,sp,-64
    1166:	4585                	li	a1,1
    1168:	4509                	li	a0,2
    116a:	de06                	sw	ra,60(sp)
    116c:	dc22                	sw	s0,56(sp)
    116e:	da26                	sw	s1,52(sp)
    1170:	40020437          	lui	s0,0x40020
    1174:	246010ef          	jal	ra,23ba <RCC_AHBPeriphClockCmd>
    1178:	49040513          	addi	a0,s0,1168 # 40020490 <_eusrstack+0x20018490>
    117c:	22d000ef          	jal	ra,1ba8 <DMA_DeInit>
    1180:	80c18793          	addi	a5,gp,-2036 # 2000007c <TxBuffer>
    1184:	c43e                	sw	a5,8(sp)
    1186:	47c1                	li	a5,16
    1188:	c63e                	sw	a5,12(sp)
    118a:	400024b7          	lui	s1,0x40002
    118e:	08000793          	li	a5,128
    1192:	004c                	addi	a1,sp,4
    1194:	c0448493          	addi	s1,s1,-1020 # 40001c04 <_eusrstack+0x1fff9c04>
    1198:	cc3e                	sw	a5,24(sp)
    119a:	49040513          	addi	a0,s0,1168
    119e:	678d                	lui	a5,0x3
    11a0:	d43e                	sw	a5,40(sp)
    11a2:	c226                	sw	s1,4(sp)
    11a4:	c802                	sw	zero,16(sp)
    11a6:	ca02                	sw	zero,20(sp)
    11a8:	ce02                	sw	zero,28(sp)
    11aa:	d002                	sw	zero,32(sp)
    11ac:	d202                	sw	zero,36(sp)
    11ae:	d602                	sw	zero,44(sp)
    11b0:	365000ef          	jal	ra,1d14 <DMA_Init>
    11b4:	4a040513          	addi	a0,s0,1184
    11b8:	1f1000ef          	jal	ra,1ba8 <DMA_DeInit>
    11bc:	85818793          	addi	a5,gp,-1960 # 200000c8 <RxBuffer>
    11c0:	c43e                	sw	a5,8(sp)
    11c2:	40000793          	li	a5,1024
    11c6:	c83e                	sw	a5,16(sp)
    11c8:	004c                	addi	a1,sp,4
    11ca:	02000793          	li	a5,32
    11ce:	4a040513          	addi	a0,s0,1184
    11d2:	c226                	sw	s1,4(sp)
    11d4:	c602                	sw	zero,12(sp)
    11d6:	d23e                	sw	a5,36(sp)
    11d8:	33d000ef          	jal	ra,1d14 <DMA_Init>
    11dc:	50f2                	lw	ra,60(sp)
    11de:	5462                	lw	s0,56(sp)
    11e0:	54d2                	lw	s1,52(sp)
    11e2:	6121                	addi	sp,sp,64
    11e4:	8082                	ret

000011e6 <GPIO_CFG>:
    11e6:	1101                	addi	sp,sp,-32
    11e8:	4585                	li	a1,1
    11ea:	4511                	li	a0,4
    11ec:	ce06                	sw	ra,28(sp)
    11ee:	cc22                	sw	s0,24(sp)
    11f0:	1e8010ef          	jal	ra,23d8 <RCC_APB2PeriphClockCmd>
    11f4:	4585                	li	a1,1
    11f6:	4541                	li	a0,16
    11f8:	1e0010ef          	jal	ra,23d8 <RCC_APB2PeriphClockCmd>
    11fc:	6789                	lui	a5,0x2
    11fe:	00f11223          	sh	a5,4(sp)
    1202:	4441                	li	s0,16
    1204:	478d                	li	a5,3
    1206:	004c                	addi	a1,sp,4
    1208:	40011537          	lui	a0,0x40011
    120c:	c43e                	sw	a5,8(sp)
    120e:	c622                	sw	s0,12(sp)
    1210:	4d5000ef          	jal	ra,1ee4 <GPIO_Init>
    1214:	40011537          	lui	a0,0x40011
    1218:	08000793          	li	a5,128
    121c:	004c                	addi	a1,sp,4
    121e:	80050513          	addi	a0,a0,-2048 # 40010800 <_eusrstack+0x20008800>
    1222:	c622                	sw	s0,12(sp)
    1224:	00f11223          	sh	a5,4(sp)
    1228:	4bd000ef          	jal	ra,1ee4 <GPIO_Init>
    122c:	40f2                	lw	ra,28(sp)
    122e:	4462                	lw	s0,24(sp)
    1230:	6105                	addi	sp,sp,32
    1232:	8082                	ret

00001234 <uartWriteBLE>:
    1234:	1141                	addi	sp,sp,-16
    1236:	c422                	sw	s0,8(sp)
    1238:	40020437          	lui	s0,0x40020
    123c:	c04a                	sw	s2,0(sp)
    123e:	892a                	mv	s2,a0
    1240:	49040513          	addi	a0,s0,1168 # 40020490 <_eusrstack+0x20018490>
    1244:	c226                	sw	s1,4(sp)
    1246:	c606                	sw	ra,12(sp)
    1248:	84ae                	mv	s1,a1
    124a:	31b000ef          	jal	ra,1d64 <DMA_GetCurrDataCounter>
    124e:	ed15                	bnez	a0,128a <uartWriteBLE+0x56>
    1250:	20000537          	lui	a0,0x20000
    1254:	0509                	addi	a0,a0,2
    1256:	317000ef          	jal	ra,1d6c <DMA_ClearFlag>
    125a:	49040513          	addi	a0,s0,1168
    125e:	4581                	li	a1,0
    1260:	2ed000ef          	jal	ra,1d4c <DMA_Cmd>
    1264:	49040413          	addi	s0,s0,1168
    1268:	01242623          	sw	s2,12(s0)
    126c:	85a6                	mv	a1,s1
    126e:	8522                	mv	a0,s0
    1270:	2f1000ef          	jal	ra,1d60 <DMA_SetCurrDataCounter>
    1274:	8522                	mv	a0,s0
    1276:	4585                	li	a1,1
    1278:	2d5000ef          	jal	ra,1d4c <DMA_Cmd>
    127c:	4505                	li	a0,1
    127e:	40b2                	lw	ra,12(sp)
    1280:	4422                	lw	s0,8(sp)
    1282:	4492                	lw	s1,4(sp)
    1284:	4902                	lw	s2,0(sp)
    1286:	0141                	addi	sp,sp,16
    1288:	8082                	ret
    128a:	4501                	li	a0,0
    128c:	bfcd                	j	127e <uartWriteBLE+0x4a>

0000128e <uartWriteBLEstr>:
    128e:	4581                	li	a1,0
    1290:	00b507b3          	add	a5,a0,a1
    1294:	00078783          	lb	a5,0(a5) # 2000 <I2C_Init+0x12>
    1298:	e391                	bnez	a5,129c <uartWriteBLEstr+0xe>
    129a:	bf69                	j	1234 <uartWriteBLE>
    129c:	0585                	addi	a1,a1,1
    129e:	05c2                	slli	a1,a1,0x10
    12a0:	81c1                	srli	a1,a1,0x10
    12a2:	b7fd                	j	1290 <uartWriteBLEstr+0x2>

000012a4 <EXTI_INT_INIT>:
    12a4:	7139                	addi	sp,sp,-64
    12a6:	4585                	li	a1,1
    12a8:	4515                	li	a0,5
    12aa:	de06                	sw	ra,60(sp)
    12ac:	dc22                	sw	s0,56(sp)
    12ae:	ca02                	sw	zero,20(sp)
    12b0:	cc02                	sw	zero,24(sp)
    12b2:	ce02                	sw	zero,28(sp)
    12b4:	d002                	sw	zero,32(sp)
    12b6:	d202                	sw	zero,36(sp)
    12b8:	d402                	sw	zero,40(sp)
    12ba:	d602                	sw	zero,44(sp)
    12bc:	c602                	sw	zero,12(sp)
    12be:	c802                	sw	zero,16(sp)
    12c0:	118010ef          	jal	ra,23d8 <RCC_APB2PeriphClockCmd>
    12c4:	4785                	li	a5,1
    12c6:	40011537          	lui	a0,0x40011
    12ca:	00f11a23          	sh	a5,20(sp)
    12ce:	084c                	addi	a1,sp,20
    12d0:	04800793          	li	a5,72
    12d4:	80050513          	addi	a0,a0,-2048 # 40010800 <_eusrstack+0x20008800>
    12d8:	ce3e                	sw	a5,28(sp)
    12da:	40b000ef          	jal	ra,1ee4 <GPIO_Init>
    12de:	4581                	li	a1,0
    12e0:	4501                	li	a0,0
    12e2:	4e1000ef          	jal	ra,1fc2 <GPIO_EXTILineConfig>
    12e6:	4405                	li	s0,1
    12e8:	47a1                	li	a5,8
    12ea:	1008                	addi	a0,sp,32
    12ec:	d022                	sw	s0,32(sp)
    12ee:	d43e                	sw	a5,40(sp)
    12f0:	d622                	sw	s0,44(sp)
    12f2:	d202                	sw	zero,36(sp)
    12f4:	2a5000ef          	jal	ra,1d98 <EXTI_Init>
    12f8:	11600793          	li	a5,278
    12fc:	00f11623          	sh	a5,12(sp)
    1300:	0068                	addi	a0,sp,12
    1302:	4789                	li	a5,2
    1304:	c822                	sw	s0,16(sp)
    1306:	00f10723          	sb	a5,14(sp)
    130a:	6eb000ef          	jal	ra,21f4 <NVIC_Init>
    130e:	50f2                	lw	ra,60(sp)
    1310:	5462                	lw	s0,56(sp)
    1312:	6121                	addi	sp,sp,64
    1314:	8082                	ret

00001316 <DVP_IRQHandler>:
    1316:	1141                	addi	sp,sp,-16
    1318:	c622                	sw	s0,12(sp)
    131a:	c426                	sw	s1,8(sp)
    131c:	500507b7          	lui	a5,0x50050
    1320:	0107c703          	lbu	a4,16(a5) # 50050010 <_eusrstack+0x30048010>
    1324:	8b09                	andi	a4,a4,2
    1326:	cf35                	beqz	a4,13a2 <DVP_IRQHandler+0x8c>
    1328:	0107c703          	lbu	a4,16(a5)
    132c:	0fd77713          	andi	a4,a4,253
    1330:	00e78823          	sb	a4,16(a5)
    1334:	82c18793          	addi	a5,gp,-2004 # 2000009c <addr_cnt>
    1338:	4398                	lw	a4,0(a5)
    133a:	8b05                	andi	a4,a4,1
    133c:	0e070763          	beqz	a4,142a <DVP_IRQHandler+0x114>
    1340:	4398                	lw	a4,0(a5)
    1342:	40020537          	lui	a0,0x40020
    1346:	4581                	li	a1,0
    1348:	0705                	addi	a4,a4,1
    134a:	45850513          	addi	a0,a0,1112 # 40020458 <_eusrstack+0x20018458>
    134e:	c398                	sw	a4,0(a5)
    1350:	1fd000ef          	jal	ra,1d4c <DMA_Cmd>
    1354:	4781                	li	a5,0
    1356:	1e000693          	li	a3,480
    135a:	80418493          	addi	s1,gp,-2044 # 20000074 <RGB565_DVPDMAaddr0>
    135e:	4090                	lw	a2,0(s1)
    1360:	00179713          	slli	a4,a5,0x1
    1364:	9732                	add	a4,a4,a2
    1366:	40f70633          	sub	a2,a4,a5
    136a:	00075703          	lhu	a4,0(a4)
    136e:	0785                	addi	a5,a5,1
    1370:	8309                	srli	a4,a4,0x2
    1372:	00e60023          	sb	a4,0(a2)
    1376:	fed792e3          	bne	a5,a3,135a <DVP_IRQHandler+0x44>
    137a:	40020437          	lui	s0,0x40020
    137e:	45840513          	addi	a0,s0,1112 # 40020458 <_eusrstack+0x20018458>
    1382:	1e000593          	li	a1,480
    1386:	1db000ef          	jal	ra,1d60 <DMA_SetCurrDataCounter>
    138a:	409c                	lw	a5,0(s1)
    138c:	45840513          	addi	a0,s0,1112
    1390:	4585                	li	a1,1
    1392:	c51c                	sw	a5,8(a0)
    1394:	1b9000ef          	jal	ra,1d4c <DMA_Cmd>
    1398:	83818793          	addi	a5,gp,-1992 # 200000a8 <href_cnt>
    139c:	4398                	lw	a4,0(a5)
    139e:	0705                	addi	a4,a4,1
    13a0:	c398                	sw	a4,0(a5)
    13a2:	500507b7          	lui	a5,0x50050
    13a6:	0107c703          	lbu	a4,16(a5) # 50050010 <_eusrstack+0x30048010>
    13aa:	8b11                	andi	a4,a4,4
    13ac:	cb19                	beqz	a4,13c2 <DVP_IRQHandler+0xac>
    13ae:	0107c703          	lbu	a4,16(a5)
    13b2:	0fb77713          	andi	a4,a4,251
    13b6:	00e78823          	sb	a4,16(a5)
    13ba:	8201a623          	sw	zero,-2004(gp) # 2000009c <addr_cnt>
    13be:	8201ac23          	sw	zero,-1992(gp) # 200000a8 <href_cnt>
    13c2:	500507b7          	lui	a5,0x50050
    13c6:	0107c703          	lbu	a4,16(a5) # 50050010 <_eusrstack+0x30048010>
    13ca:	8b05                	andi	a4,a4,1
    13cc:	cf01                	beqz	a4,13e4 <DVP_IRQHandler+0xce>
    13ce:	0107c703          	lbu	a4,16(a5)
    13d2:	0fe77713          	andi	a4,a4,254
    13d6:	00e78823          	sb	a4,16(a5)
    13da:	83418793          	addi	a5,gp,-1996 # 200000a4 <frame_cnt>
    13de:	4398                	lw	a4,0(a5)
    13e0:	0705                	addi	a4,a4,1
    13e2:	c398                	sw	a4,0(a5)
    13e4:	500507b7          	lui	a5,0x50050
    13e8:	0107c703          	lbu	a4,16(a5) # 50050010 <_eusrstack+0x30048010>
    13ec:	8b41                	andi	a4,a4,16
    13ee:	c719                	beqz	a4,13fc <DVP_IRQHandler+0xe6>
    13f0:	0107c703          	lbu	a4,16(a5)
    13f4:	0ef77713          	andi	a4,a4,239
    13f8:	00e78823          	sb	a4,16(a5)
    13fc:	500507b7          	lui	a5,0x50050
    1400:	0107c703          	lbu	a4,16(a5) # 50050010 <_eusrstack+0x30048010>
    1404:	8b21                	andi	a4,a4,8
    1406:	cf09                	beqz	a4,1420 <DVP_IRQHandler+0x10a>
    1408:	0107c703          	lbu	a4,16(a5)
    140c:	00008537          	lui	a0,0x8
    1410:	05c50513          	addi	a0,a0,92 # 805c <asc2_3216+0x1780>
    1414:	0f777713          	andi	a4,a4,247
    1418:	00e78823          	sb	a4,16(a5)
    141c:	658020ef          	jal	ra,3a74 <puts>
    1420:	4432                	lw	s0,12(sp)
    1422:	44a2                	lw	s1,8(sp)
    1424:	0141                	addi	sp,sp,16
    1426:	30200073          	mret
    142a:	4398                	lw	a4,0(a5)
    142c:	40020537          	lui	a0,0x40020
    1430:	4581                	li	a1,0
    1432:	0705                	addi	a4,a4,1
    1434:	45850513          	addi	a0,a0,1112 # 40020458 <_eusrstack+0x20018458>
    1438:	c398                	sw	a4,0(a5)
    143a:	113000ef          	jal	ra,1d4c <DMA_Cmd>
    143e:	4781                	li	a5,0
    1440:	1e000693          	li	a3,480
    1444:	80818493          	addi	s1,gp,-2040 # 20000078 <RGB565_DVPDMAaddr1>
    1448:	4090                	lw	a2,0(s1)
    144a:	00179713          	slli	a4,a5,0x1
    144e:	9732                	add	a4,a4,a2
    1450:	40f70633          	sub	a2,a4,a5
    1454:	00075703          	lhu	a4,0(a4)
    1458:	0785                	addi	a5,a5,1
    145a:	8309                	srli	a4,a4,0x2
    145c:	00e60023          	sb	a4,0(a2)
    1460:	fed792e3          	bne	a5,a3,1444 <DVP_IRQHandler+0x12e>
    1464:	bf19                	j	137a <DVP_IRQHandler+0x64>

00001466 <main>:
    1466:	1101                	addi	sp,sp,-32
    1468:	4509                	li	a0,2
    146a:	ce06                	sw	ra,28(sp)
    146c:	cc22                	sw	s0,24(sp)
    146e:	ca26                	sw	s1,20(sp)
    1470:	c84a                	sw	s2,16(sp)
    1472:	c64e                	sw	s3,12(sp)
    1474:	c452                	sw	s4,8(sp)
    1476:	579000ef          	jal	ra,21ee <NVIC_PriorityGroupConfig>
    147a:	446010ef          	jal	ra,28c0 <Delay_Init>
    147e:	6571                	lui	a0,0x1c
    1480:	20050513          	addi	a0,a0,512 # 1c200 <_data_lma+0x13eac>
    1484:	4be010ef          	jal	ra,2942 <USART_Printf_Init>
    1488:	40011937          	lui	s2,0x40011
    148c:	40000593          	li	a1,1024
    1490:	40090513          	addi	a0,s2,1024 # 40011400 <_eusrstack+0x20009400>
    1494:	31d000ef          	jal	ra,1fb0 <GPIO_SetBits>
    1498:	8101a403          	lw	s0,-2032(gp) # 20000080 <SystemCoreClock>
    149c:	000f47b7          	lui	a5,0xf4
    14a0:	24078793          	addi	a5,a5,576 # f4240 <_data_lma+0xebeec>
    14a4:	02f45433          	divu	s0,s0,a5
    14a8:	e2eff0ef          	jal	ra,ad6 <LCD_Init>
    14ac:	06400513          	li	a0,100
    14b0:	464010ef          	jal	ra,2914 <Delay_Ms>
    14b4:	04b00513          	li	a0,75
    14b8:	cceff0ef          	jal	ra,986 <LCD_SetBrightness>
    14bc:	4a05                	li	s4,1
    14be:	83418923          	sb	s4,-1998(gp) # 200000a2 <crack_repair_flag>
    14c2:	314d                	jal	1164 <DMA_INIT>
    14c4:	3921                	jal	10dc <USARTx_CFG>
    14c6:	40002537          	lui	a0,0x40002
    14ca:	4605                	li	a2,1
    14cc:	0c000593          	li	a1,192
    14d0:	c0050513          	addi	a0,a0,-1024 # 40001c00 <_eusrstack+0x1fff9c00>
    14d4:	3c0010ef          	jal	ra,2894 <USART_DMACmd>
    14d8:	3339                	jal	11e6 <GPIO_CFG>
    14da:	80090513          	addi	a0,s2,-2048
    14de:	4601                	li	a2,0
    14e0:	08000593          	li	a1,128
    14e4:	2d5000ef          	jal	ra,1fb8 <GPIO_WriteBit>
    14e8:	4605                	li	a2,1
    14ea:	6589                	lui	a1,0x2
    14ec:	40011537          	lui	a0,0x40011
    14f0:	2c9000ef          	jal	ra,1fb8 <GPIO_WriteBit>
    14f4:	3e800513          	li	a0,1000
    14f8:	41c010ef          	jal	ra,2914 <Delay_Ms>
    14fc:	6489                	lui	s1,0x2
    14fe:	69c1                	lui	s3,0x10
    1500:	8e348513          	addi	a0,s1,-1821 # 18e3 <Ultrasoniclength+0x1b>
    1504:	fff98593          	addi	a1,s3,-1 # ffff <_data_lma+0x7cab>
    1508:	cb8ff0ef          	jal	ra,9c0 <LCD_SetColor>
    150c:	00008737          	lui	a4,0x8
    1510:	06870713          	addi	a4,a4,104 # 8068 <asc2_3216+0x178c>
    1514:	4685                	li	a3,1
    1516:	4661                	li	a2,24
    1518:	4581                	li	a1,0
    151a:	4529                	li	a0,10
    151c:	aedff0ef          	jal	ra,1008 <LCD_ShowString>
    1520:	8e348513          	addi	a0,s1,-1821
    1524:	fff98593          	addi	a1,s3,-1
    1528:	c98ff0ef          	jal	ra,9c0 <LCD_SetColor>
    152c:	00008737          	lui	a4,0x8
    1530:	07c70713          	addi	a4,a4,124 # 807c <asc2_3216+0x17a0>
    1534:	4685                	li	a3,1
    1536:	4641                	li	a2,16
    1538:	06400593          	li	a1,100
    153c:	4529                	li	a0,10
    153e:	acbff0ef          	jal	ra,1008 <LCD_ShowString>
    1542:	8e348513          	addi	a0,s1,-1821
    1546:	fff98593          	addi	a1,s3,-1
    154a:	c76ff0ef          	jal	ra,9c0 <LCD_SetColor>
    154e:	00008737          	lui	a4,0x8
    1552:	09070713          	addi	a4,a4,144 # 8090 <asc2_3216+0x17b4>
    1556:	4685                	li	a3,1
    1558:	4641                	li	a2,16
    155a:	03c00593          	li	a1,60
    155e:	4529                	li	a0,10
    1560:	aa9ff0ef          	jal	ra,1008 <LCD_ShowString>
    1564:	8e348513          	addi	a0,s1,-1821
    1568:	fff98593          	addi	a1,s3,-1
    156c:	c54ff0ef          	jal	ra,9c0 <LCD_SetColor>
    1570:	00008737          	lui	a4,0x8
    1574:	09c70713          	addi	a4,a4,156 # 809c <asc2_3216+0x17c0>
    1578:	4685                	li	a3,1
    157a:	4641                	li	a2,16
    157c:	02800593          	li	a1,40
    1580:	4529                	li	a0,10
    1582:	a87ff0ef          	jal	ra,1008 <LCD_ShowString>
    1586:	00008737          	lui	a4,0x8
    158a:	0a870713          	addi	a4,a4,168 # 80a8 <asc2_3216+0x17cc>
    158e:	4685                	li	a3,1
    1590:	4641                	li	a2,16
    1592:	05000593          	li	a1,80
    1596:	4529                	li	a0,10
    1598:	a71ff0ef          	jal	ra,1008 <LCD_ShowString>
    159c:	97cff0ef          	jal	ra,718 <IMU_Init>
    15a0:	4509                	li	a0,2
    15a2:	fe1fe0ef          	jal	ra,582 <IMU_SetGyroFsr>
    15a6:	450d                	li	a0,3
    15a8:	febfe0ef          	jal	ra,592 <IMU_SetAccelFsr>
    15ac:	3e800513          	li	a0,1000
    15b0:	826ff0ef          	jal	ra,5d6 <IMU_SetRate>
    15b4:	1f400513          	li	a0,500
    15b8:	febfe0ef          	jal	ra,5a2 <IMU_SetLPF>
    15bc:	83418ea3          	sb	s4,-1987(gp) # 200000ad <tick>
    15c0:	147d                	addi	s0,s0,-1
    15c2:	c801a623          	sw	zero,-884(gp) # 200004fc <time>
    15c6:	0442                	slli	s0,s0,0x10
    15c8:	83418e23          	sb	s4,-1988(gp) # 200000ac <refresh_flag>
    15cc:	8041                	srli	s0,s0,0x10
    15ce:	ce1fe0ef          	jal	ra,2ae <Button_INT_Init>
    15d2:	85a2                	mv	a1,s0
    15d4:	3e700513          	li	a0,999
    15d8:	22d1                	jal	179c <Tick_TIM_Init>
    15da:	2cb5                	jal	1856 <Tick_TIM_INT_Init>
    15dc:	6521                	lui	a0,0x8
    15de:	85a2                	mv	a1,s0
    15e0:	23450513          	addi	a0,a0,564 # 8234 <__clz_tab+0x7c>
    15e4:	2c09                	jal	17f6 <Refresh_TIM_Init>
    15e6:	2c59                	jal	187c <Refresh_TIM_INT_Init>
    15e8:	04700593          	li	a1,71
    15ec:	3e700513          	li	a0,999
    15f0:	2235                	jal	171c <Input_Capture_Init>
    15f2:	8e348493          	addi	s1,s1,-1821
    15f6:	80090913          	addi	s2,s2,-2048
    15fa:	4529                	li	a0,10
    15fc:	2ea010ef          	jal	ra,28e6 <Delay_Us>
    1600:	8526                	mv	a0,s1
    1602:	4581                	li	a1,0
    1604:	bbcff0ef          	jal	ra,9c0 <LCD_SetColor>
    1608:	4605                	li	a2,1
    160a:	08000593          	li	a1,128
    160e:	854a                	mv	a0,s2
    1610:	1a9000ef          	jal	ra,1fb8 <GPIO_WriteBit>
    1614:	3941                	jal	12a4 <EXTI_INT_INIT>
    1616:	2c4d                	jal	18c8 <Ultrasoniclength>
    1618:	06400513          	li	a0,100
    161c:	2f8010ef          	jal	ra,2914 <Delay_Ms>
    1620:	bfe9                	j	15fa <main+0x194>

00001622 <SystemInit>:
    1622:	400217b7          	lui	a5,0x40021
    1626:	4398                	lw	a4,0(a5)
    1628:	f8ff06b7          	lui	a3,0xf8ff0
    162c:	1141                	addi	sp,sp,-16
    162e:	00176713          	ori	a4,a4,1
    1632:	c398                	sw	a4,0(a5)
    1634:	43d8                	lw	a4,4(a5)
    1636:	00020637          	lui	a2,0x20
    163a:	8f75                	and	a4,a4,a3
    163c:	c3d8                	sw	a4,4(a5)
    163e:	4398                	lw	a4,0(a5)
    1640:	fef706b7          	lui	a3,0xfef70
    1644:	16fd                	addi	a3,a3,-1
    1646:	8f75                	and	a4,a4,a3
    1648:	c398                	sw	a4,0(a5)
    164a:	4398                	lw	a4,0(a5)
    164c:	fffc06b7          	lui	a3,0xfffc0
    1650:	16fd                	addi	a3,a3,-1
    1652:	8f75                	and	a4,a4,a3
    1654:	c398                	sw	a4,0(a5)
    1656:	43d8                	lw	a4,4(a5)
    1658:	ff8106b7          	lui	a3,0xff810
    165c:	16fd                	addi	a3,a3,-1
    165e:	8f75                	and	a4,a4,a3
    1660:	c3d8                	sw	a4,4(a5)
    1662:	4398                	lw	a4,0(a5)
    1664:	ec0006b7          	lui	a3,0xec000
    1668:	16fd                	addi	a3,a3,-1
    166a:	8f75                	and	a4,a4,a3
    166c:	c398                	sw	a4,0(a5)
    166e:	00ff0737          	lui	a4,0xff0
    1672:	c798                	sw	a4,8(a5)
    1674:	0207a623          	sw	zero,44(a5) # 4002102c <_eusrstack+0x2001902c>
    1678:	c402                	sw	zero,8(sp)
    167a:	c602                	sw	zero,12(sp)
    167c:	4398                	lw	a4,0(a5)
    167e:	66c1                	lui	a3,0x10
    1680:	8f55                	or	a4,a4,a3
    1682:	c398                	sw	a4,0(a5)
    1684:	400216b7          	lui	a3,0x40021
    1688:	6705                	lui	a4,0x1
    168a:	429c                	lw	a5,0(a3)
    168c:	8ff1                	and	a5,a5,a2
    168e:	c63e                	sw	a5,12(sp)
    1690:	47a2                	lw	a5,8(sp)
    1692:	0785                	addi	a5,a5,1
    1694:	c43e                	sw	a5,8(sp)
    1696:	47b2                	lw	a5,12(sp)
    1698:	e781                	bnez	a5,16a0 <SystemInit+0x7e>
    169a:	47a2                	lw	a5,8(sp)
    169c:	fee797e3          	bne	a5,a4,168a <SystemInit+0x68>
    16a0:	400217b7          	lui	a5,0x40021
    16a4:	439c                	lw	a5,0(a5)
    16a6:	00e79713          	slli	a4,a5,0xe
    16aa:	06075763          	bgez	a4,1718 <SystemInit+0xf6>
    16ae:	4785                	li	a5,1
    16b0:	c63e                	sw	a5,12(sp)
    16b2:	4732                	lw	a4,12(sp)
    16b4:	4785                	li	a5,1
    16b6:	04f71f63          	bne	a4,a5,1714 <SystemInit+0xf2>
    16ba:	400217b7          	lui	a5,0x40021
    16be:	43d8                	lw	a4,4(a5)
    16c0:	ffc106b7          	lui	a3,0xffc10
    16c4:	16fd                	addi	a3,a3,-1
    16c6:	c3d8                	sw	a4,4(a5)
    16c8:	43d8                	lw	a4,4(a5)
    16ca:	c3d8                	sw	a4,4(a5)
    16cc:	43d8                	lw	a4,4(a5)
    16ce:	40076713          	ori	a4,a4,1024
    16d2:	c3d8                	sw	a4,4(a5)
    16d4:	43d8                	lw	a4,4(a5)
    16d6:	8f75                	and	a4,a4,a3
    16d8:	c3d8                	sw	a4,4(a5)
    16da:	43d8                	lw	a4,4(a5)
    16dc:	001d06b7          	lui	a3,0x1d0
    16e0:	8f55                	or	a4,a4,a3
    16e2:	c3d8                	sw	a4,4(a5)
    16e4:	4398                	lw	a4,0(a5)
    16e6:	010006b7          	lui	a3,0x1000
    16ea:	8f55                	or	a4,a4,a3
    16ec:	c398                	sw	a4,0(a5)
    16ee:	4398                	lw	a4,0(a5)
    16f0:	00671693          	slli	a3,a4,0x6
    16f4:	fe06dde3          	bgez	a3,16ee <SystemInit+0xcc>
    16f8:	43d8                	lw	a4,4(a5)
    16fa:	400216b7          	lui	a3,0x40021
    16fe:	9b71                	andi	a4,a4,-4
    1700:	c3d8                	sw	a4,4(a5)
    1702:	43d8                	lw	a4,4(a5)
    1704:	00276713          	ori	a4,a4,2
    1708:	c3d8                	sw	a4,4(a5)
    170a:	4721                	li	a4,8
    170c:	42dc                	lw	a5,4(a3)
    170e:	8bb1                	andi	a5,a5,12
    1710:	fee79ee3          	bne	a5,a4,170c <SystemInit+0xea>
    1714:	0141                	addi	sp,sp,16
    1716:	8082                	ret
    1718:	c602                	sw	zero,12(sp)
    171a:	bf61                	j	16b2 <SystemInit+0x90>

0000171c <Input_Capture_Init>:
    171c:	7179                	addi	sp,sp,-48
    171e:	d422                	sw	s0,40(sp)
    1720:	d226                	sw	s1,36(sp)
    1722:	842e                	mv	s0,a1
    1724:	84aa                	mv	s1,a0
    1726:	4585                	li	a1,1
    1728:	4505                	li	a0,1
    172a:	d606                	sw	ra,44(sp)
    172c:	4cb000ef          	jal	ra,23f6 <RCC_APB1PeriphClockCmd>
    1730:	b7ffe0ef          	jal	ra,2ae <Button_INT_Init>
    1734:	40000537          	lui	a0,0x40000
    1738:	519000ef          	jal	ra,2450 <TIM_DeInit>
    173c:	084c                	addi	a1,sp,20
    173e:	40000537          	lui	a0,0x40000
    1742:	00911c23          	sh	s1,24(sp)
    1746:	00811a23          	sh	s0,20(sp)
    174a:	00011d23          	sh	zero,26(sp)
    174e:	00011b23          	sh	zero,22(sp)
    1752:	5f7000ef          	jal	ra,2548 <TIM_TimeBaseInit>
    1756:	4509                	li	a0,2
    1758:	297000ef          	jal	ra,21ee <NVIC_PriorityGroupConfig>
    175c:	02c00793          	li	a5,44
    1760:	00f11623          	sh	a5,12(sp)
    1764:	0068                	addi	a0,sp,12
    1766:	4785                	li	a5,1
    1768:	c83e                	sw	a5,16(sp)
    176a:	00010723          	sb	zero,14(sp)
    176e:	287000ef          	jal	ra,21f4 <NVIC_Init>
    1772:	4585                	li	a1,1
    1774:	40000537          	lui	a0,0x40000
    1778:	7ef000ef          	jal	ra,2766 <TIM_ClearFlag>
    177c:	4605                	li	a2,1
    177e:	4585                	li	a1,1
    1780:	40000537          	lui	a0,0x40000
    1784:	783000ef          	jal	ra,2706 <TIM_ITConfig>
    1788:	4581                	li	a1,0
    178a:	40000537          	lui	a0,0x40000
    178e:	747000ef          	jal	ra,26d4 <TIM_Cmd>
    1792:	50b2                	lw	ra,44(sp)
    1794:	5422                	lw	s0,40(sp)
    1796:	5492                	lw	s1,36(sp)
    1798:	6145                	addi	sp,sp,48
    179a:	8082                	ret

0000179c <Tick_TIM_Init>:
    179c:	1101                	addi	sp,sp,-32
    179e:	cc22                	sw	s0,24(sp)
    17a0:	ca26                	sw	s1,20(sp)
    17a2:	842e                	mv	s0,a1
    17a4:	84aa                	mv	s1,a0
    17a6:	4585                	li	a1,1
    17a8:	4541                	li	a0,16
    17aa:	ce06                	sw	ra,28(sp)
    17ac:	44b000ef          	jal	ra,23f6 <RCC_APB1PeriphClockCmd>
    17b0:	47c1                	li	a5,16
    17b2:	004c                	addi	a1,sp,4
    17b4:	40001537          	lui	a0,0x40001
    17b8:	00f11323          	sh	a5,6(sp)
    17bc:	00911423          	sh	s1,8(sp)
    17c0:	00811223          	sh	s0,4(sp)
    17c4:	00011523          	sh	zero,10(sp)
    17c8:	581000ef          	jal	ra,2548 <TIM_TimeBaseInit>
    17cc:	4605                	li	a2,1
    17ce:	4585                	li	a1,1
    17d0:	40001537          	lui	a0,0x40001
    17d4:	733000ef          	jal	ra,2706 <TIM_ITConfig>
    17d8:	4585                	li	a1,1
    17da:	40001537          	lui	a0,0x40001
    17de:	73f000ef          	jal	ra,271c <TIM_ARRPreloadConfig>
    17e2:	4585                	li	a1,1
    17e4:	40001537          	lui	a0,0x40001
    17e8:	6ed000ef          	jal	ra,26d4 <TIM_Cmd>
    17ec:	40f2                	lw	ra,28(sp)
    17ee:	4462                	lw	s0,24(sp)
    17f0:	44d2                	lw	s1,20(sp)
    17f2:	6105                	addi	sp,sp,32
    17f4:	8082                	ret

000017f6 <Refresh_TIM_Init>:
    17f6:	1101                	addi	sp,sp,-32
    17f8:	cc22                	sw	s0,24(sp)
    17fa:	ca26                	sw	s1,20(sp)
    17fc:	842e                	mv	s0,a1
    17fe:	84aa                	mv	s1,a0
    1800:	4585                	li	a1,1
    1802:	02000513          	li	a0,32
    1806:	ce06                	sw	ra,28(sp)
    1808:	3ef000ef          	jal	ra,23f6 <RCC_APB1PeriphClockCmd>
    180c:	00811223          	sh	s0,4(sp)
    1810:	40001437          	lui	s0,0x40001
    1814:	47c1                	li	a5,16
    1816:	004c                	addi	a1,sp,4
    1818:	40040513          	addi	a0,s0,1024 # 40001400 <_eusrstack+0x1fff9400>
    181c:	00f11323          	sh	a5,6(sp)
    1820:	00911423          	sh	s1,8(sp)
    1824:	00011523          	sh	zero,10(sp)
    1828:	521000ef          	jal	ra,2548 <TIM_TimeBaseInit>
    182c:	4605                	li	a2,1
    182e:	40040513          	addi	a0,s0,1024
    1832:	4585                	li	a1,1
    1834:	6d3000ef          	jal	ra,2706 <TIM_ITConfig>
    1838:	40040513          	addi	a0,s0,1024
    183c:	4585                	li	a1,1
    183e:	6df000ef          	jal	ra,271c <TIM_ARRPreloadConfig>
    1842:	40040513          	addi	a0,s0,1024
    1846:	4585                	li	a1,1
    1848:	68d000ef          	jal	ra,26d4 <TIM_Cmd>
    184c:	40f2                	lw	ra,28(sp)
    184e:	4462                	lw	s0,24(sp)
    1850:	44d2                	lw	s1,20(sp)
    1852:	6105                	addi	sp,sp,32
    1854:	8082                	ret

00001856 <Tick_TIM_INT_Init>:
    1856:	1101                	addi	sp,sp,-32
    1858:	14600793          	li	a5,326
    185c:	00011523          	sh	zero,10(sp)
    1860:	00f11423          	sh	a5,8(sp)
    1864:	4789                	li	a5,2
    1866:	00f10523          	sb	a5,10(sp)
    186a:	0028                	addi	a0,sp,8
    186c:	4785                	li	a5,1
    186e:	ce06                	sw	ra,28(sp)
    1870:	c63e                	sw	a5,12(sp)
    1872:	183000ef          	jal	ra,21f4 <NVIC_Init>
    1876:	40f2                	lw	ra,28(sp)
    1878:	6105                	addi	sp,sp,32
    187a:	8082                	ret

0000187c <Refresh_TIM_INT_Init>:
    187c:	1101                	addi	sp,sp,-32
    187e:	14700793          	li	a5,327
    1882:	00011523          	sh	zero,10(sp)
    1886:	00f11423          	sh	a5,8(sp)
    188a:	4789                	li	a5,2
    188c:	00f10523          	sb	a5,10(sp)
    1890:	0028                	addi	a0,sp,8
    1892:	4785                	li	a5,1
    1894:	ce06                	sw	ra,28(sp)
    1896:	c63e                	sw	a5,12(sp)
    1898:	15d000ef          	jal	ra,21f4 <NVIC_Init>
    189c:	40f2                	lw	ra,28(sp)
    189e:	6105                	addi	sp,sp,32
    18a0:	8082                	ret

000018a2 <ENABLE_TIM>:
    18a2:	1141                	addi	sp,sp,-16
    18a4:	4581                	li	a1,0
    18a6:	40000537          	lui	a0,0x40000
    18aa:	c606                	sw	ra,12(sp)
    18ac:	6a9000ef          	jal	ra,2754 <TIM_SetCounter>
    18b0:	40b2                	lw	ra,12(sp)
    18b2:	4585                	li	a1,1
    18b4:	40000537          	lui	a0,0x40000
    18b8:	0141                	addi	sp,sp,16
    18ba:	61b0006f          	j	26d4 <TIM_Cmd>

000018be <DISABLE_TIM>:
    18be:	4581                	li	a1,0
    18c0:	40000537          	lui	a0,0x40000
    18c4:	6110006f          	j	26d4 <TIM_Cmd>

000018c8 <Ultrasoniclength>:
    18c8:	715d                	addi	sp,sp,-80
    18ca:	000087b7          	lui	a5,0x8
    18ce:	dc52                	sw	s4,56(sp)
    18d0:	da56                	sw	s5,52(sp)
    18d2:	0d07aa03          	lw	s4,208(a5) # 80d0 <asc2_3216+0x17f4>
    18d6:	0d47aa83          	lw	s5,212(a5)
    18da:	c2a6                	sw	s1,68(sp)
    18dc:	d85a                	sw	s6,48(sp)
    18de:	400124b7          	lui	s1,0x40012
    18e2:	40011b37          	lui	s6,0x40011
    18e6:	c0ca                	sw	s2,64(sp)
    18e8:	de4e                	sw	s3,60(sp)
    18ea:	d65e                	sw	s7,44(sp)
    18ec:	d462                	sw	s8,40(sp)
    18ee:	d266                	sw	s9,36(sp)
    18f0:	d06a                	sw	s10,32(sp)
    18f2:	c686                	sw	ra,76(sp)
    18f4:	c4a2                	sw	s0,72(sp)
    18f6:	ce6e                	sw	s11,28(sp)
    18f8:	4995                	li	s3,5
    18fa:	00000913          	li	s2,0
    18fe:	400b0b13          	addi	s6,s6,1024 # 40011400 <_eusrstack+0x20009400>
    1902:	80048493          	addi	s1,s1,-2048 # 40011800 <_eusrstack+0x20009800>
    1906:	4d05                	li	s10,1
    1908:	00008c37          	lui	s8,0x8
    190c:	3e800b93          	li	s7,1000
    1910:	a8dfe0ef          	jal	ra,39c <Start_Trig>
    1914:	40000593          	li	a1,1024
    1918:	855a                	mv	a0,s6
    191a:	2d59                	jal	1fb0 <GPIO_SetBits>
    191c:	65a1                	lui	a1,0x8
    191e:	8526                	mv	a0,s1
    1920:	2559                	jal	1fa6 <GPIO_ReadInputDataBit>
    1922:	dd6d                	beqz	a0,191c <Ultrasoniclength+0x54>
    1924:	3fbd                	jal	18a2 <ENABLE_TIM>
    1926:	65a1                	lui	a1,0x8
    1928:	8526                	mv	a0,s1
    192a:	2db5                	jal	1fa6 <GPIO_ReadInputDataBit>
    192c:	ffa50de3          	beq	a0,s10,1926 <Ultrasoniclength+0x5e>
    1930:	3779                	jal	18be <DISABLE_TIM>
    1932:	84018d93          	addi	s11,gp,-1984 # 200000b0 <count>
    1936:	40000537          	lui	a0,0x40000
    193a:	627000ef          	jal	ra,2760 <TIM_GetCounter>
    193e:	000dd403          	lhu	s0,0(s11)
    1942:	c62a                	sw	a0,12(sp)
    1944:	0d8c0513          	addi	a0,s8,216 # 80d8 <asc2_3216+0x17fc>
    1948:	85a2                	mv	a1,s0
    194a:	010020ef          	jal	ra,395a <iprintf>
    194e:	03740533          	mul	a0,s0,s7
    1952:	47b2                	lw	a5,12(sp)
    1954:	19fd                	addi	s3,s3,-1
    1956:	953e                	add	a0,a0,a5
    1958:	66a010ef          	jal	ra,2fc2 <__floatunsidf>
    195c:	8652                	mv	a2,s4
    195e:	86d6                	mv	a3,s5
    1960:	0ae010ef          	jal	ra,2a0e <__divdf3>
    1964:	617010ef          	jal	ra,377a <__truncdfsf2>
    1968:	85aa                	mv	a1,a0
    196a:	854a                	mv	a0,s2
    196c:	6be010ef          	jal	ra,302a <__addsf3>
    1970:	4581                	li	a1,0
    1972:	892a                	mv	s2,a0
    1974:	40000537          	lui	a0,0x40000
    1978:	5dd000ef          	jal	ra,2754 <TIM_SetCounter>
    197c:	06400513          	li	a0,100
    1980:	000d9023          	sh	zero,0(s11)
    1984:	791000ef          	jal	ra,2914 <Delay_Ms>
    1988:	f80994e3          	bnez	s3,1910 <Ultrasoniclength+0x48>
    198c:	000087b7          	lui	a5,0x8
    1990:	0c87a583          	lw	a1,200(a5) # 80c8 <asc2_3216+0x17ec>
    1994:	854a                	mv	a0,s2
    1996:	1ff010ef          	jal	ra,3394 <__divsf3>
    199a:	84418413          	addi	s0,gp,-1980 # 200000b4 <distance>
    199e:	c008                	sw	a0,0(s0)
    19a0:	84aa                	mv	s1,a0
    19a2:	52d010ef          	jal	ra,36ce <__extendsfdf2>
    19a6:	862a                	mv	a2,a0
    19a8:	00008537          	lui	a0,0x8
    19ac:	86ae                	mv	a3,a1
    19ae:	0e450513          	addi	a0,a0,228 # 80e4 <asc2_3216+0x1808>
    19b2:	7a9010ef          	jal	ra,395a <iprintf>
    19b6:	000087b7          	lui	a5,0x8
    19ba:	0cc7a583          	lw	a1,204(a5) # 80cc <asc2_3216+0x17f0>
    19be:	4008                	lw	a0,0(s0)
    19c0:	483010ef          	jal	ra,3642 <__lesf2>
    19c4:	40000593          	li	a1,1024
    19c8:	02055763          	bgez	a0,19f6 <Ultrasoniclength+0x12e>
    19cc:	40011537          	lui	a0,0x40011
    19d0:	40050513          	addi	a0,a0,1024 # 40011400 <_eusrstack+0x20009400>
    19d4:	23c5                	jal	1fb4 <GPIO_ResetBits>
    19d6:	40b6                	lw	ra,76(sp)
    19d8:	4426                	lw	s0,72(sp)
    19da:	8526                	mv	a0,s1
    19dc:	4906                	lw	s2,64(sp)
    19de:	4496                	lw	s1,68(sp)
    19e0:	59f2                	lw	s3,60(sp)
    19e2:	5a62                	lw	s4,56(sp)
    19e4:	5ad2                	lw	s5,52(sp)
    19e6:	5b42                	lw	s6,48(sp)
    19e8:	5bb2                	lw	s7,44(sp)
    19ea:	5c22                	lw	s8,40(sp)
    19ec:	5c92                	lw	s9,36(sp)
    19ee:	5d02                	lw	s10,32(sp)
    19f0:	4df2                	lw	s11,28(sp)
    19f2:	6161                	addi	sp,sp,80
    19f4:	8082                	ret
    19f6:	40011537          	lui	a0,0x40011
    19fa:	40050513          	addi	a0,a0,1024 # 40011400 <_eusrstack+0x20009400>
    19fe:	2b4d                	jal	1fb0 <GPIO_SetBits>
    1a00:	bfd9                	j	19d6 <Ultrasoniclength+0x10e>

00001a02 <TIM2_IRQHandler>:
    1a02:	4585                	li	a1,1
    1a04:	40000537          	lui	a0,0x40000
    1a08:	56d000ef          	jal	ra,2774 <TIM_GetITStatus>
    1a0c:	cd09                	beqz	a0,1a26 <TIM2_IRQHandler+0x24>
    1a0e:	4585                	li	a1,1
    1a10:	40000537          	lui	a0,0x40000
    1a14:	57d000ef          	jal	ra,2790 <TIM_ClearITPendingBit>
    1a18:	84018793          	addi	a5,gp,-1984 # 200000b0 <count>
    1a1c:	0007d703          	lhu	a4,0(a5)
    1a20:	0705                	addi	a4,a4,1
    1a22:	00e79023          	sh	a4,0(a5)
    1a26:	30200073          	mret

00001a2a <TIM6_IRQHandler>:
    1a2a:	4585                	li	a1,1
    1a2c:	40001537          	lui	a0,0x40001
    1a30:	537000ef          	jal	ra,2766 <TIM_ClearFlag>
    1a34:	4705                	li	a4,1
    1a36:	82e18ea3          	sb	a4,-1987(gp) # 200000ad <tick>
    1a3a:	c8c1a783          	lw	a5,-884(gp) # 200004fc <time>
    1a3e:	0785                	addi	a5,a5,1
    1a40:	c8f1a623          	sw	a5,-884(gp) # 200004fc <time>
    1a44:	30200073          	mret

00001a48 <TIM7_IRQHandler>:
    1a48:	40001537          	lui	a0,0x40001
    1a4c:	4585                	li	a1,1
    1a4e:	40050513          	addi	a0,a0,1024 # 40001400 <_eusrstack+0x1fff9400>
    1a52:	515000ef          	jal	ra,2766 <TIM_ClearFlag>
    1a56:	4705                	li	a4,1
    1a58:	82e18e23          	sb	a4,-1988(gp) # 200000ac <refresh_flag>
    1a5c:	30200073          	mret
    1a60:	a001                	j	1a60 <TIM7_IRQHandler+0x18>
    1a62:	a001                	j	1a62 <TIM7_IRQHandler+0x1a>

00001a64 <Ecall_M_Mode_Handler>:
    1a64:	a001                	j	1a64 <Ecall_M_Mode_Handler>

00001a66 <Ecall_U_Mode_Handler>:
    1a66:	a001                	j	1a66 <Ecall_U_Mode_Handler>

00001a68 <Break_Point_Handler>:
    1a68:	a001                	j	1a68 <Break_Point_Handler>

00001a6a <SysTick_Handler>:
    1a6a:	a001                	j	1a6a <SysTick_Handler>

00001a6c <SW_Handler>:
    1a6c:	a001                	j	1a6c <SW_Handler>

00001a6e <WWDG_IRQHandler>:
    1a6e:	a001                	j	1a6e <WWDG_IRQHandler>

00001a70 <PVD_IRQHandler>:
    1a70:	a001                	j	1a70 <PVD_IRQHandler>

00001a72 <TAMPER_IRQHandler>:
    1a72:	a001                	j	1a72 <TAMPER_IRQHandler>

00001a74 <RTC_IRQHandler>:
    1a74:	a001                	j	1a74 <RTC_IRQHandler>

00001a76 <FLASH_IRQHandler>:
    1a76:	a001                	j	1a76 <FLASH_IRQHandler>

00001a78 <RCC_IRQHandler>:
    1a78:	a001                	j	1a78 <RCC_IRQHandler>
    1a7a:	a001                	j	1a7a <RCC_IRQHandler+0x2>

00001a7c <EXTI1_IRQHandler>:
    1a7c:	a001                	j	1a7c <EXTI1_IRQHandler>

00001a7e <EXTI2_IRQHandler>:
    1a7e:	a001                	j	1a7e <EXTI2_IRQHandler>

00001a80 <EXTI3_IRQHandler>:
    1a80:	a001                	j	1a80 <EXTI3_IRQHandler>

00001a82 <EXTI4_IRQHandler>:
    1a82:	a001                	j	1a82 <EXTI4_IRQHandler>

00001a84 <DMA1_Channel1_IRQHandler>:
    1a84:	a001                	j	1a84 <DMA1_Channel1_IRQHandler>

00001a86 <DMA1_Channel2_IRQHandler>:
    1a86:	a001                	j	1a86 <DMA1_Channel2_IRQHandler>

00001a88 <DMA1_Channel3_IRQHandler>:
    1a88:	a001                	j	1a88 <DMA1_Channel3_IRQHandler>

00001a8a <DMA1_Channel4_IRQHandler>:
    1a8a:	a001                	j	1a8a <DMA1_Channel4_IRQHandler>

00001a8c <DMA1_Channel5_IRQHandler>:
    1a8c:	a001                	j	1a8c <DMA1_Channel5_IRQHandler>

00001a8e <DMA1_Channel6_IRQHandler>:
    1a8e:	a001                	j	1a8e <DMA1_Channel6_IRQHandler>

00001a90 <DMA1_Channel7_IRQHandler>:
    1a90:	a001                	j	1a90 <DMA1_Channel7_IRQHandler>

00001a92 <ADC1_2_IRQHandler>:
    1a92:	a001                	j	1a92 <ADC1_2_IRQHandler>

00001a94 <USB_HP_CAN1_TX_IRQHandler>:
    1a94:	a001                	j	1a94 <USB_HP_CAN1_TX_IRQHandler>

00001a96 <USB_LP_CAN1_RX0_IRQHandler>:
    1a96:	a001                	j	1a96 <USB_LP_CAN1_RX0_IRQHandler>

00001a98 <CAN1_RX1_IRQHandler>:
    1a98:	a001                	j	1a98 <CAN1_RX1_IRQHandler>

00001a9a <CAN1_SCE_IRQHandler>:
    1a9a:	a001                	j	1a9a <CAN1_SCE_IRQHandler>

00001a9c <EXTI9_5_IRQHandler>:
    1a9c:	a001                	j	1a9c <EXTI9_5_IRQHandler>

00001a9e <TIM1_BRK_IRQHandler>:
    1a9e:	a001                	j	1a9e <TIM1_BRK_IRQHandler>

00001aa0 <TIM1_UP_IRQHandler>:
    1aa0:	a001                	j	1aa0 <TIM1_UP_IRQHandler>

00001aa2 <TIM1_TRG_COM_IRQHandler>:
    1aa2:	a001                	j	1aa2 <TIM1_TRG_COM_IRQHandler>

00001aa4 <TIM1_CC_IRQHandler>:
    1aa4:	a001                	j	1aa4 <TIM1_CC_IRQHandler>
    1aa6:	a001                	j	1aa6 <TIM1_CC_IRQHandler+0x2>

00001aa8 <TIM3_IRQHandler>:
    1aa8:	a001                	j	1aa8 <TIM3_IRQHandler>

00001aaa <TIM4_IRQHandler>:
    1aaa:	a001                	j	1aaa <TIM4_IRQHandler>

00001aac <I2C1_EV_IRQHandler>:
    1aac:	a001                	j	1aac <I2C1_EV_IRQHandler>

00001aae <I2C1_ER_IRQHandler>:
    1aae:	a001                	j	1aae <I2C1_ER_IRQHandler>

00001ab0 <I2C2_EV_IRQHandler>:
    1ab0:	a001                	j	1ab0 <I2C2_EV_IRQHandler>

00001ab2 <I2C2_ER_IRQHandler>:
    1ab2:	a001                	j	1ab2 <I2C2_ER_IRQHandler>

00001ab4 <SPI1_IRQHandler>:
    1ab4:	a001                	j	1ab4 <SPI1_IRQHandler>

00001ab6 <SPI2_IRQHandler>:
    1ab6:	a001                	j	1ab6 <SPI2_IRQHandler>

00001ab8 <USART1_IRQHandler>:
    1ab8:	a001                	j	1ab8 <USART1_IRQHandler>

00001aba <USART2_IRQHandler>:
    1aba:	a001                	j	1aba <USART2_IRQHandler>

00001abc <USART3_IRQHandler>:
    1abc:	a001                	j	1abc <USART3_IRQHandler>

00001abe <EXTI15_10_IRQHandler>:
    1abe:	a001                	j	1abe <EXTI15_10_IRQHandler>

00001ac0 <RTCAlarm_IRQHandler>:
    1ac0:	a001                	j	1ac0 <RTCAlarm_IRQHandler>

00001ac2 <USBWakeUp_IRQHandler>:
    1ac2:	a001                	j	1ac2 <USBWakeUp_IRQHandler>

00001ac4 <TIM8_BRK_IRQHandler>:
    1ac4:	a001                	j	1ac4 <TIM8_BRK_IRQHandler>

00001ac6 <TIM8_UP_IRQHandler>:
    1ac6:	a001                	j	1ac6 <TIM8_UP_IRQHandler>

00001ac8 <TIM8_TRG_COM_IRQHandler>:
    1ac8:	a001                	j	1ac8 <TIM8_TRG_COM_IRQHandler>

00001aca <TIM8_CC_IRQHandler>:
    1aca:	a001                	j	1aca <TIM8_CC_IRQHandler>

00001acc <RNG_IRQHandler>:
    1acc:	a001                	j	1acc <RNG_IRQHandler>

00001ace <FSMC_IRQHandler>:
    1ace:	a001                	j	1ace <FSMC_IRQHandler>

00001ad0 <SDIO_IRQHandler>:
    1ad0:	a001                	j	1ad0 <SDIO_IRQHandler>

00001ad2 <TIM5_IRQHandler>:
    1ad2:	a001                	j	1ad2 <TIM5_IRQHandler>

00001ad4 <SPI3_IRQHandler>:
    1ad4:	a001                	j	1ad4 <SPI3_IRQHandler>

00001ad6 <UART4_IRQHandler>:
    1ad6:	a001                	j	1ad6 <UART4_IRQHandler>

00001ad8 <UART5_IRQHandler>:
    1ad8:	a001                	j	1ad8 <UART5_IRQHandler>
    1ada:	a001                	j	1ada <UART5_IRQHandler+0x2>
    1adc:	a001                	j	1adc <UART5_IRQHandler+0x4>

00001ade <DMA2_Channel1_IRQHandler>:
    1ade:	a001                	j	1ade <DMA2_Channel1_IRQHandler>

00001ae0 <DMA2_Channel2_IRQHandler>:
    1ae0:	a001                	j	1ae0 <DMA2_Channel2_IRQHandler>

00001ae2 <DMA2_Channel3_IRQHandler>:
    1ae2:	a001                	j	1ae2 <DMA2_Channel3_IRQHandler>

00001ae4 <DMA2_Channel4_IRQHandler>:
    1ae4:	a001                	j	1ae4 <DMA2_Channel4_IRQHandler>

00001ae6 <DMA2_Channel5_IRQHandler>:
    1ae6:	a001                	j	1ae6 <DMA2_Channel5_IRQHandler>

00001ae8 <ETH_IRQHandler>:
    1ae8:	a001                	j	1ae8 <ETH_IRQHandler>

00001aea <ETH_WKUP_IRQHandler>:
    1aea:	a001                	j	1aea <ETH_WKUP_IRQHandler>

00001aec <CAN2_TX_IRQHandler>:
    1aec:	a001                	j	1aec <CAN2_TX_IRQHandler>

00001aee <CAN2_RX0_IRQHandler>:
    1aee:	a001                	j	1aee <CAN2_RX0_IRQHandler>

00001af0 <CAN2_RX1_IRQHandler>:
    1af0:	a001                	j	1af0 <CAN2_RX1_IRQHandler>

00001af2 <CAN2_SCE_IRQHandler>:
    1af2:	a001                	j	1af2 <CAN2_SCE_IRQHandler>

00001af4 <OTG_FS_IRQHandler>:
    1af4:	a001                	j	1af4 <OTG_FS_IRQHandler>

00001af6 <USBHSWakeup_IRQHandler>:
    1af6:	a001                	j	1af6 <USBHSWakeup_IRQHandler>

00001af8 <USBHS_IRQHandler>:
    1af8:	a001                	j	1af8 <USBHS_IRQHandler>
    1afa:	a001                	j	1afa <USBHS_IRQHandler+0x2>

00001afc <UART6_IRQHandler>:
    1afc:	a001                	j	1afc <UART6_IRQHandler>

00001afe <UART7_IRQHandler>:
    1afe:	a001                	j	1afe <UART7_IRQHandler>

00001b00 <UART8_IRQHandler>:
    1b00:	a001                	j	1b00 <UART8_IRQHandler>

00001b02 <TIM9_BRK_IRQHandler>:
    1b02:	a001                	j	1b02 <TIM9_BRK_IRQHandler>

00001b04 <TIM9_UP_IRQHandler>:
    1b04:	a001                	j	1b04 <TIM9_UP_IRQHandler>

00001b06 <TIM9_TRG_COM_IRQHandler>:
    1b06:	a001                	j	1b06 <TIM9_TRG_COM_IRQHandler>

00001b08 <TIM9_CC_IRQHandler>:
    1b08:	a001                	j	1b08 <TIM9_CC_IRQHandler>

00001b0a <TIM10_BRK_IRQHandler>:
    1b0a:	a001                	j	1b0a <TIM10_BRK_IRQHandler>

00001b0c <TIM10_UP_IRQHandler>:
    1b0c:	a001                	j	1b0c <TIM10_UP_IRQHandler>

00001b0e <TIM10_TRG_COM_IRQHandler>:
    1b0e:	a001                	j	1b0e <TIM10_TRG_COM_IRQHandler>

00001b10 <TIM10_CC_IRQHandler>:
    1b10:	a001                	j	1b10 <TIM10_CC_IRQHandler>

00001b12 <DMA2_Channel6_IRQHandler>:
    1b12:	a001                	j	1b12 <DMA2_Channel6_IRQHandler>

00001b14 <DMA2_Channel7_IRQHandler>:
    1b14:	a001                	j	1b14 <DMA2_Channel7_IRQHandler>

00001b16 <DMA2_Channel8_IRQHandler>:
    1b16:	a001                	j	1b16 <DMA2_Channel8_IRQHandler>

00001b18 <DMA2_Channel9_IRQHandler>:
    1b18:	a001                	j	1b18 <DMA2_Channel9_IRQHandler>

00001b1a <DMA2_Channel10_IRQHandler>:
    1b1a:	a001                	j	1b1a <DMA2_Channel10_IRQHandler>

00001b1c <DMA2_Channel11_IRQHandler>:
    1b1c:	a001                	j	1b1c <DMA2_Channel11_IRQHandler>

00001b1e <handle_reset>:
    1b1e:	1ffff197          	auipc	gp,0x1ffff
    1b22:	d5218193          	addi	gp,gp,-686 # 20000870 <__global_pointer$>
    1b26:	20006117          	auipc	sp,0x20006
    1b2a:	4da10113          	addi	sp,sp,1242 # 20008000 <_eusrstack>
    1b2e:	00007517          	auipc	a0,0x7
    1b32:	82650513          	addi	a0,a0,-2010 # 8354 <_data_lma>
    1b36:	1fffe597          	auipc	a1,0x1fffe
    1b3a:	4ca58593          	addi	a1,a1,1226 # 20000000 <_data_vma>
    1b3e:	82818613          	addi	a2,gp,-2008 # 20000098 <_edata>
    1b42:	00c5fa63          	bgeu	a1,a2,1b56 <handle_reset+0x38>
    1b46:	00052283          	lw	t0,0(a0)
    1b4a:	0055a023          	sw	t0,0(a1)
    1b4e:	0511                	addi	a0,a0,4
    1b50:	0591                	addi	a1,a1,4
    1b52:	fec5eae3          	bltu	a1,a2,1b46 <handle_reset+0x28>
    1b56:	82818513          	addi	a0,gp,-2008 # 20000098 <_edata>
    1b5a:	ca418593          	addi	a1,gp,-860 # 20000514 <_ebss>
    1b5e:	00b57763          	bgeu	a0,a1,1b6c <handle_reset+0x4e>
    1b62:	00052023          	sw	zero,0(a0)
    1b66:	0511                	addi	a0,a0,4
    1b68:	feb56de3          	bltu	a0,a1,1b62 <handle_reset+0x44>
    1b6c:	42fd                	li	t0,31
    1b6e:	bc029073          	csrw	0xbc0,t0
    1b72:	42fd                	li	t0,31
    1b74:	80429073          	csrw	0x804,t0
    1b78:	000062b7          	lui	t0,0x6
    1b7c:	08828293          	addi	t0,t0,136 # 6088 <asc2_2412+0x94c>
    1b80:	3002a073          	csrs	mstatus,t0
    1b84:	ffffe297          	auipc	t0,0xffffe
    1b88:	4b428293          	addi	t0,t0,1204 # 38 <_einit>
    1b8c:	0032e293          	ori	t0,t0,3
    1b90:	30529073          	csrw	mtvec,t0
    1b94:	a8fff0ef          	jal	ra,1622 <SystemInit>
    1b98:	00000297          	auipc	t0,0x0
    1b9c:	8ce28293          	addi	t0,t0,-1842 # 1466 <main>
    1ba0:	34129073          	csrw	mepc,t0
    1ba4:	30200073          	mret

00001ba8 <DMA_DeInit>:
    1ba8:	411c                	lw	a5,0(a0)
    1baa:	6741                	lui	a4,0x10
    1bac:	1779                	addi	a4,a4,-2
    1bae:	8ff9                	and	a5,a5,a4
    1bb0:	c11c                	sw	a5,0(a0)
    1bb2:	00052023          	sw	zero,0(a0)
    1bb6:	00052223          	sw	zero,4(a0)
    1bba:	00052423          	sw	zero,8(a0)
    1bbe:	400207b7          	lui	a5,0x40020
    1bc2:	00052623          	sw	zero,12(a0)
    1bc6:	00878713          	addi	a4,a5,8 # 40020008 <_eusrstack+0x20018008>
    1bca:	00e51763          	bne	a0,a4,1bd8 <DMA_DeInit+0x30>
    1bce:	43d8                	lw	a4,4(a5)
    1bd0:	00f76713          	ori	a4,a4,15
    1bd4:	c3d8                	sw	a4,4(a5)
    1bd6:	8082                	ret
    1bd8:	01c78713          	addi	a4,a5,28
    1bdc:	00e51663          	bne	a0,a4,1be8 <DMA_DeInit+0x40>
    1be0:	43d8                	lw	a4,4(a5)
    1be2:	0f076713          	ori	a4,a4,240
    1be6:	b7fd                	j	1bd4 <DMA_DeInit+0x2c>
    1be8:	03078713          	addi	a4,a5,48
    1bec:	00e51863          	bne	a0,a4,1bfc <DMA_DeInit+0x54>
    1bf0:	43d8                	lw	a4,4(a5)
    1bf2:	6685                	lui	a3,0x1
    1bf4:	f0068693          	addi	a3,a3,-256 # f00 <LCD_ShowChar+0x27c>
    1bf8:	8f55                	or	a4,a4,a3
    1bfa:	bfe9                	j	1bd4 <DMA_DeInit+0x2c>
    1bfc:	04478713          	addi	a4,a5,68
    1c00:	00e51563          	bne	a0,a4,1c0a <DMA_DeInit+0x62>
    1c04:	43d8                	lw	a4,4(a5)
    1c06:	66bd                	lui	a3,0xf
    1c08:	bfc5                	j	1bf8 <DMA_DeInit+0x50>
    1c0a:	05878713          	addi	a4,a5,88
    1c0e:	00e51663          	bne	a0,a4,1c1a <DMA_DeInit+0x72>
    1c12:	43d8                	lw	a4,4(a5)
    1c14:	000f06b7          	lui	a3,0xf0
    1c18:	b7c5                	j	1bf8 <DMA_DeInit+0x50>
    1c1a:	06c78713          	addi	a4,a5,108
    1c1e:	00e51663          	bne	a0,a4,1c2a <DMA_DeInit+0x82>
    1c22:	43d8                	lw	a4,4(a5)
    1c24:	00f006b7          	lui	a3,0xf00
    1c28:	bfc1                	j	1bf8 <DMA_DeInit+0x50>
    1c2a:	08078713          	addi	a4,a5,128
    1c2e:	00e51663          	bne	a0,a4,1c3a <DMA_DeInit+0x92>
    1c32:	43d8                	lw	a4,4(a5)
    1c34:	0f0006b7          	lui	a3,0xf000
    1c38:	b7c1                	j	1bf8 <DMA_DeInit+0x50>
    1c3a:	40878713          	addi	a4,a5,1032
    1c3e:	00e51963          	bne	a0,a4,1c50 <DMA_DeInit+0xa8>
    1c42:	4047a703          	lw	a4,1028(a5)
    1c46:	00f76713          	ori	a4,a4,15
    1c4a:	40e7a223          	sw	a4,1028(a5)
    1c4e:	8082                	ret
    1c50:	41c78713          	addi	a4,a5,1052
    1c54:	00e51763          	bne	a0,a4,1c62 <DMA_DeInit+0xba>
    1c58:	4047a703          	lw	a4,1028(a5)
    1c5c:	0f076713          	ori	a4,a4,240
    1c60:	b7ed                	j	1c4a <DMA_DeInit+0xa2>
    1c62:	43078793          	addi	a5,a5,1072
    1c66:	00f51b63          	bne	a0,a5,1c7c <DMA_DeInit+0xd4>
    1c6a:	400207b7          	lui	a5,0x40020
    1c6e:	4047a703          	lw	a4,1028(a5) # 40020404 <_eusrstack+0x20018404>
    1c72:	6685                	lui	a3,0x1
    1c74:	f0068693          	addi	a3,a3,-256 # f00 <LCD_ShowChar+0x27c>
    1c78:	8f55                	or	a4,a4,a3
    1c7a:	bfc1                	j	1c4a <DMA_DeInit+0xa2>
    1c7c:	400207b7          	lui	a5,0x40020
    1c80:	44478713          	addi	a4,a5,1092 # 40020444 <_eusrstack+0x20018444>
    1c84:	00e51663          	bne	a0,a4,1c90 <DMA_DeInit+0xe8>
    1c88:	4047a703          	lw	a4,1028(a5)
    1c8c:	66bd                	lui	a3,0xf
    1c8e:	b7ed                	j	1c78 <DMA_DeInit+0xd0>
    1c90:	45878713          	addi	a4,a5,1112
    1c94:	00e51763          	bne	a0,a4,1ca2 <DMA_DeInit+0xfa>
    1c98:	4047a703          	lw	a4,1028(a5)
    1c9c:	000f06b7          	lui	a3,0xf0
    1ca0:	bfe1                	j	1c78 <DMA_DeInit+0xd0>
    1ca2:	46c78713          	addi	a4,a5,1132
    1ca6:	00e51763          	bne	a0,a4,1cb4 <DMA_DeInit+0x10c>
    1caa:	4047a703          	lw	a4,1028(a5)
    1cae:	00f006b7          	lui	a3,0xf00
    1cb2:	b7d9                	j	1c78 <DMA_DeInit+0xd0>
    1cb4:	48078713          	addi	a4,a5,1152
    1cb8:	00e51763          	bne	a0,a4,1cc6 <DMA_DeInit+0x11e>
    1cbc:	4047a703          	lw	a4,1028(a5)
    1cc0:	0f0006b7          	lui	a3,0xf000
    1cc4:	bf55                	j	1c78 <DMA_DeInit+0xd0>
    1cc6:	49078713          	addi	a4,a5,1168
    1cca:	00e51963          	bne	a0,a4,1cdc <DMA_DeInit+0x134>
    1cce:	4d47a703          	lw	a4,1236(a5)
    1cd2:	00f76713          	ori	a4,a4,15
    1cd6:	4ce7aa23          	sw	a4,1236(a5)
    1cda:	8082                	ret
    1cdc:	4a078713          	addi	a4,a5,1184
    1ce0:	00e51763          	bne	a0,a4,1cee <DMA_DeInit+0x146>
    1ce4:	4d47a703          	lw	a4,1236(a5)
    1ce8:	0f076713          	ori	a4,a4,240
    1cec:	b7ed                	j	1cd6 <DMA_DeInit+0x12e>
    1cee:	4b078713          	addi	a4,a5,1200
    1cf2:	00e51963          	bne	a0,a4,1d04 <DMA_DeInit+0x15c>
    1cf6:	4d47a703          	lw	a4,1236(a5)
    1cfa:	6685                	lui	a3,0x1
    1cfc:	f0068693          	addi	a3,a3,-256 # f00 <LCD_ShowChar+0x27c>
    1d00:	8f55                	or	a4,a4,a3
    1d02:	bfd1                	j	1cd6 <DMA_DeInit+0x12e>
    1d04:	4c078713          	addi	a4,a5,1216
    1d08:	fce519e3          	bne	a0,a4,1cda <DMA_DeInit+0x132>
    1d0c:	4d47a703          	lw	a4,1236(a5)
    1d10:	66bd                	lui	a3,0xf
    1d12:	b7fd                	j	1d00 <DMA_DeInit+0x158>

00001d14 <DMA_Init>:
    1d14:	411c                	lw	a5,0(a0)
    1d16:	7761                	lui	a4,0xffff8
    1d18:	073d                	addi	a4,a4,15
    1d1a:	5194                	lw	a3,32(a1)
    1d1c:	8f7d                	and	a4,a4,a5
    1d1e:	459c                	lw	a5,8(a1)
    1d20:	8fd5                	or	a5,a5,a3
    1d22:	4994                	lw	a3,16(a1)
    1d24:	8fd5                	or	a5,a5,a3
    1d26:	49d4                	lw	a3,20(a1)
    1d28:	8fd5                	or	a5,a5,a3
    1d2a:	4d94                	lw	a3,24(a1)
    1d2c:	8fd5                	or	a5,a5,a3
    1d2e:	4dd4                	lw	a3,28(a1)
    1d30:	8fd5                	or	a5,a5,a3
    1d32:	51d4                	lw	a3,36(a1)
    1d34:	8fd5                	or	a5,a5,a3
    1d36:	5594                	lw	a3,40(a1)
    1d38:	8fd5                	or	a5,a5,a3
    1d3a:	8fd9                	or	a5,a5,a4
    1d3c:	c11c                	sw	a5,0(a0)
    1d3e:	45dc                	lw	a5,12(a1)
    1d40:	c15c                	sw	a5,4(a0)
    1d42:	419c                	lw	a5,0(a1)
    1d44:	c51c                	sw	a5,8(a0)
    1d46:	41dc                	lw	a5,4(a1)
    1d48:	c55c                	sw	a5,12(a0)
    1d4a:	8082                	ret

00001d4c <DMA_Cmd>:
    1d4c:	411c                	lw	a5,0(a0)
    1d4e:	c589                	beqz	a1,1d58 <DMA_Cmd+0xc>
    1d50:	0017e793          	ori	a5,a5,1
    1d54:	c11c                	sw	a5,0(a0)
    1d56:	8082                	ret
    1d58:	6741                	lui	a4,0x10
    1d5a:	1779                	addi	a4,a4,-2
    1d5c:	8ff9                	and	a5,a5,a4
    1d5e:	bfdd                	j	1d54 <DMA_Cmd+0x8>

00001d60 <DMA_SetCurrDataCounter>:
    1d60:	c14c                	sw	a1,4(a0)
    1d62:	8082                	ret

00001d64 <DMA_GetCurrDataCounter>:
    1d64:	4148                	lw	a0,4(a0)
    1d66:	0542                	slli	a0,a0,0x10
    1d68:	8141                	srli	a0,a0,0x10
    1d6a:	8082                	ret

00001d6c <DMA_ClearFlag>:
    1d6c:	00351793          	slli	a5,a0,0x3
    1d70:	0007d763          	bgez	a5,1d7e <DMA_ClearFlag+0x12>
    1d74:	400207b7          	lui	a5,0x40020
    1d78:	40a7a223          	sw	a0,1028(a5) # 40020404 <_eusrstack+0x20018404>
    1d7c:	8082                	ret
    1d7e:	00251793          	slli	a5,a0,0x2
    1d82:	0007d763          	bgez	a5,1d90 <DMA_ClearFlag+0x24>
    1d86:	400207b7          	lui	a5,0x40020
    1d8a:	4ca7aa23          	sw	a0,1236(a5) # 400204d4 <_eusrstack+0x200184d4>
    1d8e:	8082                	ret
    1d90:	400207b7          	lui	a5,0x40020
    1d94:	c3c8                	sw	a0,4(a5)
    1d96:	8082                	ret

00001d98 <EXTI_Init>:
    1d98:	4158                	lw	a4,4(a0)
    1d9a:	00052803          	lw	a6,0(a0)
    1d9e:	454c                	lw	a1,12(a0)
    1da0:	40010637          	lui	a2,0x40010
    1da4:	40060793          	addi	a5,a2,1024 # 40010400 <_eusrstack+0x20008400>
    1da8:	973e                	add	a4,a4,a5
    1daa:	fff84693          	not	a3,a6
    1dae:	c5b1                	beqz	a1,1dfa <EXTI_Init+0x62>
    1db0:	40062583          	lw	a1,1024(a2)
    1db4:	8df5                	and	a1,a1,a3
    1db6:	40b62023          	sw	a1,1024(a2)
    1dba:	43d0                	lw	a2,4(a5)
    1dbc:	8ef1                	and	a3,a3,a2
    1dbe:	c3d4                	sw	a3,4(a5)
    1dc0:	4314                	lw	a3,0(a4)
    1dc2:	0106e6b3          	or	a3,a3,a6
    1dc6:	c314                	sw	a3,0(a4)
    1dc8:	4118                	lw	a4,0(a0)
    1dca:	4790                	lw	a2,8(a5)
    1dcc:	fff74693          	not	a3,a4
    1dd0:	8e75                	and	a2,a2,a3
    1dd2:	c790                	sw	a2,8(a5)
    1dd4:	47d0                	lw	a2,12(a5)
    1dd6:	8ef1                	and	a3,a3,a2
    1dd8:	c7d4                	sw	a3,12(a5)
    1dda:	4514                	lw	a3,8(a0)
    1ddc:	4641                	li	a2,16
    1dde:	00c69963          	bne	a3,a2,1df0 <EXTI_Init+0x58>
    1de2:	4794                	lw	a3,8(a5)
    1de4:	8ed9                	or	a3,a3,a4
    1de6:	c794                	sw	a3,8(a5)
    1de8:	47d4                	lw	a3,12(a5)
    1dea:	8f55                	or	a4,a4,a3
    1dec:	c7d8                	sw	a4,12(a5)
    1dee:	8082                	ret
    1df0:	97b6                	add	a5,a5,a3
    1df2:	4394                	lw	a3,0(a5)
    1df4:	8f55                	or	a4,a4,a3
    1df6:	c398                	sw	a4,0(a5)
    1df8:	8082                	ret
    1dfa:	431c                	lw	a5,0(a4)
    1dfc:	8ff5                	and	a5,a5,a3
    1dfe:	c31c                	sw	a5,0(a4)
    1e00:	8082                	ret

00001e02 <EXTI_ClearFlag>:
    1e02:	400107b7          	lui	a5,0x40010
    1e06:	40a7aa23          	sw	a0,1044(a5) # 40010414 <_eusrstack+0x20008414>
    1e0a:	8082                	ret

00001e0c <FSMC_NORSRAMInit>:
    1e0c:	4514                	lw	a3,8(a0)
    1e0e:	415c                	lw	a5,4(a0)
    1e10:	4558                	lw	a4,12(a0)
    1e12:	02c52803          	lw	a6,44(a0)
    1e16:	8fd5                	or	a5,a5,a3
    1e18:	8fd9                	or	a5,a5,a4
    1e1a:	4918                	lw	a4,16(a0)
    1e1c:	a0000637          	lui	a2,0xa0000
    1e20:	8fd9                	or	a5,a5,a4
    1e22:	4958                	lw	a4,20(a0)
    1e24:	8fd9                	or	a5,a5,a4
    1e26:	4d18                	lw	a4,24(a0)
    1e28:	8fd9                	or	a5,a5,a4
    1e2a:	4d58                	lw	a4,28(a0)
    1e2c:	8fd9                	or	a5,a5,a4
    1e2e:	5118                	lw	a4,32(a0)
    1e30:	8fd9                	or	a5,a5,a4
    1e32:	5158                	lw	a4,36(a0)
    1e34:	8fd9                	or	a5,a5,a4
    1e36:	5518                	lw	a4,40(a0)
    1e38:	8fd9                	or	a5,a5,a4
    1e3a:	5918                	lw	a4,48(a0)
    1e3c:	0107e7b3          	or	a5,a5,a6
    1e40:	8fd9                	or	a5,a5,a4
    1e42:	4118                	lw	a4,0(a0)
    1e44:	070a                	slli	a4,a4,0x2
    1e46:	963a                	add	a2,a2,a4
    1e48:	c21c                	sw	a5,0(a2)
    1e4a:	47a1                	li	a5,8
    1e4c:	00f69663          	bne	a3,a5,1e58 <FSMC_NORSRAMInit+0x4c>
    1e50:	421c                	lw	a5,0(a2)
    1e52:	0407e793          	ori	a5,a5,64
    1e56:	c21c                	sw	a5,0(a2)
    1e58:	5954                	lw	a3,52(a0)
    1e5a:	4e8c                	lw	a1,24(a3)
    1e5c:	429c                	lw	a5,0(a3)
    1e5e:	8fcd                	or	a5,a5,a1
    1e60:	42cc                	lw	a1,4(a3)
    1e62:	0592                	slli	a1,a1,0x4
    1e64:	8fcd                	or	a5,a5,a1
    1e66:	468c                	lw	a1,8(a3)
    1e68:	05a2                	slli	a1,a1,0x8
    1e6a:	8fcd                	or	a5,a5,a1
    1e6c:	46cc                	lw	a1,12(a3)
    1e6e:	05c2                	slli	a1,a1,0x10
    1e70:	8fcd                	or	a5,a5,a1
    1e72:	4a8c                	lw	a1,16(a3)
    1e74:	4ad4                	lw	a3,20(a3)
    1e76:	05d2                	slli	a1,a1,0x14
    1e78:	8fcd                	or	a5,a5,a1
    1e7a:	06e2                	slli	a3,a3,0x18
    1e7c:	8fd5                	or	a5,a5,a3
    1e7e:	c25c                	sw	a5,4(a2)
    1e80:	6791                	lui	a5,0x4
    1e82:	02f81963          	bne	a6,a5,1eb4 <FSMC_NORSRAMInit+0xa8>
    1e86:	5d14                	lw	a3,56(a0)
    1e88:	4e90                	lw	a2,24(a3)
    1e8a:	429c                	lw	a5,0(a3)
    1e8c:	8fd1                	or	a5,a5,a2
    1e8e:	42d0                	lw	a2,4(a3)
    1e90:	0612                	slli	a2,a2,0x4
    1e92:	8fd1                	or	a5,a5,a2
    1e94:	4690                	lw	a2,8(a3)
    1e96:	0622                	slli	a2,a2,0x8
    1e98:	8fd1                	or	a5,a5,a2
    1e9a:	4a90                	lw	a2,16(a3)
    1e9c:	4ad4                	lw	a3,20(a3)
    1e9e:	0652                	slli	a2,a2,0x14
    1ea0:	06e2                	slli	a3,a3,0x18
    1ea2:	8fd1                	or	a5,a5,a2
    1ea4:	8fd5                	or	a5,a5,a3
    1ea6:	a00006b7          	lui	a3,0xa0000
    1eaa:	10468693          	addi	a3,a3,260 # a0000104 <_eusrstack+0x7fff8104>
    1eae:	9736                	add	a4,a4,a3
    1eb0:	c31c                	sw	a5,0(a4)
    1eb2:	8082                	ret
    1eb4:	a00007b7          	lui	a5,0xa0000
    1eb8:	10478793          	addi	a5,a5,260 # a0000104 <_eusrstack+0x7fff8104>
    1ebc:	973e                	add	a4,a4,a5
    1ebe:	100007b7          	lui	a5,0x10000
    1ec2:	17fd                	addi	a5,a5,-1
    1ec4:	b7f5                	j	1eb0 <FSMC_NORSRAMInit+0xa4>

00001ec6 <FSMC_NORSRAMCmd>:
    1ec6:	a00007b7          	lui	a5,0xa0000
    1eca:	050a                	slli	a0,a0,0x2
    1ecc:	953e                	add	a0,a0,a5
    1ece:	411c                	lw	a5,0(a0)
    1ed0:	c589                	beqz	a1,1eda <FSMC_NORSRAMCmd+0x14>
    1ed2:	0017e793          	ori	a5,a5,1
    1ed6:	c11c                	sw	a5,0(a0)
    1ed8:	8082                	ret
    1eda:	00100737          	lui	a4,0x100
    1ede:	1779                	addi	a4,a4,-2
    1ee0:	8ff9                	and	a5,a5,a4
    1ee2:	bfd5                	j	1ed6 <FSMC_NORSRAMCmd+0x10>

00001ee4 <GPIO_Init>:
    1ee4:	459c                	lw	a5,8(a1)
    1ee6:	0107f713          	andi	a4,a5,16
    1eea:	00f7f813          	andi	a6,a5,15
    1eee:	c701                	beqz	a4,1ef6 <GPIO_Init+0x12>
    1ef0:	41d8                	lw	a4,4(a1)
    1ef2:	00e86833          	or	a6,a6,a4
    1ef6:	0005d583          	lhu	a1,0(a1)
    1efa:	0ff5f713          	andi	a4,a1,255
    1efe:	c339                	beqz	a4,1f44 <GPIO_Init+0x60>
    1f00:	4118                	lw	a4,0(a0)
    1f02:	4681                	li	a3,0
    1f04:	4e85                	li	t4,1
    1f06:	4f3d                	li	t5,15
    1f08:	02800f93          	li	t6,40
    1f0c:	04800293          	li	t0,72
    1f10:	4e21                	li	t3,8
    1f12:	00de9633          	sll	a2,t4,a3
    1f16:	00c5f8b3          	and	a7,a1,a2
    1f1a:	03161163          	bne	a2,a7,1f3c <GPIO_Init+0x58>
    1f1e:	00269893          	slli	a7,a3,0x2
    1f22:	011f1333          	sll	t1,t5,a7
    1f26:	fff34313          	not	t1,t1
    1f2a:	00e37733          	and	a4,t1,a4
    1f2e:	011818b3          	sll	a7,a6,a7
    1f32:	00e8e733          	or	a4,a7,a4
    1f36:	05f79f63          	bne	a5,t6,1f94 <GPIO_Init+0xb0>
    1f3a:	c950                	sw	a2,20(a0)
    1f3c:	0685                	addi	a3,a3,1
    1f3e:	fdc69ae3          	bne	a3,t3,1f12 <GPIO_Init+0x2e>
    1f42:	c118                	sw	a4,0(a0)
    1f44:	0ff00713          	li	a4,255
    1f48:	04b77563          	bgeu	a4,a1,1f92 <GPIO_Init+0xae>
    1f4c:	4154                	lw	a3,4(a0)
    1f4e:	4621                	li	a2,8
    1f50:	4e85                	li	t4,1
    1f52:	4f3d                	li	t5,15
    1f54:	02800f93          	li	t6,40
    1f58:	04800293          	li	t0,72
    1f5c:	4e41                	li	t3,16
    1f5e:	00ce98b3          	sll	a7,t4,a2
    1f62:	0115f733          	and	a4,a1,a7
    1f66:	02e89263          	bne	a7,a4,1f8a <GPIO_Init+0xa6>
    1f6a:	00261713          	slli	a4,a2,0x2
    1f6e:	1701                	addi	a4,a4,-32
    1f70:	00ef1333          	sll	t1,t5,a4
    1f74:	fff34313          	not	t1,t1
    1f78:	00d376b3          	and	a3,t1,a3
    1f7c:	00e81733          	sll	a4,a6,a4
    1f80:	8ed9                	or	a3,a3,a4
    1f82:	01f79d63          	bne	a5,t6,1f9c <GPIO_Init+0xb8>
    1f86:	01152a23          	sw	a7,20(a0)
    1f8a:	0605                	addi	a2,a2,1
    1f8c:	fdc619e3          	bne	a2,t3,1f5e <GPIO_Init+0x7a>
    1f90:	c154                	sw	a3,4(a0)
    1f92:	8082                	ret
    1f94:	fa5794e3          	bne	a5,t0,1f3c <GPIO_Init+0x58>
    1f98:	c910                	sw	a2,16(a0)
    1f9a:	b74d                	j	1f3c <GPIO_Init+0x58>
    1f9c:	fe5797e3          	bne	a5,t0,1f8a <GPIO_Init+0xa6>
    1fa0:	01152823          	sw	a7,16(a0)
    1fa4:	b7dd                	j	1f8a <GPIO_Init+0xa6>

00001fa6 <GPIO_ReadInputDataBit>:
    1fa6:	4508                	lw	a0,8(a0)
    1fa8:	8d6d                	and	a0,a0,a1
    1faa:	00a03533          	snez	a0,a0
    1fae:	8082                	ret

00001fb0 <GPIO_SetBits>:
    1fb0:	c90c                	sw	a1,16(a0)
    1fb2:	8082                	ret

00001fb4 <GPIO_ResetBits>:
    1fb4:	c94c                	sw	a1,20(a0)
    1fb6:	8082                	ret

00001fb8 <GPIO_WriteBit>:
    1fb8:	c219                	beqz	a2,1fbe <GPIO_WriteBit+0x6>
    1fba:	c90c                	sw	a1,16(a0)
    1fbc:	8082                	ret
    1fbe:	c94c                	sw	a1,20(a0)
    1fc0:	8082                	ret

00001fc2 <GPIO_EXTILineConfig>:
    1fc2:	0fc5f713          	andi	a4,a1,252
    1fc6:	0035f793          	andi	a5,a1,3
    1fca:	400105b7          	lui	a1,0x40010
    1fce:	95ba                	add	a1,a1,a4
    1fd0:	4594                	lw	a3,8(a1)
    1fd2:	078a                	slli	a5,a5,0x2
    1fd4:	473d                	li	a4,15
    1fd6:	00f71733          	sll	a4,a4,a5
    1fda:	fff74713          	not	a4,a4
    1fde:	8f75                	and	a4,a4,a3
    1fe0:	c598                	sw	a4,8(a1)
    1fe2:	4598                	lw	a4,8(a1)
    1fe4:	00f51533          	sll	a0,a0,a5
    1fe8:	8d59                	or	a0,a0,a4
    1fea:	c588                	sw	a0,8(a1)
    1fec:	8082                	ret

00001fee <I2C_Init>:
    1fee:	7139                	addi	sp,sp,-64
    1ff0:	dc22                	sw	s0,56(sp)
    1ff2:	da26                	sw	s1,52(sp)
    1ff4:	842a                	mv	s0,a0
    1ff6:	00455483          	lhu	s1,4(a0)
    1ffa:	0868                	addi	a0,sp,28
    1ffc:	c62e                	sw	a1,12(sp)
    1ffe:	de06                	sw	ra,60(sp)
    2000:	2475                	jal	22ac <RCC_GetClocksFreq>
    2002:	5792                	lw	a5,36(sp)
    2004:	000f4737          	lui	a4,0xf4
    2008:	24070713          	addi	a4,a4,576 # f4240 <_data_lma+0xebeec>
    200c:	02e7d733          	divu	a4,a5,a4
    2010:	04c2                	slli	s1,s1,0x10
    2012:	80c1                	srli	s1,s1,0x10
    2014:	fc04f493          	andi	s1,s1,-64
    2018:	04c2                	slli	s1,s1,0x10
    201a:	80c1                	srli	s1,s1,0x10
    201c:	45b2                	lw	a1,12(sp)
    201e:	6561                	lui	a0,0x18
    2020:	6a050513          	addi	a0,a0,1696 # 186a0 <_data_lma+0x1034c>
    2024:	01071613          	slli	a2,a4,0x10
    2028:	8241                	srli	a2,a2,0x10
    202a:	8cd1                	or	s1,s1,a2
    202c:	00941223          	sh	s1,4(s0)
    2030:	00045683          	lhu	a3,0(s0)
    2034:	06c2                	slli	a3,a3,0x10
    2036:	82c1                	srli	a3,a3,0x10
    2038:	9af9                	andi	a3,a3,-2
    203a:	06c2                	slli	a3,a3,0x10
    203c:	82c1                	srli	a3,a3,0x10
    203e:	00d41023          	sh	a3,0(s0)
    2042:	4194                	lw	a3,0(a1)
    2044:	06d56663          	bltu	a0,a3,20b0 <I2C_Init+0xc2>
    2048:	0686                	slli	a3,a3,0x1
    204a:	02d7d7b3          	divu	a5,a5,a3
    204e:	4691                	li	a3,4
    2050:	01079713          	slli	a4,a5,0x10
    2054:	8341                	srli	a4,a4,0x10
    2056:	87ba                	mv	a5,a4
    2058:	00d77363          	bgeu	a4,a3,205e <I2C_Init+0x70>
    205c:	4791                	li	a5,4
    205e:	0605                	addi	a2,a2,1
    2060:	0642                	slli	a2,a2,0x10
    2062:	07c2                	slli	a5,a5,0x10
    2064:	8241                	srli	a2,a2,0x10
    2066:	83c1                	srli	a5,a5,0x10
    2068:	02c41023          	sh	a2,32(s0)
    206c:	00f41e23          	sh	a5,28(s0)
    2070:	00045783          	lhu	a5,0(s0)
    2074:	0045d703          	lhu	a4,4(a1) # 40010004 <_eusrstack+0x20008004>
    2078:	00a5d683          	lhu	a3,10(a1)
    207c:	0017e793          	ori	a5,a5,1
    2080:	00f41023          	sh	a5,0(s0)
    2084:	00045783          	lhu	a5,0(s0)
    2088:	8f55                	or	a4,a4,a3
    208a:	50f2                	lw	ra,60(sp)
    208c:	07c2                	slli	a5,a5,0x10
    208e:	83c1                	srli	a5,a5,0x10
    2090:	bf57f793          	andi	a5,a5,-1035
    2094:	8fd9                	or	a5,a5,a4
    2096:	00f41023          	sh	a5,0(s0)
    209a:	0085d703          	lhu	a4,8(a1)
    209e:	00c5d783          	lhu	a5,12(a1)
    20a2:	54d2                	lw	s1,52(sp)
    20a4:	8fd9                	or	a5,a5,a4
    20a6:	00f41423          	sh	a5,8(s0)
    20aa:	5462                	lw	s0,56(sp)
    20ac:	6121                	addi	sp,sp,64
    20ae:	8082                	ret
    20b0:	0065d503          	lhu	a0,6(a1)
    20b4:	6631                	lui	a2,0xc
    20b6:	167d                	addi	a2,a2,-1
    20b8:	02c51e63          	bne	a0,a2,20f4 <I2C_Init+0x106>
    20bc:	460d                	li	a2,3
    20be:	02c686b3          	mul	a3,a3,a2
    20c2:	02d7d7b3          	divu	a5,a5,a3
    20c6:	07c2                	slli	a5,a5,0x10
    20c8:	83c1                	srli	a5,a5,0x10
    20ca:	01479693          	slli	a3,a5,0x14
    20ce:	e299                	bnez	a3,20d4 <I2C_Init+0xe6>
    20d0:	0017e793          	ori	a5,a5,1
    20d4:	66a1                	lui	a3,0x8
    20d6:	8fd5                	or	a5,a5,a3
    20d8:	12c00693          	li	a3,300
    20dc:	02d70733          	mul	a4,a4,a3
    20e0:	3e800693          	li	a3,1000
    20e4:	02d74733          	div	a4,a4,a3
    20e8:	0705                	addi	a4,a4,1
    20ea:	0742                	slli	a4,a4,0x10
    20ec:	8341                	srli	a4,a4,0x10
    20ee:	02e41023          	sh	a4,32(s0)
    20f2:	bfad                	j	206c <I2C_Init+0x7e>
    20f4:	4665                	li	a2,25
    20f6:	02c686b3          	mul	a3,a3,a2
    20fa:	02d7d7b3          	divu	a5,a5,a3
    20fe:	6691                	lui	a3,0x4
    2100:	07c2                	slli	a5,a5,0x10
    2102:	83c1                	srli	a5,a5,0x10
    2104:	8fd5                	or	a5,a5,a3
    2106:	b7d1                	j	20ca <I2C_Init+0xdc>

00002108 <I2C_Cmd>:
    2108:	00055783          	lhu	a5,0(a0)
    210c:	c591                	beqz	a1,2118 <I2C_Cmd+0x10>
    210e:	0017e793          	ori	a5,a5,1
    2112:	00f51023          	sh	a5,0(a0)
    2116:	8082                	ret
    2118:	07c2                	slli	a5,a5,0x10
    211a:	83c1                	srli	a5,a5,0x10
    211c:	9bf9                	andi	a5,a5,-2
    211e:	07c2                	slli	a5,a5,0x10
    2120:	83c1                	srli	a5,a5,0x10
    2122:	bfc5                	j	2112 <I2C_Cmd+0xa>

00002124 <I2C_GenerateSTART>:
    2124:	00055783          	lhu	a5,0(a0)
    2128:	c591                	beqz	a1,2134 <I2C_GenerateSTART+0x10>
    212a:	1007e793          	ori	a5,a5,256
    212e:	00f51023          	sh	a5,0(a0)
    2132:	8082                	ret
    2134:	07c2                	slli	a5,a5,0x10
    2136:	83c1                	srli	a5,a5,0x10
    2138:	eff7f793          	andi	a5,a5,-257
    213c:	07c2                	slli	a5,a5,0x10
    213e:	83c1                	srli	a5,a5,0x10
    2140:	b7fd                	j	212e <I2C_GenerateSTART+0xa>

00002142 <I2C_GenerateSTOP>:
    2142:	00055783          	lhu	a5,0(a0)
    2146:	c591                	beqz	a1,2152 <I2C_GenerateSTOP+0x10>
    2148:	2007e793          	ori	a5,a5,512
    214c:	00f51023          	sh	a5,0(a0)
    2150:	8082                	ret
    2152:	07c2                	slli	a5,a5,0x10
    2154:	83c1                	srli	a5,a5,0x10
    2156:	dff7f793          	andi	a5,a5,-513
    215a:	07c2                	slli	a5,a5,0x10
    215c:	83c1                	srli	a5,a5,0x10
    215e:	b7fd                	j	214c <I2C_GenerateSTOP+0xa>

00002160 <I2C_AcknowledgeConfig>:
    2160:	00055783          	lhu	a5,0(a0)
    2164:	c591                	beqz	a1,2170 <I2C_AcknowledgeConfig+0x10>
    2166:	4007e793          	ori	a5,a5,1024
    216a:	00f51023          	sh	a5,0(a0)
    216e:	8082                	ret
    2170:	07c2                	slli	a5,a5,0x10
    2172:	83c1                	srli	a5,a5,0x10
    2174:	bff7f793          	andi	a5,a5,-1025
    2178:	07c2                	slli	a5,a5,0x10
    217a:	83c1                	srli	a5,a5,0x10
    217c:	b7fd                	j	216a <I2C_AcknowledgeConfig+0xa>

0000217e <I2C_SendData>:
    217e:	00b51823          	sh	a1,16(a0)
    2182:	8082                	ret

00002184 <I2C_ReceiveData>:
    2184:	01055503          	lhu	a0,16(a0)
    2188:	0ff57513          	andi	a0,a0,255
    218c:	8082                	ret

0000218e <I2C_Send7bitAddress>:
    218e:	0fe5f793          	andi	a5,a1,254
    2192:	c219                	beqz	a2,2198 <I2C_Send7bitAddress+0xa>
    2194:	0015e793          	ori	a5,a1,1
    2198:	07c2                	slli	a5,a5,0x10
    219a:	83c1                	srli	a5,a5,0x10
    219c:	00f51823          	sh	a5,16(a0)
    21a0:	8082                	ret

000021a2 <I2C_CheckEvent>:
    21a2:	01455783          	lhu	a5,20(a0)
    21a6:	01855503          	lhu	a0,24(a0)
    21aa:	0542                	slli	a0,a0,0x10
    21ac:	8d5d                	or	a0,a0,a5
    21ae:	8d6d                	and	a0,a0,a1
    21b0:	0522                	slli	a0,a0,0x8
    21b2:	8121                	srli	a0,a0,0x8
    21b4:	8d0d                	sub	a0,a0,a1
    21b6:	00153513          	seqz	a0,a0
    21ba:	8082                	ret

000021bc <I2C_GetFlagStatus>:
    21bc:	1141                	addi	sp,sp,-16
    21be:	c402                	sw	zero,8(sp)
    21c0:	c602                	sw	zero,12(sp)
    21c2:	01c5d793          	srli	a5,a1,0x1c
    21c6:	c62a                	sw	a0,12(sp)
    21c8:	c43e                	sw	a5,8(sp)
    21ca:	47a2                	lw	a5,8(sp)
    21cc:	05a2                	slli	a1,a1,0x8
    21ce:	81a1                	srli	a1,a1,0x8
    21d0:	cb99                	beqz	a5,21e6 <I2C_GetFlagStatus+0x2a>
    21d2:	47b2                	lw	a5,12(sp)
    21d4:	07d1                	addi	a5,a5,20
    21d6:	c63e                	sw	a5,12(sp)
    21d8:	47b2                	lw	a5,12(sp)
    21da:	4388                	lw	a0,0(a5)
    21dc:	0141                	addi	sp,sp,16
    21de:	8d6d                	and	a0,a0,a1
    21e0:	00a03533          	snez	a0,a0
    21e4:	8082                	ret
    21e6:	47b2                	lw	a5,12(sp)
    21e8:	81c1                	srli	a1,a1,0x10
    21ea:	07e1                	addi	a5,a5,24
    21ec:	b7ed                	j	21d6 <I2C_GetFlagStatus+0x1a>

000021ee <NVIC_PriorityGroupConfig>:
    21ee:	84a1a423          	sw	a0,-1976(gp) # 200000b8 <NVIC_Priority_Group>
    21f2:	8082                	ret

000021f4 <NVIC_Init>:
    21f4:	84818793          	addi	a5,gp,-1976 # 200000b8 <NVIC_Priority_Group>
    21f8:	4394                	lw	a3,0(a5)
    21fa:	00054703          	lbu	a4,0(a0)
    21fe:	e689                	bnez	a3,2208 <NVIC_Init+0x14>
    2200:	00254783          	lbu	a5,2(a0)
    2204:	0792                	slli	a5,a5,0x4
    2206:	a831                	j	2222 <NVIC_Init+0x2e>
    2208:	4394                	lw	a3,0(a5)
    220a:	4605                	li	a2,1
    220c:	04c69163          	bne	a3,a2,224e <NVIC_Init+0x5a>
    2210:	00254783          	lbu	a5,2(a0)
    2214:	00154603          	lbu	a2,1(a0)
    2218:	0792                	slli	a5,a5,0x4
    221a:	00d61463          	bne	a2,a3,2222 <NVIC_Init+0x2e>
    221e:	f807e793          	ori	a5,a5,-128
    2222:	e000e6b7          	lui	a3,0xe000e
    2226:	0ff7f793          	andi	a5,a5,255
    222a:	96ba                	add	a3,a3,a4
    222c:	40f68023          	sb	a5,1024(a3) # e000e400 <_eusrstack+0xc0006400>
    2230:	4685                	li	a3,1
    2232:	00575793          	srli	a5,a4,0x5
    2236:	00e69733          	sll	a4,a3,a4
    223a:	4154                	lw	a3,4(a0)
    223c:	c6ad                	beqz	a3,22a6 <NVIC_Init+0xb2>
    223e:	04078793          	addi	a5,a5,64 # a0000040 <_eusrstack+0x7fff8040>
    2242:	078a                	slli	a5,a5,0x2
    2244:	e000e6b7          	lui	a3,0xe000e
    2248:	97b6                	add	a5,a5,a3
    224a:	c398                	sw	a4,0(a5)
    224c:	8082                	ret
    224e:	438c                	lw	a1,0(a5)
    2250:	4689                	li	a3,2
    2252:	02d59363          	bne	a1,a3,2278 <NVIC_Init+0x84>
    2256:	00154683          	lbu	a3,1(a0)
    225a:	00254783          	lbu	a5,2(a0)
    225e:	00d66563          	bltu	a2,a3,2268 <NVIC_Init+0x74>
    2262:	068a                	slli	a3,a3,0x2
    2264:	97b6                	add	a5,a5,a3
    2266:	bf79                	j	2204 <NVIC_Init+0x10>
    2268:	03e68693          	addi	a3,a3,62 # e000e03e <_eusrstack+0xc000603e>
    226c:	068a                	slli	a3,a3,0x2
    226e:	97b6                	add	a5,a5,a3
    2270:	0ff7f793          	andi	a5,a5,255
    2274:	0792                	slli	a5,a5,0x4
    2276:	b765                	j	221e <NVIC_Init+0x2a>
    2278:	4390                	lw	a2,0(a5)
    227a:	468d                	li	a3,3
    227c:	00d61e63          	bne	a2,a3,2298 <NVIC_Init+0xa4>
    2280:	00154683          	lbu	a3,1(a0)
    2284:	00254783          	lbu	a5,2(a0)
    2288:	00d66463          	bltu	a2,a3,2290 <NVIC_Init+0x9c>
    228c:	0686                	slli	a3,a3,0x1
    228e:	bfd9                	j	2264 <NVIC_Init+0x70>
    2290:	07c68693          	addi	a3,a3,124
    2294:	0686                	slli	a3,a3,0x1
    2296:	bfe1                	j	226e <NVIC_Init+0x7a>
    2298:	4394                	lw	a3,0(a5)
    229a:	4791                	li	a5,4
    229c:	f8f69ae3          	bne	a3,a5,2230 <NVIC_Init+0x3c>
    22a0:	00154783          	lbu	a5,1(a0)
    22a4:	b785                	j	2204 <NVIC_Init+0x10>
    22a6:	06078793          	addi	a5,a5,96
    22aa:	bf61                	j	2242 <NVIC_Init+0x4e>

000022ac <RCC_GetClocksFreq>:
    22ac:	40021737          	lui	a4,0x40021
    22b0:	435c                	lw	a5,4(a4)
    22b2:	4691                	li	a3,4
    22b4:	8bb1                	andi	a5,a5,12
    22b6:	00d78563          	beq	a5,a3,22c0 <RCC_GetClocksFreq+0x14>
    22ba:	46a1                	li	a3,8
    22bc:	06d78663          	beq	a5,a3,2328 <RCC_GetClocksFreq+0x7c>
    22c0:	007a17b7          	lui	a5,0x7a1
    22c4:	20078793          	addi	a5,a5,512 # 7a1200 <_data_lma+0x798eac>
    22c8:	c11c                	sw	a5,0(a0)
    22ca:	40021637          	lui	a2,0x40021
    22ce:	425c                	lw	a5,4(a2)
    22d0:	20000737          	lui	a4,0x20000
    22d4:	00070713          	mv	a4,a4
    22d8:	8391                	srli	a5,a5,0x4
    22da:	8bbd                	andi	a5,a5,15
    22dc:	97ba                	add	a5,a5,a4
    22de:	0007c683          	lbu	a3,0(a5)
    22e2:	411c                	lw	a5,0(a0)
    22e4:	00d7d7b3          	srl	a5,a5,a3
    22e8:	c15c                	sw	a5,4(a0)
    22ea:	4254                	lw	a3,4(a2)
    22ec:	82a1                	srli	a3,a3,0x8
    22ee:	8a9d                	andi	a3,a3,7
    22f0:	96ba                	add	a3,a3,a4
    22f2:	0006c683          	lbu	a3,0(a3)
    22f6:	00d7d6b3          	srl	a3,a5,a3
    22fa:	c514                	sw	a3,8(a0)
    22fc:	4254                	lw	a3,4(a2)
    22fe:	82ad                	srli	a3,a3,0xb
    2300:	8a9d                	andi	a3,a3,7
    2302:	9736                	add	a4,a4,a3
    2304:	00074703          	lbu	a4,0(a4) # 20000000 <_data_vma>
    2308:	00e7d7b3          	srl	a5,a5,a4
    230c:	c55c                	sw	a5,12(a0)
    230e:	4258                	lw	a4,4(a2)
    2310:	8339                	srli	a4,a4,0xe
    2312:	00377693          	andi	a3,a4,3
    2316:	81418713          	addi	a4,gp,-2028 # 20000084 <ADCPrescTable>
    231a:	9736                	add	a4,a4,a3
    231c:	00074703          	lbu	a4,0(a4)
    2320:	02e7d7b3          	divu	a5,a5,a4
    2324:	c91c                	sw	a5,16(a0)
    2326:	8082                	ret
    2328:	435c                	lw	a5,4(a4)
    232a:	4354                	lw	a3,4(a4)
    232c:	6741                	lui	a4,0x10
    232e:	83c9                	srli	a5,a5,0x12
    2330:	8ef9                	and	a3,a3,a4
    2332:	1ffff737          	lui	a4,0x1ffff
    2336:	70c72703          	lw	a4,1804(a4) # 1ffff70c <_data_lma+0x1fff73b8>
    233a:	8bbd                	andi	a5,a5,15
    233c:	0789                	addi	a5,a5,2
    233e:	01171613          	slli	a2,a4,0x11
    2342:	00064863          	bltz	a2,2352 <RCC_GetClocksFreq+0xa6>
    2346:	4645                	li	a2,17
    2348:	4701                	li	a4,0
    234a:	02c79263          	bne	a5,a2,236e <RCC_GetClocksFreq+0xc2>
    234e:	47c9                	li	a5,18
    2350:	a839                	j	236e <RCC_GetClocksFreq+0xc2>
    2352:	4709                	li	a4,2
    2354:	02e78963          	beq	a5,a4,2386 <RCC_GetClocksFreq+0xda>
    2358:	473d                	li	a4,15
    235a:	02e78863          	beq	a5,a4,238a <RCC_GetClocksFreq+0xde>
    235e:	4741                	li	a4,16
    2360:	02e78863          	beq	a5,a4,2390 <RCC_GetClocksFreq+0xe4>
    2364:	4645                	li	a2,17
    2366:	4701                	li	a4,0
    2368:	00c79363          	bne	a5,a2,236e <RCC_GetClocksFreq+0xc2>
    236c:	47c1                	li	a5,16
    236e:	e685                	bnez	a3,2396 <RCC_GetClocksFreq+0xea>
    2370:	400246b7          	lui	a3,0x40024
    2374:	8006a683          	lw	a3,-2048(a3) # 40023800 <_eusrstack+0x2001b800>
    2378:	8ac1                	andi	a3,a3,16
    237a:	c68d                	beqz	a3,23a4 <RCC_GetClocksFreq+0xf8>
    237c:	007a16b7          	lui	a3,0x7a1
    2380:	20068693          	addi	a3,a3,512 # 7a1200 <_data_lma+0x798eac>
    2384:	a025                	j	23ac <RCC_GetClocksFreq+0x100>
    2386:	4701                	li	a4,0
    2388:	b7d9                	j	234e <RCC_GetClocksFreq+0xa2>
    238a:	4705                	li	a4,1
    238c:	47b5                	li	a5,13
    238e:	b7c5                	j	236e <RCC_GetClocksFreq+0xc2>
    2390:	4701                	li	a4,0
    2392:	47bd                	li	a5,15
    2394:	bfe9                	j	236e <RCC_GetClocksFreq+0xc2>
    2396:	400216b7          	lui	a3,0x40021
    239a:	42d4                	lw	a3,4(a3)
    239c:	00e69613          	slli	a2,a3,0xe
    23a0:	fc065ee3          	bgez	a2,237c <RCC_GetClocksFreq+0xd0>
    23a4:	003d16b7          	lui	a3,0x3d1
    23a8:	90068693          	addi	a3,a3,-1792 # 3d0900 <_data_lma+0x3c85ac>
    23ac:	02d787b3          	mul	a5,a5,a3
    23b0:	c11c                	sw	a5,0(a0)
    23b2:	df01                	beqz	a4,22ca <RCC_GetClocksFreq+0x1e>
    23b4:	411c                	lw	a5,0(a0)
    23b6:	8385                	srli	a5,a5,0x1
    23b8:	bf01                	j	22c8 <RCC_GetClocksFreq+0x1c>

000023ba <RCC_AHBPeriphClockCmd>:
    23ba:	c599                	beqz	a1,23c8 <RCC_AHBPeriphClockCmd+0xe>
    23bc:	40021737          	lui	a4,0x40021
    23c0:	4b5c                	lw	a5,20(a4)
    23c2:	8d5d                	or	a0,a0,a5
    23c4:	cb48                	sw	a0,20(a4)
    23c6:	8082                	ret
    23c8:	400217b7          	lui	a5,0x40021
    23cc:	4bd8                	lw	a4,20(a5)
    23ce:	fff54513          	not	a0,a0
    23d2:	8d79                	and	a0,a0,a4
    23d4:	cbc8                	sw	a0,20(a5)
    23d6:	8082                	ret

000023d8 <RCC_APB2PeriphClockCmd>:
    23d8:	c599                	beqz	a1,23e6 <RCC_APB2PeriphClockCmd+0xe>
    23da:	40021737          	lui	a4,0x40021
    23de:	4f1c                	lw	a5,24(a4)
    23e0:	8d5d                	or	a0,a0,a5
    23e2:	cf08                	sw	a0,24(a4)
    23e4:	8082                	ret
    23e6:	400217b7          	lui	a5,0x40021
    23ea:	4f98                	lw	a4,24(a5)
    23ec:	fff54513          	not	a0,a0
    23f0:	8d79                	and	a0,a0,a4
    23f2:	cf88                	sw	a0,24(a5)
    23f4:	8082                	ret

000023f6 <RCC_APB1PeriphClockCmd>:
    23f6:	c599                	beqz	a1,2404 <RCC_APB1PeriphClockCmd+0xe>
    23f8:	40021737          	lui	a4,0x40021
    23fc:	4f5c                	lw	a5,28(a4)
    23fe:	8d5d                	or	a0,a0,a5
    2400:	cf48                	sw	a0,28(a4)
    2402:	8082                	ret
    2404:	400217b7          	lui	a5,0x40021
    2408:	4fd8                	lw	a4,28(a5)
    240a:	fff54513          	not	a0,a0
    240e:	8d79                	and	a0,a0,a4
    2410:	cfc8                	sw	a0,28(a5)
    2412:	8082                	ret

00002414 <RCC_APB2PeriphResetCmd>:
    2414:	c599                	beqz	a1,2422 <RCC_APB2PeriphResetCmd+0xe>
    2416:	40021737          	lui	a4,0x40021
    241a:	475c                	lw	a5,12(a4)
    241c:	8d5d                	or	a0,a0,a5
    241e:	c748                	sw	a0,12(a4)
    2420:	8082                	ret
    2422:	400217b7          	lui	a5,0x40021
    2426:	47d8                	lw	a4,12(a5)
    2428:	fff54513          	not	a0,a0
    242c:	8d79                	and	a0,a0,a4
    242e:	c7c8                	sw	a0,12(a5)
    2430:	8082                	ret

00002432 <RCC_APB1PeriphResetCmd>:
    2432:	c599                	beqz	a1,2440 <RCC_APB1PeriphResetCmd+0xe>
    2434:	40021737          	lui	a4,0x40021
    2438:	4b1c                	lw	a5,16(a4)
    243a:	8d5d                	or	a0,a0,a5
    243c:	cb08                	sw	a0,16(a4)
    243e:	8082                	ret
    2440:	400217b7          	lui	a5,0x40021
    2444:	4b98                	lw	a4,16(a5)
    2446:	fff54513          	not	a0,a0
    244a:	8d79                	and	a0,a0,a4
    244c:	cb88                	sw	a0,16(a5)
    244e:	8082                	ret

00002450 <TIM_DeInit>:
    2450:	1141                	addi	sp,sp,-16
    2452:	400137b7          	lui	a5,0x40013
    2456:	c606                	sw	ra,12(sp)
    2458:	c422                	sw	s0,8(sp)
    245a:	c0078713          	addi	a4,a5,-1024 # 40012c00 <_eusrstack+0x2000ac00>
    245e:	00e51e63          	bne	a0,a4,247a <TIM_DeInit+0x2a>
    2462:	6405                	lui	s0,0x1
    2464:	4585                	li	a1,1
    2466:	80040513          	addi	a0,s0,-2048 # 800 <__stack_size>
    246a:	376d                	jal	2414 <RCC_APB2PeriphResetCmd>
    246c:	4581                	li	a1,0
    246e:	80040513          	addi	a0,s0,-2048
    2472:	4422                	lw	s0,8(sp)
    2474:	40b2                	lw	ra,12(sp)
    2476:	0141                	addi	sp,sp,16
    2478:	bf71                	j	2414 <RCC_APB2PeriphResetCmd>
    247a:	40078793          	addi	a5,a5,1024
    247e:	00f51863          	bne	a0,a5,248e <TIM_DeInit+0x3e>
    2482:	4585                	li	a1,1
    2484:	6509                	lui	a0,0x2
    2486:	3779                	jal	2414 <RCC_APB2PeriphResetCmd>
    2488:	4581                	li	a1,0
    248a:	6509                	lui	a0,0x2
    248c:	b7dd                	j	2472 <TIM_DeInit+0x22>
    248e:	400157b7          	lui	a5,0x40015
    2492:	c0078713          	addi	a4,a5,-1024 # 40014c00 <_eusrstack+0x2000cc00>
    2496:	00e51a63          	bne	a0,a4,24aa <TIM_DeInit+0x5a>
    249a:	4585                	li	a1,1
    249c:	00080537          	lui	a0,0x80
    24a0:	3f95                	jal	2414 <RCC_APB2PeriphResetCmd>
    24a2:	4581                	li	a1,0
    24a4:	00080537          	lui	a0,0x80
    24a8:	b7e9                	j	2472 <TIM_DeInit+0x22>
    24aa:	00f51a63          	bne	a0,a5,24be <TIM_DeInit+0x6e>
    24ae:	4585                	li	a1,1
    24b0:	00100537          	lui	a0,0x100
    24b4:	3785                	jal	2414 <RCC_APB2PeriphResetCmd>
    24b6:	4581                	li	a1,0
    24b8:	00100537          	lui	a0,0x100
    24bc:	bf5d                	j	2472 <TIM_DeInit+0x22>
    24be:	400007b7          	lui	a5,0x40000
    24c2:	00f51b63          	bne	a0,a5,24d8 <TIM_DeInit+0x88>
    24c6:	4585                	li	a1,1
    24c8:	4505                	li	a0,1
    24ca:	37a5                	jal	2432 <RCC_APB1PeriphResetCmd>
    24cc:	4581                	li	a1,0
    24ce:	4505                	li	a0,1
    24d0:	4422                	lw	s0,8(sp)
    24d2:	40b2                	lw	ra,12(sp)
    24d4:	0141                	addi	sp,sp,16
    24d6:	bfb1                	j	2432 <RCC_APB1PeriphResetCmd>
    24d8:	40078793          	addi	a5,a5,1024 # 40000400 <_eusrstack+0x1fff8400>
    24dc:	00f51863          	bne	a0,a5,24ec <TIM_DeInit+0x9c>
    24e0:	4585                	li	a1,1
    24e2:	4509                	li	a0,2
    24e4:	37b9                	jal	2432 <RCC_APB1PeriphResetCmd>
    24e6:	4581                	li	a1,0
    24e8:	4509                	li	a0,2
    24ea:	b7dd                	j	24d0 <TIM_DeInit+0x80>
    24ec:	400017b7          	lui	a5,0x40001
    24f0:	80078713          	addi	a4,a5,-2048 # 40000800 <_eusrstack+0x1fff8800>
    24f4:	00e51863          	bne	a0,a4,2504 <TIM_DeInit+0xb4>
    24f8:	4585                	li	a1,1
    24fa:	4511                	li	a0,4
    24fc:	3f1d                	jal	2432 <RCC_APB1PeriphResetCmd>
    24fe:	4581                	li	a1,0
    2500:	4511                	li	a0,4
    2502:	b7f9                	j	24d0 <TIM_DeInit+0x80>
    2504:	c0078713          	addi	a4,a5,-1024
    2508:	00e51863          	bne	a0,a4,2518 <TIM_DeInit+0xc8>
    250c:	4585                	li	a1,1
    250e:	4521                	li	a0,8
    2510:	370d                	jal	2432 <RCC_APB1PeriphResetCmd>
    2512:	4581                	li	a1,0
    2514:	4521                	li	a0,8
    2516:	bf6d                	j	24d0 <TIM_DeInit+0x80>
    2518:	00f51863          	bne	a0,a5,2528 <TIM_DeInit+0xd8>
    251c:	4585                	li	a1,1
    251e:	4541                	li	a0,16
    2520:	3f09                	jal	2432 <RCC_APB1PeriphResetCmd>
    2522:	4581                	li	a1,0
    2524:	4541                	li	a0,16
    2526:	b76d                	j	24d0 <TIM_DeInit+0x80>
    2528:	40078793          	addi	a5,a5,1024
    252c:	00f51a63          	bne	a0,a5,2540 <TIM_DeInit+0xf0>
    2530:	4585                	li	a1,1
    2532:	02000513          	li	a0,32
    2536:	3df5                	jal	2432 <RCC_APB1PeriphResetCmd>
    2538:	4581                	li	a1,0
    253a:	02000513          	li	a0,32
    253e:	bf49                	j	24d0 <TIM_DeInit+0x80>
    2540:	40b2                	lw	ra,12(sp)
    2542:	4422                	lw	s0,8(sp)
    2544:	0141                	addi	sp,sp,16
    2546:	8082                	ret

00002548 <TIM_TimeBaseInit>:
    2548:	00055783          	lhu	a5,0(a0) # 100000 <_data_lma+0xf7cac>
    254c:	40013737          	lui	a4,0x40013
    2550:	c0070693          	addi	a3,a4,-1024 # 40012c00 <_eusrstack+0x2000ac00>
    2554:	07c2                	slli	a5,a5,0x10
    2556:	83c1                	srli	a5,a5,0x10
    2558:	04d50063          	beq	a0,a3,2598 <TIM_TimeBaseInit+0x50>
    255c:	400006b7          	lui	a3,0x40000
    2560:	02d50c63          	beq	a0,a3,2598 <TIM_TimeBaseInit+0x50>
    2564:	40068693          	addi	a3,a3,1024 # 40000400 <_eusrstack+0x1fff8400>
    2568:	02d50863          	beq	a0,a3,2598 <TIM_TimeBaseInit+0x50>
    256c:	400016b7          	lui	a3,0x40001
    2570:	80068613          	addi	a2,a3,-2048 # 40000800 <_eusrstack+0x1fff8800>
    2574:	02c50263          	beq	a0,a2,2598 <TIM_TimeBaseInit+0x50>
    2578:	c0068693          	addi	a3,a3,-1024
    257c:	00d50e63          	beq	a0,a3,2598 <TIM_TimeBaseInit+0x50>
    2580:	40070713          	addi	a4,a4,1024
    2584:	00e50a63          	beq	a0,a4,2598 <TIM_TimeBaseInit+0x50>
    2588:	40015737          	lui	a4,0x40015
    258c:	c0070693          	addi	a3,a4,-1024 # 40014c00 <_eusrstack+0x2000cc00>
    2590:	00d50463          	beq	a0,a3,2598 <TIM_TimeBaseInit+0x50>
    2594:	00e51763          	bne	a0,a4,25a2 <TIM_TimeBaseInit+0x5a>
    2598:	0025d703          	lhu	a4,2(a1)
    259c:	f8f7f793          	andi	a5,a5,-113
    25a0:	8fd9                	or	a5,a5,a4
    25a2:	40001737          	lui	a4,0x40001
    25a6:	00e50d63          	beq	a0,a4,25c0 <TIM_TimeBaseInit+0x78>
    25aa:	40070713          	addi	a4,a4,1024 # 40001400 <_eusrstack+0x1fff9400>
    25ae:	00e50963          	beq	a0,a4,25c0 <TIM_TimeBaseInit+0x78>
    25b2:	cff7f793          	andi	a5,a5,-769
    25b6:	0065d703          	lhu	a4,6(a1)
    25ba:	07c2                	slli	a5,a5,0x10
    25bc:	83c1                	srli	a5,a5,0x10
    25be:	8fd9                	or	a5,a5,a4
    25c0:	00f51023          	sh	a5,0(a0)
    25c4:	0045d783          	lhu	a5,4(a1)
    25c8:	02f51623          	sh	a5,44(a0)
    25cc:	0005d783          	lhu	a5,0(a1)
    25d0:	02f51423          	sh	a5,40(a0)
    25d4:	400137b7          	lui	a5,0x40013
    25d8:	c0078713          	addi	a4,a5,-1024 # 40012c00 <_eusrstack+0x2000ac00>
    25dc:	00e50e63          	beq	a0,a4,25f8 <TIM_TimeBaseInit+0xb0>
    25e0:	40078793          	addi	a5,a5,1024
    25e4:	00f50a63          	beq	a0,a5,25f8 <TIM_TimeBaseInit+0xb0>
    25e8:	400157b7          	lui	a5,0x40015
    25ec:	c0078713          	addi	a4,a5,-1024 # 40014c00 <_eusrstack+0x2000cc00>
    25f0:	00e50463          	beq	a0,a4,25f8 <TIM_TimeBaseInit+0xb0>
    25f4:	00f51663          	bne	a0,a5,2600 <TIM_TimeBaseInit+0xb8>
    25f8:	0085c783          	lbu	a5,8(a1)
    25fc:	02f51823          	sh	a5,48(a0)
    2600:	4785                	li	a5,1
    2602:	00f51a23          	sh	a5,20(a0)
    2606:	8082                	ret

00002608 <TIM_OC2Init>:
    2608:	02055783          	lhu	a5,32(a0)
    260c:	7765                	lui	a4,0xffff9
    260e:	cff70713          	addi	a4,a4,-769 # ffff8cff <_eusrstack+0xdfff0cff>
    2612:	07c2                	slli	a5,a5,0x10
    2614:	83c1                	srli	a5,a5,0x10
    2616:	9bbd                	andi	a5,a5,-17
    2618:	07c2                	slli	a5,a5,0x10
    261a:	83c1                	srli	a5,a5,0x10
    261c:	02f51023          	sh	a5,32(a0)
    2620:	02055783          	lhu	a5,32(a0)
    2624:	00455683          	lhu	a3,4(a0)
    2628:	0085d803          	lhu	a6,8(a1)
    262c:	07c2                	slli	a5,a5,0x10
    262e:	01069613          	slli	a2,a3,0x10
    2632:	01855683          	lhu	a3,24(a0)
    2636:	83c1                	srli	a5,a5,0x10
    2638:	fdf7f793          	andi	a5,a5,-33
    263c:	8f75                	and	a4,a4,a3
    263e:	0005d683          	lhu	a3,0(a1)
    2642:	8241                	srli	a2,a2,0x10
    2644:	06a2                	slli	a3,a3,0x8
    2646:	8f55                	or	a4,a4,a3
    2648:	0025d683          	lhu	a3,2(a1)
    264c:	0742                	slli	a4,a4,0x10
    264e:	8341                	srli	a4,a4,0x10
    2650:	0106e6b3          	or	a3,a3,a6
    2654:	0692                	slli	a3,a3,0x4
    2656:	8fd5                	or	a5,a5,a3
    2658:	400136b7          	lui	a3,0x40013
    265c:	07c2                	slli	a5,a5,0x10
    265e:	c0068813          	addi	a6,a3,-1024 # 40012c00 <_eusrstack+0x2000ac00>
    2662:	83c1                	srli	a5,a5,0x10
    2664:	01050e63          	beq	a0,a6,2680 <TIM_OC2Init+0x78>
    2668:	40068693          	addi	a3,a3,1024
    266c:	00d50a63          	beq	a0,a3,2680 <TIM_OC2Init+0x78>
    2670:	400156b7          	lui	a3,0x40015
    2674:	c0068813          	addi	a6,a3,-1024 # 40014c00 <_eusrstack+0x2000cc00>
    2678:	01050463          	beq	a0,a6,2680 <TIM_OC2Init+0x78>
    267c:	04d51163          	bne	a0,a3,26be <TIM_OC2Init+0xb6>
    2680:	00a5d683          	lhu	a3,10(a1)
    2684:	f7f7f793          	andi	a5,a5,-129
    2688:	00c5d803          	lhu	a6,12(a1)
    268c:	0692                	slli	a3,a3,0x4
    268e:	8fd5                	or	a5,a5,a3
    2690:	0045d683          	lhu	a3,4(a1)
    2694:	07c2                	slli	a5,a5,0x10
    2696:	83c1                	srli	a5,a5,0x10
    2698:	0692                	slli	a3,a3,0x4
    269a:	fbf7f793          	andi	a5,a5,-65
    269e:	8fd5                	or	a5,a5,a3
    26a0:	76fd                	lui	a3,0xfffff
    26a2:	3ff68693          	addi	a3,a3,1023 # fffff3ff <_eusrstack+0xdfff73ff>
    26a6:	8ef1                	and	a3,a3,a2
    26a8:	00e5d603          	lhu	a2,14(a1)
    26ac:	07c2                	slli	a5,a5,0x10
    26ae:	83c1                	srli	a5,a5,0x10
    26b0:	01066633          	or	a2,a2,a6
    26b4:	060a                	slli	a2,a2,0x2
    26b6:	8ed1                	or	a3,a3,a2
    26b8:	01069613          	slli	a2,a3,0x10
    26bc:	8241                	srli	a2,a2,0x10
    26be:	00c51223          	sh	a2,4(a0)
    26c2:	00e51c23          	sh	a4,24(a0)
    26c6:	0065d703          	lhu	a4,6(a1)
    26ca:	02e51c23          	sh	a4,56(a0)
    26ce:	02f51023          	sh	a5,32(a0)
    26d2:	8082                	ret

000026d4 <TIM_Cmd>:
    26d4:	00055783          	lhu	a5,0(a0)
    26d8:	c591                	beqz	a1,26e4 <TIM_Cmd+0x10>
    26da:	0017e793          	ori	a5,a5,1
    26de:	00f51023          	sh	a5,0(a0)
    26e2:	8082                	ret
    26e4:	07c2                	slli	a5,a5,0x10
    26e6:	83c1                	srli	a5,a5,0x10
    26e8:	9bf9                	andi	a5,a5,-2
    26ea:	07c2                	slli	a5,a5,0x10
    26ec:	83c1                	srli	a5,a5,0x10
    26ee:	bfc5                	j	26de <TIM_Cmd+0xa>

000026f0 <TIM_CtrlPWMOutputs>:
    26f0:	04455783          	lhu	a5,68(a0)
    26f4:	c591                	beqz	a1,2700 <TIM_CtrlPWMOutputs+0x10>
    26f6:	6721                	lui	a4,0x8
    26f8:	8fd9                	or	a5,a5,a4
    26fa:	04f51223          	sh	a5,68(a0)
    26fe:	8082                	ret
    2700:	07c6                	slli	a5,a5,0x11
    2702:	83c5                	srli	a5,a5,0x11
    2704:	bfdd                	j	26fa <TIM_CtrlPWMOutputs+0xa>

00002706 <TIM_ITConfig>:
    2706:	00c55783          	lhu	a5,12(a0)
    270a:	c609                	beqz	a2,2714 <TIM_ITConfig+0xe>
    270c:	8ddd                	or	a1,a1,a5
    270e:	00b51623          	sh	a1,12(a0)
    2712:	8082                	ret
    2714:	fff5c593          	not	a1,a1
    2718:	8dfd                	and	a1,a1,a5
    271a:	bfd5                	j	270e <TIM_ITConfig+0x8>

0000271c <TIM_ARRPreloadConfig>:
    271c:	00055783          	lhu	a5,0(a0)
    2720:	c591                	beqz	a1,272c <TIM_ARRPreloadConfig+0x10>
    2722:	0807e793          	ori	a5,a5,128
    2726:	00f51023          	sh	a5,0(a0)
    272a:	8082                	ret
    272c:	07c2                	slli	a5,a5,0x10
    272e:	83c1                	srli	a5,a5,0x10
    2730:	f7f7f793          	andi	a5,a5,-129
    2734:	07c2                	slli	a5,a5,0x10
    2736:	83c1                	srli	a5,a5,0x10
    2738:	b7fd                	j	2726 <TIM_ARRPreloadConfig+0xa>

0000273a <TIM_OC2PreloadConfig>:
    273a:	01855703          	lhu	a4,24(a0)
    273e:	77fd                	lui	a5,0xfffff
    2740:	7ff78793          	addi	a5,a5,2047 # fffff7ff <_eusrstack+0xdfff77ff>
    2744:	8ff9                	and	a5,a5,a4
    2746:	05a2                	slli	a1,a1,0x8
    2748:	8fcd                	or	a5,a5,a1
    274a:	07c2                	slli	a5,a5,0x10
    274c:	83c1                	srli	a5,a5,0x10
    274e:	00f51c23          	sh	a5,24(a0)
    2752:	8082                	ret

00002754 <TIM_SetCounter>:
    2754:	02b51223          	sh	a1,36(a0)
    2758:	8082                	ret

0000275a <TIM_SetCompare2>:
    275a:	02b51c23          	sh	a1,56(a0)
    275e:	8082                	ret

00002760 <TIM_GetCounter>:
    2760:	02455503          	lhu	a0,36(a0)
    2764:	8082                	ret

00002766 <TIM_ClearFlag>:
    2766:	fff5c593          	not	a1,a1
    276a:	05c2                	slli	a1,a1,0x10
    276c:	81c1                	srli	a1,a1,0x10
    276e:	00b51823          	sh	a1,16(a0)
    2772:	8082                	ret

00002774 <TIM_GetITStatus>:
    2774:	01055783          	lhu	a5,16(a0)
    2778:	00c55503          	lhu	a0,12(a0)
    277c:	8fed                	and	a5,a5,a1
    277e:	0542                	slli	a0,a0,0x10
    2780:	8141                	srli	a0,a0,0x10
    2782:	c789                	beqz	a5,278c <TIM_GetITStatus+0x18>
    2784:	8d6d                	and	a0,a0,a1
    2786:	00a03533          	snez	a0,a0
    278a:	8082                	ret
    278c:	4501                	li	a0,0
    278e:	8082                	ret

00002790 <TIM_ClearITPendingBit>:
    2790:	fff5c593          	not	a1,a1
    2794:	05c2                	slli	a1,a1,0x10
    2796:	81c1                	srli	a1,a1,0x10
    2798:	00b51823          	sh	a1,16(a0)
    279c:	8082                	ret

0000279e <USART_Init>:
    279e:	01055683          	lhu	a3,16(a0)
    27a2:	77f5                	lui	a5,0xffffd
    27a4:	17fd                	addi	a5,a5,-1
    27a6:	8ff5                	and	a5,a5,a3
    27a8:	0065d683          	lhu	a3,6(a1)
    27ac:	7139                	addi	sp,sp,-64
    27ae:	dc22                	sw	s0,56(sp)
    27b0:	de06                	sw	ra,60(sp)
    27b2:	8fd5                	or	a5,a5,a3
    27b4:	00c5d703          	lhu	a4,12(a1)
    27b8:	00f51823          	sh	a5,16(a0)
    27bc:	00c55683          	lhu	a3,12(a0)
    27c0:	77fd                	lui	a5,0xfffff
    27c2:	9f378793          	addi	a5,a5,-1549 # ffffe9f3 <_eusrstack+0xdfff69f3>
    27c6:	8ff5                	and	a5,a5,a3
    27c8:	0045d683          	lhu	a3,4(a1)
    27cc:	842a                	mv	s0,a0
    27ce:	c62e                	sw	a1,12(sp)
    27d0:	8fd5                	or	a5,a5,a3
    27d2:	0085d683          	lhu	a3,8(a1)
    27d6:	8fd5                	or	a5,a5,a3
    27d8:	00a5d683          	lhu	a3,10(a1)
    27dc:	8fd5                	or	a5,a5,a3
    27de:	00f51623          	sh	a5,12(a0)
    27e2:	01455783          	lhu	a5,20(a0)
    27e6:	07c2                	slli	a5,a5,0x10
    27e8:	83c1                	srli	a5,a5,0x10
    27ea:	cff7f793          	andi	a5,a5,-769
    27ee:	8fd9                	or	a5,a5,a4
    27f0:	00f51a23          	sh	a5,20(a0)
    27f4:	0868                	addi	a0,sp,28
    27f6:	ab7ff0ef          	jal	ra,22ac <RCC_GetClocksFreq>
    27fa:	400147b7          	lui	a5,0x40014
    27fe:	80078793          	addi	a5,a5,-2048 # 40013800 <_eusrstack+0x2000b800>
    2802:	45b2                	lw	a1,12(sp)
    2804:	04f41e63          	bne	s0,a5,2860 <USART_Init+0xc2>
    2808:	57a2                	lw	a5,40(sp)
    280a:	00c45683          	lhu	a3,12(s0)
    280e:	4765                	li	a4,25
    2810:	02e787b3          	mul	a5,a5,a4
    2814:	06c2                	slli	a3,a3,0x10
    2816:	86c1                	srai	a3,a3,0x10
    2818:	4198                	lw	a4,0(a1)
    281a:	0406d563          	bgez	a3,2864 <USART_Init+0xc6>
    281e:	0706                	slli	a4,a4,0x1
    2820:	00c45603          	lhu	a2,12(s0)
    2824:	0642                	slli	a2,a2,0x10
    2826:	02e7d7b3          	divu	a5,a5,a4
    282a:	06400713          	li	a4,100
    282e:	8641                	srai	a2,a2,0x10
    2830:	02e7d6b3          	divu	a3,a5,a4
    2834:	02e7f7b3          	remu	a5,a5,a4
    2838:	0692                	slli	a3,a3,0x4
    283a:	02065763          	bgez	a2,2868 <USART_Init+0xca>
    283e:	078e                	slli	a5,a5,0x3
    2840:	03278793          	addi	a5,a5,50
    2844:	02e7d7b3          	divu	a5,a5,a4
    2848:	0077f713          	andi	a4,a5,7
    284c:	00d767b3          	or	a5,a4,a3
    2850:	07c2                	slli	a5,a5,0x10
    2852:	83c1                	srli	a5,a5,0x10
    2854:	00f41423          	sh	a5,8(s0)
    2858:	50f2                	lw	ra,60(sp)
    285a:	5462                	lw	s0,56(sp)
    285c:	6121                	addi	sp,sp,64
    285e:	8082                	ret
    2860:	5792                	lw	a5,36(sp)
    2862:	b765                	j	280a <USART_Init+0x6c>
    2864:	070a                	slli	a4,a4,0x2
    2866:	bf6d                	j	2820 <USART_Init+0x82>
    2868:	0792                	slli	a5,a5,0x4
    286a:	03278793          	addi	a5,a5,50
    286e:	02e7d7b3          	divu	a5,a5,a4
    2872:	8bbd                	andi	a5,a5,15
    2874:	8fd5                	or	a5,a5,a3
    2876:	bfe9                	j	2850 <USART_Init+0xb2>

00002878 <USART_Cmd>:
    2878:	c981                	beqz	a1,2888 <USART_Cmd+0x10>
    287a:	00c55783          	lhu	a5,12(a0)
    287e:	6709                	lui	a4,0x2
    2880:	8fd9                	or	a5,a5,a4
    2882:	00f51623          	sh	a5,12(a0)
    2886:	8082                	ret
    2888:	00c55703          	lhu	a4,12(a0)
    288c:	77f9                	lui	a5,0xffffe
    288e:	17fd                	addi	a5,a5,-1
    2890:	8ff9                	and	a5,a5,a4
    2892:	bfc5                	j	2882 <USART_Cmd+0xa>

00002894 <USART_DMACmd>:
    2894:	01455783          	lhu	a5,20(a0)
    2898:	c609                	beqz	a2,28a2 <USART_DMACmd+0xe>
    289a:	8ddd                	or	a1,a1,a5
    289c:	00b51a23          	sh	a1,20(a0)
    28a0:	8082                	ret
    28a2:	fff5c593          	not	a1,a1
    28a6:	8dfd                	and	a1,a1,a5
    28a8:	bfd5                	j	289c <USART_DMACmd+0x8>

000028aa <USART_SendData>:
    28aa:	1ff5f593          	andi	a1,a1,511
    28ae:	00b51223          	sh	a1,4(a0)
    28b2:	8082                	ret

000028b4 <USART_GetFlagStatus>:
    28b4:	00055503          	lhu	a0,0(a0)
    28b8:	8d6d                	and	a0,a0,a1
    28ba:	00a03533          	snez	a0,a0
    28be:	8082                	ret

000028c0 <Delay_Init>:
    28c0:	8101a783          	lw	a5,-2032(gp) # 20000080 <SystemCoreClock>
    28c4:	007a1737          	lui	a4,0x7a1
    28c8:	20070713          	addi	a4,a4,512 # 7a1200 <_data_lma+0x798eac>
    28cc:	02e7d7b3          	divu	a5,a5,a4
    28d0:	0ff7f793          	andi	a5,a5,255
    28d4:	84f18723          	sb	a5,-1970(gp) # 200000be <p_us>
    28d8:	3e800713          	li	a4,1000
    28dc:	02e787b3          	mul	a5,a5,a4
    28e0:	84f19623          	sh	a5,-1972(gp) # 200000bc <p_ms>
    28e4:	8082                	ret

000028e6 <Delay_Us>:
    28e6:	e000f7b7          	lui	a5,0xe000f
    28ea:	43d8                	lw	a4,4(a5)
    28ec:	4681                	li	a3,0
    28ee:	9b79                	andi	a4,a4,-2
    28f0:	c3d8                	sw	a4,4(a5)
    28f2:	84e1c703          	lbu	a4,-1970(gp) # 200000be <p_us>
    28f6:	02a70633          	mul	a2,a4,a0
    28fa:	cb90                	sw	a2,16(a5)
    28fc:	cbd4                	sw	a3,20(a5)
    28fe:	4398                	lw	a4,0(a5)
    2900:	03176713          	ori	a4,a4,49
    2904:	c398                	sw	a4,0(a5)
    2906:	43d8                	lw	a4,4(a5)
    2908:	8b05                	andi	a4,a4,1
    290a:	df75                	beqz	a4,2906 <Delay_Us+0x20>
    290c:	4398                	lw	a4,0(a5)
    290e:	9b79                	andi	a4,a4,-2
    2910:	c398                	sw	a4,0(a5)
    2912:	8082                	ret

00002914 <Delay_Ms>:
    2914:	e000f7b7          	lui	a5,0xe000f
    2918:	43d8                	lw	a4,4(a5)
    291a:	4681                	li	a3,0
    291c:	9b79                	andi	a4,a4,-2
    291e:	c3d8                	sw	a4,4(a5)
    2920:	84c1d703          	lhu	a4,-1972(gp) # 200000bc <p_ms>
    2924:	02a70633          	mul	a2,a4,a0
    2928:	cb90                	sw	a2,16(a5)
    292a:	cbd4                	sw	a3,20(a5)
    292c:	4398                	lw	a4,0(a5)
    292e:	03176713          	ori	a4,a4,49
    2932:	c398                	sw	a4,0(a5)
    2934:	43d8                	lw	a4,4(a5)
    2936:	8b05                	andi	a4,a4,1
    2938:	df75                	beqz	a4,2934 <Delay_Ms+0x20>
    293a:	4398                	lw	a4,0(a5)
    293c:	9b79                	andi	a4,a4,-2
    293e:	c398                	sw	a4,0(a5)
    2940:	8082                	ret

00002942 <USART_Printf_Init>:
    2942:	7179                	addi	sp,sp,-48
    2944:	d422                	sw	s0,40(sp)
    2946:	842a                	mv	s0,a0
    2948:	6511                	lui	a0,0x4
    294a:	4585                	li	a1,1
    294c:	0511                	addi	a0,a0,4
    294e:	d606                	sw	ra,44(sp)
    2950:	a89ff0ef          	jal	ra,23d8 <RCC_APB2PeriphClockCmd>
    2954:	20000793          	li	a5,512
    2958:	00f11223          	sh	a5,4(sp)
    295c:	40011537          	lui	a0,0x40011
    2960:	478d                	li	a5,3
    2962:	c43e                	sw	a5,8(sp)
    2964:	004c                	addi	a1,sp,4
    2966:	47e1                	li	a5,24
    2968:	80050513          	addi	a0,a0,-2048 # 40010800 <_eusrstack+0x20008800>
    296c:	c63e                	sw	a5,12(sp)
    296e:	d76ff0ef          	jal	ra,1ee4 <GPIO_Init>
    2972:	c822                	sw	s0,16(sp)
    2974:	40014437          	lui	s0,0x40014
    2978:	000807b7          	lui	a5,0x80
    297c:	080c                	addi	a1,sp,16
    297e:	80040513          	addi	a0,s0,-2048 # 40013800 <_eusrstack+0x2000b800>
    2982:	cc3e                	sw	a5,24(sp)
    2984:	ca02                	sw	zero,20(sp)
    2986:	00011e23          	sh	zero,28(sp)
    298a:	3d11                	jal	279e <USART_Init>
    298c:	80040513          	addi	a0,s0,-2048
    2990:	4585                	li	a1,1
    2992:	35dd                	jal	2878 <USART_Cmd>
    2994:	50b2                	lw	ra,44(sp)
    2996:	5422                	lw	s0,40(sp)
    2998:	6145                	addi	sp,sp,48
    299a:	8082                	ret

0000299c <_write>:
    299c:	1101                	addi	sp,sp,-32
    299e:	ca26                	sw	s1,20(sp)
    29a0:	400144b7          	lui	s1,0x40014
    29a4:	cc22                	sw	s0,24(sp)
    29a6:	c84a                	sw	s2,16(sp)
    29a8:	c64e                	sw	s3,12(sp)
    29aa:	ce06                	sw	ra,28(sp)
    29ac:	89ae                	mv	s3,a1
    29ae:	8932                	mv	s2,a2
    29b0:	4401                	li	s0,0
    29b2:	80048493          	addi	s1,s1,-2048 # 40013800 <_eusrstack+0x2000b800>
    29b6:	01244a63          	blt	s0,s2,29ca <_write+0x2e>
    29ba:	40f2                	lw	ra,28(sp)
    29bc:	4462                	lw	s0,24(sp)
    29be:	854a                	mv	a0,s2
    29c0:	44d2                	lw	s1,20(sp)
    29c2:	4942                	lw	s2,16(sp)
    29c4:	49b2                	lw	s3,12(sp)
    29c6:	6105                	addi	sp,sp,32
    29c8:	8082                	ret
    29ca:	04000593          	li	a1,64
    29ce:	8526                	mv	a0,s1
    29d0:	35d5                	jal	28b4 <USART_GetFlagStatus>
    29d2:	dd65                	beqz	a0,29ca <_write+0x2e>
    29d4:	008987b3          	add	a5,s3,s0
    29d8:	00078583          	lb	a1,0(a5) # 80000 <_data_lma+0x77cac>
    29dc:	8526                	mv	a0,s1
    29de:	0405                	addi	s0,s0,1
    29e0:	05c2                	slli	a1,a1,0x10
    29e2:	81c1                	srli	a1,a1,0x10
    29e4:	35d9                	jal	28aa <USART_SendData>
    29e6:	bfc1                	j	29b6 <_write+0x1a>

000029e8 <_sbrk>:
    29e8:	81818713          	addi	a4,gp,-2024 # 20000088 <curbrk.5226>
    29ec:	431c                	lw	a5,0(a4)
    29ee:	ca418693          	addi	a3,gp,-860 # 20000514 <_ebss>
    29f2:	953e                	add	a0,a0,a5
    29f4:	00d56b63          	bltu	a0,a3,2a0a <_sbrk+0x22>
    29f8:	200086b7          	lui	a3,0x20008
    29fc:	80068693          	addi	a3,a3,-2048 # 20007800 <_heap_end>
    2a00:	00a6e563          	bltu	a3,a0,2a0a <_sbrk+0x22>
    2a04:	c308                	sw	a0,0(a4)
    2a06:	853e                	mv	a0,a5
    2a08:	8082                	ret
    2a0a:	57fd                	li	a5,-1
    2a0c:	bfed                	j	2a06 <_sbrk+0x1e>

00002a0e <__divdf3>:
    2a0e:	7139                	addi	sp,sp,-64
    2a10:	0145d793          	srli	a5,a1,0x14
    2a14:	dc22                	sw	s0,56(sp)
    2a16:	d84a                	sw	s2,48(sp)
    2a18:	d256                	sw	s5,36(sp)
    2a1a:	892a                	mv	s2,a0
    2a1c:	00c59413          	slli	s0,a1,0xc
    2a20:	de06                	sw	ra,60(sp)
    2a22:	da26                	sw	s1,52(sp)
    2a24:	d64e                	sw	s3,44(sp)
    2a26:	d452                	sw	s4,40(sp)
    2a28:	d05a                	sw	s6,32(sp)
    2a2a:	ce5e                	sw	s7,28(sp)
    2a2c:	7ff7f513          	andi	a0,a5,2047
    2a30:	8031                	srli	s0,s0,0xc
    2a32:	01f5da93          	srli	s5,a1,0x1f
    2a36:	10050b63          	beqz	a0,2b4c <__divdf3+0x13e>
    2a3a:	7ff00793          	li	a5,2047
    2a3e:	14f50b63          	beq	a0,a5,2b94 <__divdf3+0x186>
    2a42:	01d95a13          	srli	s4,s2,0x1d
    2a46:	040e                	slli	s0,s0,0x3
    2a48:	008a6433          	or	s0,s4,s0
    2a4c:	00800a37          	lui	s4,0x800
    2a50:	01446a33          	or	s4,s0,s4
    2a54:	00391b13          	slli	s6,s2,0x3
    2a58:	c0150493          	addi	s1,a0,-1023
    2a5c:	4401                	li	s0,0
    2a5e:	4b81                	li	s7,0
    2a60:	0146d813          	srli	a6,a3,0x14
    2a64:	00c69913          	slli	s2,a3,0xc
    2a68:	7ff87813          	andi	a6,a6,2047
    2a6c:	88b2                	mv	a7,a2
    2a6e:	00c95913          	srli	s2,s2,0xc
    2a72:	01f6d993          	srli	s3,a3,0x1f
    2a76:	08080e63          	beqz	a6,2b12 <__divdf3+0x104>
    2a7a:	7ff00793          	li	a5,2047
    2a7e:	04f80063          	beq	a6,a5,2abe <__divdf3+0xb0>
    2a82:	01d65713          	srli	a4,a2,0x1d
    2a86:	090e                	slli	s2,s2,0x3
    2a88:	01276933          	or	s2,a4,s2
    2a8c:	c0180813          	addi	a6,a6,-1023
    2a90:	008007b7          	lui	a5,0x800
    2a94:	00f96733          	or	a4,s2,a5
    2a98:	00361893          	slli	a7,a2,0x3
    2a9c:	410484b3          	sub	s1,s1,a6
    2aa0:	4581                	li	a1,0
    2aa2:	47bd                	li	a5,15
    2aa4:	013ac833          	xor	a6,s5,s3
    2aa8:	1a87e463          	bltu	a5,s0,2c50 <__divdf3+0x242>
    2aac:	00005797          	auipc	a5,0x5
    2ab0:	64c78793          	addi	a5,a5,1612 # 80f8 <asc2_3216+0x181c>
    2ab4:	040a                	slli	s0,s0,0x2
    2ab6:	943e                	add	s0,s0,a5
    2ab8:	4010                	lw	a2,0(s0)
    2aba:	963e                	add	a2,a2,a5
    2abc:	8602                	jr	a2
    2abe:	00c96733          	or	a4,s2,a2
    2ac2:	80148493          	addi	s1,s1,-2047
    2ac6:	10071263          	bnez	a4,2bca <__divdf3+0x1bc>
    2aca:	00246413          	ori	s0,s0,2
    2ace:	4881                	li	a7,0
    2ad0:	4589                	li	a1,2
    2ad2:	bfc1                	j	2aa2 <__divdf3+0x94>
    2ad4:	7ff00613          	li	a2,2047
    2ad8:	4781                	li	a5,0
    2ada:	4701                	li	a4,0
    2adc:	07b2                	slli	a5,a5,0xc
    2ade:	50f2                	lw	ra,60(sp)
    2ae0:	5462                	lw	s0,56(sp)
    2ae2:	0652                	slli	a2,a2,0x14
    2ae4:	83b1                	srli	a5,a5,0xc
    2ae6:	087e                	slli	a6,a6,0x1f
    2ae8:	8fd1                	or	a5,a5,a2
    2aea:	0107e7b3          	or	a5,a5,a6
    2aee:	54d2                	lw	s1,52(sp)
    2af0:	5942                	lw	s2,48(sp)
    2af2:	59b2                	lw	s3,44(sp)
    2af4:	5a22                	lw	s4,40(sp)
    2af6:	5a92                	lw	s5,36(sp)
    2af8:	5b02                	lw	s6,32(sp)
    2afa:	4bf2                	lw	s7,28(sp)
    2afc:	853a                	mv	a0,a4
    2afe:	85be                	mv	a1,a5
    2b00:	6121                	addi	sp,sp,64
    2b02:	8082                	ret
    2b04:	4801                	li	a6,0
    2b06:	7ff00613          	li	a2,2047
    2b0a:	000807b7          	lui	a5,0x80
    2b0e:	4701                	li	a4,0
    2b10:	b7f1                	j	2adc <__divdf3+0xce>
    2b12:	00c96733          	or	a4,s2,a2
    2b16:	c74d                	beqz	a4,2bc0 <__divdf3+0x1b2>
    2b18:	30090863          	beqz	s2,2e28 <__divdf3+0x41a>
    2b1c:	854a                	mv	a0,s2
    2b1e:	c432                	sw	a2,8(sp)
    2b20:	5c5000ef          	jal	ra,38e4 <__clzsi2>
    2b24:	4622                	lw	a2,8(sp)
    2b26:	ff550713          	addi	a4,a0,-11
    2b2a:	47f5                	li	a5,29
    2b2c:	ff850693          	addi	a3,a0,-8
    2b30:	8f99                	sub	a5,a5,a4
    2b32:	00d91933          	sll	s2,s2,a3
    2b36:	00f657b3          	srl	a5,a2,a5
    2b3a:	0127e733          	or	a4,a5,s2
    2b3e:	00d618b3          	sll	a7,a2,a3
    2b42:	9526                	add	a0,a0,s1
    2b44:	3f350493          	addi	s1,a0,1011
    2b48:	4581                	li	a1,0
    2b4a:	bfa1                	j	2aa2 <__divdf3+0x94>
    2b4c:	01246a33          	or	s4,s0,s2
    2b50:	060a0363          	beqz	s4,2bb6 <__divdf3+0x1a8>
    2b54:	c636                	sw	a3,12(sp)
    2b56:	c432                	sw	a2,8(sp)
    2b58:	2a040663          	beqz	s0,2e04 <__divdf3+0x3f6>
    2b5c:	8522                	mv	a0,s0
    2b5e:	587000ef          	jal	ra,38e4 <__clzsi2>
    2b62:	4622                	lw	a2,8(sp)
    2b64:	46b2                	lw	a3,12(sp)
    2b66:	84aa                	mv	s1,a0
    2b68:	ff550713          	addi	a4,a0,-11
    2b6c:	4a75                	li	s4,29
    2b6e:	ff848b13          	addi	s6,s1,-8
    2b72:	40ea0a33          	sub	s4,s4,a4
    2b76:	01641433          	sll	s0,s0,s6
    2b7a:	01495a33          	srl	s4,s2,s4
    2b7e:	008a6a33          	or	s4,s4,s0
    2b82:	01691b33          	sll	s6,s2,s6
    2b86:	c0d00513          	li	a0,-1011
    2b8a:	409504b3          	sub	s1,a0,s1
    2b8e:	4401                	li	s0,0
    2b90:	4b81                	li	s7,0
    2b92:	b5f9                	j	2a60 <__divdf3+0x52>
    2b94:	01246a33          	or	s4,s0,s2
    2b98:	000a1863          	bnez	s4,2ba8 <__divdf3+0x19a>
    2b9c:	4421                	li	s0,8
    2b9e:	4b01                	li	s6,0
    2ba0:	7ff00493          	li	s1,2047
    2ba4:	4b89                	li	s7,2
    2ba6:	bd6d                	j	2a60 <__divdf3+0x52>
    2ba8:	8a22                	mv	s4,s0
    2baa:	8b4a                	mv	s6,s2
    2bac:	4431                	li	s0,12
    2bae:	7ff00493          	li	s1,2047
    2bb2:	4b8d                	li	s7,3
    2bb4:	b575                	j	2a60 <__divdf3+0x52>
    2bb6:	4411                	li	s0,4
    2bb8:	4b01                	li	s6,0
    2bba:	4481                	li	s1,0
    2bbc:	4b85                	li	s7,1
    2bbe:	b54d                	j	2a60 <__divdf3+0x52>
    2bc0:	00146413          	ori	s0,s0,1
    2bc4:	4881                	li	a7,0
    2bc6:	4585                	li	a1,1
    2bc8:	bde9                	j	2aa2 <__divdf3+0x94>
    2bca:	00346413          	ori	s0,s0,3
    2bce:	874a                	mv	a4,s2
    2bd0:	458d                	li	a1,3
    2bd2:	bdc1                	j	2aa2 <__divdf3+0x94>
    2bd4:	2e050a63          	beqz	a0,2ec8 <__divdf3+0x4ba>
    2bd8:	4785                	li	a5,1
    2bda:	8f89                	sub	a5,a5,a0
    2bdc:	03800693          	li	a3,56
    2be0:	32f6dd63          	bge	a3,a5,2f1a <__divdf3+0x50c>
    2be4:	4601                	li	a2,0
    2be6:	4781                	li	a5,0
    2be8:	4701                	li	a4,0
    2bea:	bdcd                	j	2adc <__divdf3+0xce>
    2bec:	86ce                	mv	a3,s3
    2bee:	4789                	li	a5,2
    2bf0:	3af58d63          	beq	a1,a5,2faa <__divdf3+0x59c>
    2bf4:	478d                	li	a5,3
    2bf6:	f0f587e3          	beq	a1,a5,2b04 <__divdf3+0xf6>
    2bfa:	4785                	li	a5,1
    2bfc:	8836                	mv	a6,a3
    2bfe:	fef583e3          	beq	a1,a5,2be4 <__divdf3+0x1d6>
    2c02:	3ff48513          	addi	a0,s1,1023
    2c06:	fca057e3          	blez	a0,2bd4 <__divdf3+0x1c6>
    2c0a:	0078f793          	andi	a5,a7,7
    2c0e:	28079663          	bnez	a5,2e9a <__divdf3+0x48c>
    2c12:	0038d693          	srli	a3,a7,0x3
    2c16:	00771793          	slli	a5,a4,0x7
    2c1a:	0007d863          	bgez	a5,2c2a <__divdf3+0x21c>
    2c1e:	ff0007b7          	lui	a5,0xff000
    2c22:	17fd                	addi	a5,a5,-1
    2c24:	8f7d                	and	a4,a4,a5
    2c26:	40048513          	addi	a0,s1,1024
    2c2a:	7fe00793          	li	a5,2046
    2c2e:	eaa7c3e3          	blt	a5,a0,2ad4 <__divdf3+0xc6>
    2c32:	01d71613          	slli	a2,a4,0x1d
    2c36:	00971793          	slli	a5,a4,0x9
    2c3a:	83b1                	srli	a5,a5,0xc
    2c3c:	00d66733          	or	a4,a2,a3
    2c40:	7ff57613          	andi	a2,a0,2047
    2c44:	bd61                	j	2adc <__divdf3+0xce>
    2c46:	86d6                	mv	a3,s5
    2c48:	8752                	mv	a4,s4
    2c4a:	88da                	mv	a7,s6
    2c4c:	85de                	mv	a1,s7
    2c4e:	b745                	j	2bee <__divdf3+0x1e0>
    2c50:	23476163          	bltu	a4,s4,2e72 <__divdf3+0x464>
    2c54:	20ea0d63          	beq	s4,a4,2e6e <__divdf3+0x460>
    2c58:	86da                	mv	a3,s6
    2c5a:	14fd                	addi	s1,s1,-1
    2c5c:	8452                	mv	s0,s4
    2c5e:	4b01                	li	s6,0
    2c60:	00871793          	slli	a5,a4,0x8
    2c64:	0188d313          	srli	t1,a7,0x18
    2c68:	00f36333          	or	t1,t1,a5
    2c6c:	01035e93          	srli	t4,t1,0x10
    2c70:	03d457b3          	divu	a5,s0,t4
    2c74:	01031f13          	slli	t5,t1,0x10
    2c78:	010f5f13          	srli	t5,t5,0x10
    2c7c:	0106d593          	srli	a1,a3,0x10
    2c80:	00889e13          	slli	t3,a7,0x8
    2c84:	03d47433          	remu	s0,s0,t4
    2c88:	02ff0733          	mul	a4,t5,a5
    2c8c:	0442                	slli	s0,s0,0x10
    2c8e:	8dc1                	or	a1,a1,s0
    2c90:	00e5fb63          	bgeu	a1,a4,2ca6 <__divdf3+0x298>
    2c94:	959a                	add	a1,a1,t1
    2c96:	fff78613          	addi	a2,a5,-1 # feffffff <_eusrstack+0xdeff7fff>
    2c9a:	2665ee63          	bltu	a1,t1,2f16 <__divdf3+0x508>
    2c9e:	26e5fc63          	bgeu	a1,a4,2f16 <__divdf3+0x508>
    2ca2:	17f9                	addi	a5,a5,-2
    2ca4:	959a                	add	a1,a1,t1
    2ca6:	8d99                	sub	a1,a1,a4
    2ca8:	03d5d733          	divu	a4,a1,t4
    2cac:	06c2                	slli	a3,a3,0x10
    2cae:	82c1                	srli	a3,a3,0x10
    2cb0:	03d5f5b3          	remu	a1,a1,t4
    2cb4:	02ef0633          	mul	a2,t5,a4
    2cb8:	05c2                	slli	a1,a1,0x10
    2cba:	8dd5                	or	a1,a1,a3
    2cbc:	00c5fb63          	bgeu	a1,a2,2cd2 <__divdf3+0x2c4>
    2cc0:	959a                	add	a1,a1,t1
    2cc2:	fff70693          	addi	a3,a4,-1
    2cc6:	2465e663          	bltu	a1,t1,2f12 <__divdf3+0x504>
    2cca:	24c5f463          	bgeu	a1,a2,2f12 <__divdf3+0x504>
    2cce:	1779                	addi	a4,a4,-2
    2cd0:	959a                	add	a1,a1,t1
    2cd2:	07c2                	slli	a5,a5,0x10
    2cd4:	6441                	lui	s0,0x10
    2cd6:	8f5d                	or	a4,a4,a5
    2cd8:	fff40793          	addi	a5,s0,-1 # ffff <_data_lma+0x7cab>
    2cdc:	00f77533          	and	a0,a4,a5
    2ce0:	01075893          	srli	a7,a4,0x10
    2ce4:	010e5f93          	srli	t6,t3,0x10
    2ce8:	00fe77b3          	and	a5,t3,a5
    2cec:	02f502b3          	mul	t0,a0,a5
    2cf0:	40c586b3          	sub	a3,a1,a2
    2cf4:	02f883b3          	mul	t2,a7,a5
    2cf8:	0102d593          	srli	a1,t0,0x10
    2cfc:	02af8633          	mul	a2,t6,a0
    2d00:	961e                	add	a2,a2,t2
    2d02:	962e                	add	a2,a2,a1
    2d04:	03f88533          	mul	a0,a7,t6
    2d08:	00767363          	bgeu	a2,t2,2d0e <__divdf3+0x300>
    2d0c:	9522                	add	a0,a0,s0
    2d0e:	68c1                	lui	a7,0x10
    2d10:	18fd                	addi	a7,a7,-1
    2d12:	01065593          	srli	a1,a2,0x10
    2d16:	01167633          	and	a2,a2,a7
    2d1a:	0642                	slli	a2,a2,0x10
    2d1c:	0112f8b3          	and	a7,t0,a7
    2d20:	95aa                	add	a1,a1,a0
    2d22:	9646                	add	a2,a2,a7
    2d24:	12b6e663          	bltu	a3,a1,2e50 <__divdf3+0x442>
    2d28:	12b68263          	beq	a3,a1,2e4c <__divdf3+0x43e>
    2d2c:	40cb0633          	sub	a2,s6,a2
    2d30:	8e8d                	sub	a3,a3,a1
    2d32:	00cb3b33          	sltu	s6,s6,a2
    2d36:	41668b33          	sub	s6,a3,s6
    2d3a:	3ff48513          	addi	a0,s1,1023
    2d3e:	17630c63          	beq	t1,s6,2eb6 <__divdf3+0x4a8>
    2d42:	03db58b3          	divu	a7,s6,t4
    2d46:	01065593          	srli	a1,a2,0x10
    2d4a:	03db7b33          	remu	s6,s6,t4
    2d4e:	031f06b3          	mul	a3,t5,a7
    2d52:	0b42                	slli	s6,s6,0x10
    2d54:	0165eb33          	or	s6,a1,s6
    2d58:	00db7b63          	bgeu	s6,a3,2d6e <__divdf3+0x360>
    2d5c:	9b1a                	add	s6,s6,t1
    2d5e:	fff88593          	addi	a1,a7,-1 # ffff <_data_lma+0x7cab>
    2d62:	206b6d63          	bltu	s6,t1,2f7c <__divdf3+0x56e>
    2d66:	20db7b63          	bgeu	s6,a3,2f7c <__divdf3+0x56e>
    2d6a:	18f9                	addi	a7,a7,-2
    2d6c:	9b1a                	add	s6,s6,t1
    2d6e:	40db0b33          	sub	s6,s6,a3
    2d72:	03db56b3          	divu	a3,s6,t4
    2d76:	0642                	slli	a2,a2,0x10
    2d78:	8241                	srli	a2,a2,0x10
    2d7a:	03db7b33          	remu	s6,s6,t4
    2d7e:	02df0f33          	mul	t5,t5,a3
    2d82:	0b42                	slli	s6,s6,0x10
    2d84:	01666633          	or	a2,a2,s6
    2d88:	01e67b63          	bgeu	a2,t5,2d9e <__divdf3+0x390>
    2d8c:	961a                	add	a2,a2,t1
    2d8e:	fff68593          	addi	a1,a3,-1
    2d92:	1e666763          	bltu	a2,t1,2f80 <__divdf3+0x572>
    2d96:	1fe67563          	bgeu	a2,t5,2f80 <__divdf3+0x572>
    2d9a:	16f9                	addi	a3,a3,-2
    2d9c:	961a                	add	a2,a2,t1
    2d9e:	08c2                	slli	a7,a7,0x10
    2da0:	00d8e8b3          	or	a7,a7,a3
    2da4:	01089593          	slli	a1,a7,0x10
    2da8:	0108d293          	srli	t0,a7,0x10
    2dac:	81c1                	srli	a1,a1,0x10
    2dae:	02f58eb3          	mul	t4,a1,a5
    2db2:	41e60633          	sub	a2,a2,t5
    2db6:	02bf85b3          	mul	a1,t6,a1
    2dba:	010ed693          	srli	a3,t4,0x10
    2dbe:	02f287b3          	mul	a5,t0,a5
    2dc2:	95be                	add	a1,a1,a5
    2dc4:	96ae                	add	a3,a3,a1
    2dc6:	025f8fb3          	mul	t6,t6,t0
    2dca:	00f6f463          	bgeu	a3,a5,2dd2 <__divdf3+0x3c4>
    2dce:	67c1                	lui	a5,0x10
    2dd0:	9fbe                	add	t6,t6,a5
    2dd2:	65c1                	lui	a1,0x10
    2dd4:	15fd                	addi	a1,a1,-1
    2dd6:	0106d793          	srli	a5,a3,0x10
    2dda:	8eed                	and	a3,a3,a1
    2ddc:	06c2                	slli	a3,a3,0x10
    2dde:	00befeb3          	and	t4,t4,a1
    2de2:	9fbe                	add	t6,t6,a5
    2de4:	96f6                	add	a3,a3,t4
    2de6:	09f67f63          	bgeu	a2,t6,2e84 <__divdf3+0x476>
    2dea:	961a                	add	a2,a2,t1
    2dec:	fff88793          	addi	a5,a7,-1
    2df0:	1a666963          	bltu	a2,t1,2fa2 <__divdf3+0x594>
    2df4:	19f66863          	bltu	a2,t6,2f84 <__divdf3+0x576>
    2df8:	1bf60f63          	beq	a2,t6,2fb6 <__divdf3+0x5a8>
    2dfc:	88be                	mv	a7,a5
    2dfe:	0018e893          	ori	a7,a7,1
    2e02:	b511                	j	2c06 <__divdf3+0x1f8>
    2e04:	854a                	mv	a0,s2
    2e06:	2df000ef          	jal	ra,38e4 <__clzsi2>
    2e0a:	01550713          	addi	a4,a0,21
    2e0e:	45f1                	li	a1,28
    2e10:	02050493          	addi	s1,a0,32
    2e14:	4622                	lw	a2,8(sp)
    2e16:	46b2                	lw	a3,12(sp)
    2e18:	d4e5dae3          	bge	a1,a4,2b6c <__divdf3+0x15e>
    2e1c:	ff850413          	addi	s0,a0,-8
    2e20:	00891a33          	sll	s4,s2,s0
    2e24:	4b01                	li	s6,0
    2e26:	b385                	j	2b86 <__divdf3+0x178>
    2e28:	8532                	mv	a0,a2
    2e2a:	c432                	sw	a2,8(sp)
    2e2c:	2b9000ef          	jal	ra,38e4 <__clzsi2>
    2e30:	01550713          	addi	a4,a0,21
    2e34:	46f1                	li	a3,28
    2e36:	87aa                	mv	a5,a0
    2e38:	4622                	lw	a2,8(sp)
    2e3a:	02050513          	addi	a0,a0,32
    2e3e:	cee6d6e3          	bge	a3,a4,2b2a <__divdf3+0x11c>
    2e42:	17e1                	addi	a5,a5,-8
    2e44:	00f61733          	sll	a4,a2,a5
    2e48:	4881                	li	a7,0
    2e4a:	b9e5                	j	2b42 <__divdf3+0x134>
    2e4c:	eecb70e3          	bgeu	s6,a2,2d2c <__divdf3+0x31e>
    2e50:	9b72                	add	s6,s6,t3
    2e52:	01cb3533          	sltu	a0,s6,t3
    2e56:	951a                	add	a0,a0,t1
    2e58:	96aa                	add	a3,a3,a0
    2e5a:	fff70513          	addi	a0,a4,-1
    2e5e:	02d37863          	bgeu	t1,a3,2e8e <__divdf3+0x480>
    2e62:	10b6e663          	bltu	a3,a1,2f6e <__divdf3+0x560>
    2e66:	10d58263          	beq	a1,a3,2f6a <__divdf3+0x55c>
    2e6a:	872a                	mv	a4,a0
    2e6c:	b5c1                	j	2d2c <__divdf3+0x31e>
    2e6e:	df1b65e3          	bltu	s6,a7,2c58 <__divdf3+0x24a>
    2e72:	001b5593          	srli	a1,s6,0x1
    2e76:	01fa1693          	slli	a3,s4,0x1f
    2e7a:	001a5413          	srli	s0,s4,0x1
    2e7e:	8ecd                	or	a3,a3,a1
    2e80:	0b7e                	slli	s6,s6,0x1f
    2e82:	bbf9                	j	2c60 <__divdf3+0x252>
    2e84:	f7f61de3          	bne	a2,t6,2dfe <__divdf3+0x3f0>
    2e88:	d6068fe3          	beqz	a3,2c06 <__divdf3+0x1f8>
    2e8c:	bfb9                	j	2dea <__divdf3+0x3dc>
    2e8e:	fcd31ee3          	bne	t1,a3,2e6a <__divdf3+0x45c>
    2e92:	fdcb78e3          	bgeu	s6,t3,2e62 <__divdf3+0x454>
    2e96:	872a                	mv	a4,a0
    2e98:	bd51                	j	2d2c <__divdf3+0x31e>
    2e9a:	00f8f793          	andi	a5,a7,15
    2e9e:	4691                	li	a3,4
    2ea0:	d6d789e3          	beq	a5,a3,2c12 <__divdf3+0x204>
    2ea4:	ffc8b793          	sltiu	a5,a7,-4
    2ea8:	00488693          	addi	a3,a7,4
    2eac:	0017c793          	xori	a5,a5,1
    2eb0:	828d                	srli	a3,a3,0x3
    2eb2:	973e                	add	a4,a4,a5
    2eb4:	b38d                	j	2c16 <__divdf3+0x208>
    2eb6:	4681                	li	a3,0
    2eb8:	4785                	li	a5,1
    2eba:	fea04ce3          	bgtz	a0,2eb2 <__divdf3+0x4a4>
    2ebe:	58fd                	li	a7,-1
    2ec0:	d0051ce3          	bnez	a0,2bd8 <__divdf3+0x1ca>
    2ec4:	c0100493          	li	s1,-1023
    2ec8:	4785                	li	a5,1
    2eca:	41e48513          	addi	a0,s1,1054
    2ece:	00a716b3          	sll	a3,a4,a0
    2ed2:	00f8d633          	srl	a2,a7,a5
    2ed6:	00a89533          	sll	a0,a7,a0
    2eda:	8ed1                	or	a3,a3,a2
    2edc:	00a03533          	snez	a0,a0
    2ee0:	8ec9                	or	a3,a3,a0
    2ee2:	0076f613          	andi	a2,a3,7
    2ee6:	00f75733          	srl	a4,a4,a5
    2eea:	ce01                	beqz	a2,2f02 <__divdf3+0x4f4>
    2eec:	00f6f793          	andi	a5,a3,15
    2ef0:	4611                	li	a2,4
    2ef2:	00c78863          	beq	a5,a2,2f02 <__divdf3+0x4f4>
    2ef6:	00468793          	addi	a5,a3,4
    2efa:	00d7b6b3          	sltu	a3,a5,a3
    2efe:	9736                	add	a4,a4,a3
    2f00:	86be                	mv	a3,a5
    2f02:	00871793          	slli	a5,a4,0x8
    2f06:	0407d863          	bgez	a5,2f56 <__divdf3+0x548>
    2f0a:	4605                	li	a2,1
    2f0c:	4781                	li	a5,0
    2f0e:	4701                	li	a4,0
    2f10:	b6f1                	j	2adc <__divdf3+0xce>
    2f12:	8736                	mv	a4,a3
    2f14:	bb7d                	j	2cd2 <__divdf3+0x2c4>
    2f16:	87b2                	mv	a5,a2
    2f18:	b379                	j	2ca6 <__divdf3+0x298>
    2f1a:	46fd                	li	a3,31
    2f1c:	faf6d7e3          	bge	a3,a5,2eca <__divdf3+0x4bc>
    2f20:	5605                	li	a2,-31
    2f22:	8e09                	sub	a2,a2,a0
    2f24:	02000693          	li	a3,32
    2f28:	00c75633          	srl	a2,a4,a2
    2f2c:	00d78863          	beq	a5,a3,2f3c <__divdf3+0x52e>
    2f30:	43e48793          	addi	a5,s1,1086
    2f34:	00f717b3          	sll	a5,a4,a5
    2f38:	00f8e8b3          	or	a7,a7,a5
    2f3c:	011036b3          	snez	a3,a7
    2f40:	8ed1                	or	a3,a3,a2
    2f42:	0076f613          	andi	a2,a3,7
    2f46:	4781                	li	a5,0
    2f48:	ce01                	beqz	a2,2f60 <__divdf3+0x552>
    2f4a:	00f6f793          	andi	a5,a3,15
    2f4e:	4611                	li	a2,4
    2f50:	4701                	li	a4,0
    2f52:	fac792e3          	bne	a5,a2,2ef6 <__divdf3+0x4e8>
    2f56:	00971793          	slli	a5,a4,0x9
    2f5a:	01d71613          	slli	a2,a4,0x1d
    2f5e:	83b1                	srli	a5,a5,0xc
    2f60:	0036d713          	srli	a4,a3,0x3
    2f64:	8f51                	or	a4,a4,a2
    2f66:	4601                	li	a2,0
    2f68:	be95                	j	2adc <__divdf3+0xce>
    2f6a:	f0cb70e3          	bgeu	s6,a2,2e6a <__divdf3+0x45c>
    2f6e:	9b72                	add	s6,s6,t3
    2f70:	01cb3533          	sltu	a0,s6,t3
    2f74:	951a                	add	a0,a0,t1
    2f76:	1779                	addi	a4,a4,-2
    2f78:	96aa                	add	a3,a3,a0
    2f7a:	bb4d                	j	2d2c <__divdf3+0x31e>
    2f7c:	88ae                	mv	a7,a1
    2f7e:	bbc5                	j	2d6e <__divdf3+0x360>
    2f80:	86ae                	mv	a3,a1
    2f82:	bd31                	j	2d9e <__divdf3+0x390>
    2f84:	001e1793          	slli	a5,t3,0x1
    2f88:	01c7be33          	sltu	t3,a5,t3
    2f8c:	9372                	add	t1,t1,t3
    2f8e:	961a                	add	a2,a2,t1
    2f90:	18f9                	addi	a7,a7,-2
    2f92:	8e3e                	mv	t3,a5
    2f94:	e7f615e3          	bne	a2,t6,2dfe <__divdf3+0x3f0>
    2f98:	c6de07e3          	beq	t3,a3,2c06 <__divdf3+0x1f8>
    2f9c:	0018e893          	ori	a7,a7,1
    2fa0:	b19d                	j	2c06 <__divdf3+0x1f8>
    2fa2:	88be                	mv	a7,a5
    2fa4:	fff60ae3          	beq	a2,t6,2f98 <__divdf3+0x58a>
    2fa8:	bd99                	j	2dfe <__divdf3+0x3f0>
    2faa:	8836                	mv	a6,a3
    2fac:	7ff00613          	li	a2,2047
    2fb0:	4781                	li	a5,0
    2fb2:	4701                	li	a4,0
    2fb4:	b625                	j	2adc <__divdf3+0xce>
    2fb6:	fcde67e3          	bltu	t3,a3,2f84 <__divdf3+0x576>
    2fba:	88be                	mv	a7,a5
    2fbc:	fede10e3          	bne	t3,a3,2f9c <__divdf3+0x58e>
    2fc0:	b199                	j	2c06 <__divdf3+0x1f8>

00002fc2 <__floatunsidf>:
    2fc2:	cd1d                	beqz	a0,3000 <__floatunsidf+0x3e>
    2fc4:	1141                	addi	sp,sp,-16
    2fc6:	c422                	sw	s0,8(sp)
    2fc8:	c606                	sw	ra,12(sp)
    2fca:	842a                	mv	s0,a0
    2fcc:	119000ef          	jal	ra,38e4 <__clzsi2>
    2fd0:	41e00693          	li	a3,1054
    2fd4:	8e89                	sub	a3,a3,a0
    2fd6:	47a9                	li	a5,10
    2fd8:	7ff6f693          	andi	a3,a3,2047
    2fdc:	02a7dc63          	bge	a5,a0,3014 <__floatunsidf+0x52>
    2fe0:	1555                	addi	a0,a0,-11
    2fe2:	00a417b3          	sll	a5,s0,a0
    2fe6:	07b2                	slli	a5,a5,0xc
    2fe8:	83b1                	srli	a5,a5,0xc
    2fea:	4701                	li	a4,0
    2fec:	40b2                	lw	ra,12(sp)
    2fee:	4422                	lw	s0,8(sp)
    2ff0:	07b2                	slli	a5,a5,0xc
    2ff2:	06d2                	slli	a3,a3,0x14
    2ff4:	83b1                	srli	a5,a5,0xc
    2ff6:	8fd5                	or	a5,a5,a3
    2ff8:	853a                	mv	a0,a4
    2ffa:	85be                	mv	a1,a5
    2ffc:	0141                	addi	sp,sp,16
    2ffe:	8082                	ret
    3000:	4781                	li	a5,0
    3002:	4681                	li	a3,0
    3004:	07b2                	slli	a5,a5,0xc
    3006:	06d2                	slli	a3,a3,0x14
    3008:	83b1                	srli	a5,a5,0xc
    300a:	4701                	li	a4,0
    300c:	8fd5                	or	a5,a5,a3
    300e:	853a                	mv	a0,a4
    3010:	85be                	mv	a1,a5
    3012:	8082                	ret
    3014:	472d                	li	a4,11
    3016:	8f09                	sub	a4,a4,a0
    3018:	00e457b3          	srl	a5,s0,a4
    301c:	07b2                	slli	a5,a5,0xc
    301e:	01550713          	addi	a4,a0,21
    3022:	00e41733          	sll	a4,s0,a4
    3026:	83b1                	srli	a5,a5,0xc
    3028:	b7d1                	j	2fec <__floatunsidf+0x2a>

0000302a <__addsf3>:
    302a:	1141                	addi	sp,sp,-16
    302c:	00800737          	lui	a4,0x800
    3030:	177d                	addi	a4,a4,-1
    3032:	0175d813          	srli	a6,a1,0x17
    3036:	c226                	sw	s1,4(sp)
    3038:	01755493          	srli	s1,a0,0x17
    303c:	00a77333          	and	t1,a4,a0
    3040:	0ff4f493          	andi	s1,s1,255
    3044:	00b776b3          	and	a3,a4,a1
    3048:	c04a                	sw	s2,0(sp)
    304a:	0ff87813          	andi	a6,a6,255
    304e:	01f55913          	srli	s2,a0,0x1f
    3052:	c606                	sw	ra,12(sp)
    3054:	c422                	sw	s0,8(sp)
    3056:	81fd                	srli	a1,a1,0x1f
    3058:	879a                	mv	a5,t1
    305a:	8526                	mv	a0,s1
    305c:	864a                	mv	a2,s2
    305e:	00331e13          	slli	t3,t1,0x3
    3062:	00369e93          	slli	t4,a3,0x3
    3066:	410488b3          	sub	a7,s1,a6
    306a:	0eb90a63          	beq	s2,a1,315e <__addsf3+0x134>
    306e:	0d105063          	blez	a7,312e <__addsf3+0x104>
    3072:	14080463          	beqz	a6,31ba <__addsf3+0x190>
    3076:	0ff00793          	li	a5,255
    307a:	14f48b63          	beq	s1,a5,31d0 <__addsf3+0x1a6>
    307e:	040007b7          	lui	a5,0x4000
    3082:	00feeeb3          	or	t4,t4,a5
    3086:	47ed                	li	a5,27
    3088:	2917c163          	blt	a5,a7,330a <__addsf3+0x2e0>
    308c:	02000793          	li	a5,32
    3090:	411787b3          	sub	a5,a5,a7
    3094:	00fe97b3          	sll	a5,t4,a5
    3098:	011ed8b3          	srl	a7,t4,a7
    309c:	00f037b3          	snez	a5,a5
    30a0:	00f8e7b3          	or	a5,a7,a5
    30a4:	40fe07b3          	sub	a5,t3,a5
    30a8:	00579713          	slli	a4,a5,0x5
    30ac:	18075e63          	bgez	a4,3248 <__addsf3+0x21e>
    30b0:	04000437          	lui	s0,0x4000
    30b4:	147d                	addi	s0,s0,-1
    30b6:	8c7d                	and	s0,s0,a5
    30b8:	8522                	mv	a0,s0
    30ba:	02b000ef          	jal	ra,38e4 <__clzsi2>
    30be:	156d                	addi	a0,a0,-5
    30c0:	00a417b3          	sll	a5,s0,a0
    30c4:	1a954863          	blt	a0,s1,3274 <__addsf3+0x24a>
    30c8:	8d05                	sub	a0,a0,s1
    30ca:	00150413          	addi	s0,a0,1
    30ce:	02000713          	li	a4,32
    30d2:	8f01                	sub	a4,a4,s0
    30d4:	00e79733          	sll	a4,a5,a4
    30d8:	00e03733          	snez	a4,a4
    30dc:	0087d7b3          	srl	a5,a5,s0
    30e0:	8fd9                	or	a5,a5,a4
    30e2:	4481                	li	s1,0
    30e4:	0077f713          	andi	a4,a5,7
    30e8:	c719                	beqz	a4,30f6 <__addsf3+0xcc>
    30ea:	00f7f713          	andi	a4,a5,15
    30ee:	4691                	li	a3,4
    30f0:	00d70363          	beq	a4,a3,30f6 <__addsf3+0xcc>
    30f4:	0791                	addi	a5,a5,4
    30f6:	00579713          	slli	a4,a5,0x5
    30fa:	14075b63          	bgez	a4,3250 <__addsf3+0x226>
    30fe:	0485                	addi	s1,s1,1
    3100:	0ff00713          	li	a4,255
    3104:	864a                	mv	a2,s2
    3106:	16e48363          	beq	s1,a4,326c <__addsf3+0x242>
    310a:	079a                	slli	a5,a5,0x6
    310c:	83a5                	srli	a5,a5,0x9
    310e:	0ff4f513          	andi	a0,s1,255
    3112:	40b2                	lw	ra,12(sp)
    3114:	4422                	lw	s0,8(sp)
    3116:	07a6                	slli	a5,a5,0x9
    3118:	01751493          	slli	s1,a0,0x17
    311c:	0097d513          	srli	a0,a5,0x9
    3120:	8d45                	or	a0,a0,s1
    3122:	067e                	slli	a2,a2,0x1f
    3124:	4492                	lw	s1,4(sp)
    3126:	4902                	lw	s2,0(sp)
    3128:	8d51                	or	a0,a0,a2
    312a:	0141                	addi	sp,sp,16
    312c:	8082                	ret
    312e:	0a089963          	bnez	a7,31e0 <__addsf3+0x1b6>
    3132:	00148713          	addi	a4,s1,1
    3136:	0fe77713          	andi	a4,a4,254
    313a:	14071763          	bnez	a4,3288 <__addsf3+0x25e>
    313e:	22049063          	bnez	s1,335e <__addsf3+0x334>
    3142:	1e0e0d63          	beqz	t3,333c <__addsf3+0x312>
    3146:	fc0e86e3          	beqz	t4,3112 <__addsf3+0xe8>
    314a:	41de07b3          	sub	a5,t3,t4
    314e:	00579713          	slli	a4,a5,0x5
    3152:	22075063          	bgez	a4,3372 <__addsf3+0x348>
    3156:	41ce87b3          	sub	a5,t4,t3
    315a:	892e                	mv	s2,a1
    315c:	b761                	j	30e4 <__addsf3+0xba>
    315e:	0b105c63          	blez	a7,3216 <__addsf3+0x1ec>
    3162:	08080e63          	beqz	a6,31fe <__addsf3+0x1d4>
    3166:	0ff00793          	li	a5,255
    316a:	06f48363          	beq	s1,a5,31d0 <__addsf3+0x1a6>
    316e:	040007b7          	lui	a5,0x4000
    3172:	00feeeb3          	or	t4,t4,a5
    3176:	47ed                	li	a5,27
    3178:	1f17c963          	blt	a5,a7,336a <__addsf3+0x340>
    317c:	02000793          	li	a5,32
    3180:	411787b3          	sub	a5,a5,a7
    3184:	00fe97b3          	sll	a5,t4,a5
    3188:	011ed8b3          	srl	a7,t4,a7
    318c:	00f037b3          	snez	a5,a5
    3190:	00f8e7b3          	or	a5,a7,a5
    3194:	97f2                	add	a5,a5,t3
    3196:	00579713          	slli	a4,a5,0x5
    319a:	0a075763          	bgez	a4,3248 <__addsf3+0x21e>
    319e:	0485                	addi	s1,s1,1
    31a0:	0ff00713          	li	a4,255
    31a4:	0ce48463          	beq	s1,a4,326c <__addsf3+0x242>
    31a8:	7e0006b7          	lui	a3,0x7e000
    31ac:	0017d713          	srli	a4,a5,0x1
    31b0:	16fd                	addi	a3,a3,-1
    31b2:	8b85                	andi	a5,a5,1
    31b4:	8f75                	and	a4,a4,a3
    31b6:	8fd9                	or	a5,a5,a4
    31b8:	b735                	j	30e4 <__addsf3+0xba>
    31ba:	080e8d63          	beqz	t4,3254 <__addsf3+0x22a>
    31be:	18fd                	addi	a7,a7,-1
    31c0:	41de07b3          	sub	a5,t3,t4
    31c4:	ee0882e3          	beqz	a7,30a8 <__addsf3+0x7e>
    31c8:	0ff00793          	li	a5,255
    31cc:	eaf49de3          	bne	s1,a5,3086 <__addsf3+0x5c>
    31d0:	08030d63          	beqz	t1,326a <__addsf3+0x240>
    31d4:	4601                	li	a2,0
    31d6:	0ff00513          	li	a0,255
    31da:	004007b7          	lui	a5,0x400
    31de:	bf15                	j	3112 <__addsf3+0xe8>
    31e0:	40980733          	sub	a4,a6,s1
    31e4:	e8ed                	bnez	s1,32d6 <__addsf3+0x2ac>
    31e6:	140e0263          	beqz	t3,332a <__addsf3+0x300>
    31ea:	177d                	addi	a4,a4,-1
    31ec:	18070863          	beqz	a4,337c <__addsf3+0x352>
    31f0:	0ff00793          	li	a5,255
    31f4:	0ef81963          	bne	a6,a5,32e6 <__addsf3+0x2bc>
    31f8:	892e                	mv	s2,a1
    31fa:	8336                	mv	t1,a3
    31fc:	bfd1                	j	31d0 <__addsf3+0x1a6>
    31fe:	040e8b63          	beqz	t4,3254 <__addsf3+0x22a>
    3202:	18fd                	addi	a7,a7,-1
    3204:	01de07b3          	add	a5,t3,t4
    3208:	f80887e3          	beqz	a7,3196 <__addsf3+0x16c>
    320c:	0ff00793          	li	a5,255
    3210:	f6f493e3          	bne	s1,a5,3176 <__addsf3+0x14c>
    3214:	bf75                	j	31d0 <__addsf3+0x1a6>
    3216:	08089563          	bnez	a7,32a0 <__addsf3+0x276>
    321a:	0485                	addi	s1,s1,1
    321c:	0fe4f713          	andi	a4,s1,254
    3220:	12071363          	bnez	a4,3346 <__addsf3+0x31c>
    3224:	10051763          	bnez	a0,3332 <__addsf3+0x308>
    3228:	140e0f63          	beqz	t3,3386 <__addsf3+0x35c>
    322c:	ee0e83e3          	beqz	t4,3112 <__addsf3+0xe8>
    3230:	01de07b3          	add	a5,t3,t4
    3234:	00579713          	slli	a4,a5,0x5
    3238:	4481                	li	s1,0
    323a:	00075763          	bgez	a4,3248 <__addsf3+0x21e>
    323e:	fc000737          	lui	a4,0xfc000
    3242:	177d                	addi	a4,a4,-1
    3244:	8ff9                	and	a5,a5,a4
    3246:	4485                	li	s1,1
    3248:	0077f713          	andi	a4,a5,7
    324c:	e8071fe3          	bnez	a4,30ea <__addsf3+0xc0>
    3250:	0037d313          	srli	t1,a5,0x3
    3254:	0ff00793          	li	a5,255
    3258:	f6f48ce3          	beq	s1,a5,31d0 <__addsf3+0x1a6>
    325c:	00931793          	slli	a5,t1,0x9
    3260:	83a5                	srli	a5,a5,0x9
    3262:	0ff4f513          	andi	a0,s1,255
    3266:	864a                	mv	a2,s2
    3268:	b56d                	j	3112 <__addsf3+0xe8>
    326a:	864a                	mv	a2,s2
    326c:	0ff00513          	li	a0,255
    3270:	4781                	li	a5,0
    3272:	b545                	j	3112 <__addsf3+0xe8>
    3274:	fc000737          	lui	a4,0xfc000
    3278:	177d                	addi	a4,a4,-1
    327a:	8ff9                	and	a5,a5,a4
    327c:	0077f713          	andi	a4,a5,7
    3280:	8c89                	sub	s1,s1,a0
    3282:	e60714e3          	bnez	a4,30ea <__addsf3+0xc0>
    3286:	b7e9                	j	3250 <__addsf3+0x226>
    3288:	41de0433          	sub	s0,t3,t4
    328c:	00541793          	slli	a5,s0,0x5
    3290:	0c07c363          	bltz	a5,3356 <__addsf3+0x32c>
    3294:	e20412e3          	bnez	s0,30b8 <__addsf3+0x8e>
    3298:	4601                	li	a2,0
    329a:	4501                	li	a0,0
    329c:	4781                	li	a5,0
    329e:	bd95                	j	3112 <__addsf3+0xe8>
    32a0:	40980733          	sub	a4,a6,s1
    32a4:	c4ad                	beqz	s1,330e <__addsf3+0x2e4>
    32a6:	0ff00793          	li	a5,255
    32aa:	f4f808e3          	beq	a6,a5,31fa <__addsf3+0x1d0>
    32ae:	040007b7          	lui	a5,0x4000
    32b2:	00fe6e33          	or	t3,t3,a5
    32b6:	47ed                	li	a5,27
    32b8:	0ce7cc63          	blt	a5,a4,3390 <__addsf3+0x366>
    32bc:	02000793          	li	a5,32
    32c0:	8f99                	sub	a5,a5,a4
    32c2:	00fe17b3          	sll	a5,t3,a5
    32c6:	00ee5733          	srl	a4,t3,a4
    32ca:	00f037b3          	snez	a5,a5
    32ce:	8fd9                	or	a5,a5,a4
    32d0:	97f6                	add	a5,a5,t4
    32d2:	84c2                	mv	s1,a6
    32d4:	b5c9                	j	3196 <__addsf3+0x16c>
    32d6:	0ff00793          	li	a5,255
    32da:	f0f80fe3          	beq	a6,a5,31f8 <__addsf3+0x1ce>
    32de:	040007b7          	lui	a5,0x4000
    32e2:	00fe6e33          	or	t3,t3,a5
    32e6:	47ed                	li	a5,27
    32e8:	08e7c363          	blt	a5,a4,336e <__addsf3+0x344>
    32ec:	02000693          	li	a3,32
    32f0:	8e99                	sub	a3,a3,a4
    32f2:	00de16b3          	sll	a3,t3,a3
    32f6:	00ee57b3          	srl	a5,t3,a4
    32fa:	00d03733          	snez	a4,a3
    32fe:	8fd9                	or	a5,a5,a4
    3300:	40fe87b3          	sub	a5,t4,a5
    3304:	84c2                	mv	s1,a6
    3306:	892e                	mv	s2,a1
    3308:	b345                	j	30a8 <__addsf3+0x7e>
    330a:	4785                	li	a5,1
    330c:	bb61                	j	30a4 <__addsf3+0x7a>
    330e:	060e0e63          	beqz	t3,338a <__addsf3+0x360>
    3312:	177d                	addi	a4,a4,-1
    3314:	01de07b3          	add	a5,t3,t4
    3318:	84c2                	mv	s1,a6
    331a:	e6070ee3          	beqz	a4,3196 <__addsf3+0x16c>
    331e:	0ff00793          	li	a5,255
    3322:	f8f81ae3          	bne	a6,a5,32b6 <__addsf3+0x28c>
    3326:	8336                	mv	t1,a3
    3328:	b565                	j	31d0 <__addsf3+0x1a6>
    332a:	8336                	mv	t1,a3
    332c:	84c2                	mv	s1,a6
    332e:	892e                	mv	s2,a1
    3330:	b715                	j	3254 <__addsf3+0x22a>
    3332:	ec0e04e3          	beqz	t3,31fa <__addsf3+0x1d0>
    3336:	e80e8de3          	beqz	t4,31d0 <__addsf3+0x1a6>
    333a:	bd69                	j	31d4 <__addsf3+0x1aa>
    333c:	020e8d63          	beqz	t4,3376 <__addsf3+0x34c>
    3340:	862e                	mv	a2,a1
    3342:	87b6                	mv	a5,a3
    3344:	b3f9                	j	3112 <__addsf3+0xe8>
    3346:	0ff00793          	li	a5,255
    334a:	f2f481e3          	beq	s1,a5,326c <__addsf3+0x242>
    334e:	01de07b3          	add	a5,t3,t4
    3352:	8385                	srli	a5,a5,0x1
    3354:	bdd5                	j	3248 <__addsf3+0x21e>
    3356:	41ce8433          	sub	s0,t4,t3
    335a:	892e                	mv	s2,a1
    335c:	bbb1                	j	30b8 <__addsf3+0x8e>
    335e:	fc0e1ce3          	bnez	t3,3336 <__addsf3+0x30c>
    3362:	e60e89e3          	beqz	t4,31d4 <__addsf3+0x1aa>
    3366:	892e                	mv	s2,a1
    3368:	bd49                	j	31fa <__addsf3+0x1d0>
    336a:	4785                	li	a5,1
    336c:	b525                	j	3194 <__addsf3+0x16a>
    336e:	4785                	li	a5,1
    3370:	bf41                	j	3300 <__addsf3+0x2d6>
    3372:	ec079be3          	bnez	a5,3248 <__addsf3+0x21e>
    3376:	4601                	li	a2,0
    3378:	4781                	li	a5,0
    337a:	bb61                	j	3112 <__addsf3+0xe8>
    337c:	41ce87b3          	sub	a5,t4,t3
    3380:	84c2                	mv	s1,a6
    3382:	892e                	mv	s2,a1
    3384:	b315                	j	30a8 <__addsf3+0x7e>
    3386:	87b6                	mv	a5,a3
    3388:	b369                	j	3112 <__addsf3+0xe8>
    338a:	8336                	mv	t1,a3
    338c:	84c2                	mv	s1,a6
    338e:	b5d9                	j	3254 <__addsf3+0x22a>
    3390:	4785                	li	a5,1
    3392:	bf3d                	j	32d0 <__addsf3+0x2a6>

00003394 <__divsf3>:
    3394:	7139                	addi	sp,sp,-64
    3396:	01755793          	srli	a5,a0,0x17
    339a:	d84a                	sw	s2,48(sp)
    339c:	d256                	sw	s5,36(sp)
    339e:	ce5e                	sw	s7,28(sp)
    33a0:	00951a93          	slli	s5,a0,0x9
    33a4:	01f55913          	srli	s2,a0,0x1f
    33a8:	de06                	sw	ra,60(sp)
    33aa:	dc22                	sw	s0,56(sp)
    33ac:	da26                	sw	s1,52(sp)
    33ae:	d64e                	sw	s3,44(sp)
    33b0:	d452                	sw	s4,40(sp)
    33b2:	d05a                	sw	s6,32(sp)
    33b4:	0ff7f793          	andi	a5,a5,255
    33b8:	009ada93          	srli	s5,s5,0x9
    33bc:	8bca                	mv	s7,s2
    33be:	12078263          	beqz	a5,34e2 <__divsf3+0x14e>
    33c2:	0ff00713          	li	a4,255
    33c6:	12e78463          	beq	a5,a4,34ee <__divsf3+0x15a>
    33ca:	0a8e                	slli	s5,s5,0x3
    33cc:	04000737          	lui	a4,0x4000
    33d0:	00eaeab3          	or	s5,s5,a4
    33d4:	f8178a13          	addi	s4,a5,-127 # 3ffff81 <_data_lma+0x3ff7c2d>
    33d8:	4401                	li	s0,0
    33da:	4b01                	li	s6,0
    33dc:	0175d793          	srli	a5,a1,0x17
    33e0:	00959493          	slli	s1,a1,0x9
    33e4:	0ff7f793          	andi	a5,a5,255
    33e8:	80a5                	srli	s1,s1,0x9
    33ea:	01f5d993          	srli	s3,a1,0x1f
    33ee:	c7fd                	beqz	a5,34dc <__divsf3+0x148>
    33f0:	0ff00713          	li	a4,255
    33f4:	02e78763          	beq	a5,a4,3422 <__divsf3+0x8e>
    33f8:	048e                	slli	s1,s1,0x3
    33fa:	f8178793          	addi	a5,a5,-127
    33fe:	04000737          	lui	a4,0x4000
    3402:	8cd9                	or	s1,s1,a4
    3404:	40fa0a33          	sub	s4,s4,a5
    3408:	4681                	li	a3,0
    340a:	8c55                	or	s0,s0,a3
    340c:	00005717          	auipc	a4,0x5
    3410:	d2c70713          	addi	a4,a4,-724 # 8138 <asc2_3216+0x185c>
    3414:	040a                	slli	s0,s0,0x2
    3416:	943a                	add	s0,s0,a4
    3418:	401c                	lw	a5,0(s0)
    341a:	01394933          	xor	s2,s2,s3
    341e:	97ba                	add	a5,a5,a4
    3420:	8782                	jr	a5
    3422:	f01a0a13          	addi	s4,s4,-255 # 7fff01 <_data_lma+0x7f7bad>
    3426:	e8f9                	bnez	s1,34fc <__divsf3+0x168>
    3428:	4689                	li	a3,2
    342a:	8c55                	or	s0,s0,a3
    342c:	00005717          	auipc	a4,0x5
    3430:	d4c70713          	addi	a4,a4,-692 # 8178 <asc2_3216+0x189c>
    3434:	040a                	slli	s0,s0,0x2
    3436:	943a                	add	s0,s0,a4
    3438:	401c                	lw	a5,0(s0)
    343a:	01394933          	xor	s2,s2,s3
    343e:	97ba                	add	a5,a5,a4
    3440:	8782                	jr	a5
    3442:	4901                	li	s2,0
    3444:	0ff00713          	li	a4,255
    3448:	004007b7          	lui	a5,0x400
    344c:	00979513          	slli	a0,a5,0x9
    3450:	50f2                	lw	ra,60(sp)
    3452:	5462                	lw	s0,56(sp)
    3454:	01771793          	slli	a5,a4,0x17
    3458:	8125                	srli	a0,a0,0x9
    345a:	097e                	slli	s2,s2,0x1f
    345c:	8d5d                	or	a0,a0,a5
    345e:	01256533          	or	a0,a0,s2
    3462:	54d2                	lw	s1,52(sp)
    3464:	5942                	lw	s2,48(sp)
    3466:	59b2                	lw	s3,44(sp)
    3468:	5a22                	lw	s4,40(sp)
    346a:	5a92                	lw	s5,36(sp)
    346c:	5b02                	lw	s6,32(sp)
    346e:	4bf2                	lw	s7,28(sp)
    3470:	6121                	addi	sp,sp,64
    3472:	8082                	ret
    3474:	0ff00713          	li	a4,255
    3478:	4781                	li	a5,0
    347a:	bfc9                	j	344c <__divsf3+0xb8>
    347c:	8aa6                	mv	s5,s1
    347e:	8bce                	mv	s7,s3
    3480:	8b36                	mv	s6,a3
    3482:	4789                	li	a5,2
    3484:	1afb0963          	beq	s6,a5,3636 <__divsf3+0x2a2>
    3488:	478d                	li	a5,3
    348a:	fafb0ce3          	beq	s6,a5,3442 <__divsf3+0xae>
    348e:	4785                	li	a5,1
    3490:	0afb0863          	beq	s6,a5,3540 <__divsf3+0x1ac>
    3494:	07fa0713          	addi	a4,s4,127
    3498:	001bf913          	andi	s2,s7,1
    349c:	12e05563          	blez	a4,35c6 <__divsf3+0x232>
    34a0:	007af793          	andi	a5,s5,7
    34a4:	c799                	beqz	a5,34b2 <__divsf3+0x11e>
    34a6:	00faf793          	andi	a5,s5,15
    34aa:	4691                	li	a3,4
    34ac:	00d78363          	beq	a5,a3,34b2 <__divsf3+0x11e>
    34b0:	0a91                	addi	s5,s5,4
    34b2:	004a9793          	slli	a5,s5,0x4
    34b6:	0007d963          	bgez	a5,34c8 <__divsf3+0x134>
    34ba:	f80007b7          	lui	a5,0xf8000
    34be:	17fd                	addi	a5,a5,-1
    34c0:	00fafab3          	and	s5,s5,a5
    34c4:	080a0713          	addi	a4,s4,128
    34c8:	0fe00793          	li	a5,254
    34cc:	fae7c4e3          	blt	a5,a4,3474 <__divsf3+0xe0>
    34d0:	006a9793          	slli	a5,s5,0x6
    34d4:	83a5                	srli	a5,a5,0x9
    34d6:	0ff77713          	andi	a4,a4,255
    34da:	bf8d                	j	344c <__divsf3+0xb8>
    34dc:	e4b1                	bnez	s1,3528 <__divsf3+0x194>
    34de:	4685                	li	a3,1
    34e0:	b7a9                	j	342a <__divsf3+0x96>
    34e2:	020a9463          	bnez	s5,350a <__divsf3+0x176>
    34e6:	4411                	li	s0,4
    34e8:	4a01                	li	s4,0
    34ea:	4b05                	li	s6,1
    34ec:	bdc5                	j	33dc <__divsf3+0x48>
    34ee:	000a9963          	bnez	s5,3500 <__divsf3+0x16c>
    34f2:	4421                	li	s0,8
    34f4:	0ff00a13          	li	s4,255
    34f8:	4b09                	li	s6,2
    34fa:	b5cd                	j	33dc <__divsf3+0x48>
    34fc:	468d                	li	a3,3
    34fe:	b731                	j	340a <__divsf3+0x76>
    3500:	4431                	li	s0,12
    3502:	0ff00a13          	li	s4,255
    3506:	4b0d                	li	s6,3
    3508:	bdd1                	j	33dc <__divsf3+0x48>
    350a:	8556                	mv	a0,s5
    350c:	c62e                	sw	a1,12(sp)
    350e:	2ed9                	jal	38e4 <__clzsi2>
    3510:	ffb50793          	addi	a5,a0,-5
    3514:	00fa9ab3          	sll	s5,s5,a5
    3518:	f8a00793          	li	a5,-118
    351c:	40a78a33          	sub	s4,a5,a0
    3520:	4401                	li	s0,0
    3522:	4b01                	li	s6,0
    3524:	45b2                	lw	a1,12(sp)
    3526:	bd5d                	j	33dc <__divsf3+0x48>
    3528:	8526                	mv	a0,s1
    352a:	2e6d                	jal	38e4 <__clzsi2>
    352c:	ffb50713          	addi	a4,a0,-5
    3530:	00aa07b3          	add	a5,s4,a0
    3534:	00e494b3          	sll	s1,s1,a4
    3538:	07678a13          	addi	s4,a5,118 # f8000076 <_eusrstack+0xd7ff8076>
    353c:	4681                	li	a3,0
    353e:	b5f1                	j	340a <__divsf3+0x76>
    3540:	001bf913          	andi	s2,s7,1
    3544:	4701                	li	a4,0
    3546:	4781                	li	a5,0
    3548:	b711                	j	344c <__divsf3+0xb8>
    354a:	6641                	lui	a2,0x10
    354c:	00549513          	slli	a0,s1,0x5
    3550:	167d                	addi	a2,a2,-1
    3552:	01055793          	srli	a5,a0,0x10
    3556:	8e69                	and	a2,a2,a0
    3558:	0a9afa63          	bgeu	s5,s1,360c <__divsf3+0x278>
    355c:	02fad5b3          	divu	a1,s5,a5
    3560:	1a7d                	addi	s4,s4,-1
    3562:	86d6                	mv	a3,s5
    3564:	4701                	li	a4,0
    3566:	02c58833          	mul	a6,a1,a2
    356a:	02f6f6b3          	remu	a3,a3,a5
    356e:	06c2                	slli	a3,a3,0x10
    3570:	8f55                	or	a4,a4,a3
    3572:	01077b63          	bgeu	a4,a6,3588 <__divsf3+0x1f4>
    3576:	972a                	add	a4,a4,a0
    3578:	fff58693          	addi	a3,a1,-1 # ffff <_data_lma+0x7cab>
    357c:	0aa76863          	bltu	a4,a0,362c <__divsf3+0x298>
    3580:	0b077663          	bgeu	a4,a6,362c <__divsf3+0x298>
    3584:	15f9                	addi	a1,a1,-2
    3586:	972a                	add	a4,a4,a0
    3588:	41070733          	sub	a4,a4,a6
    358c:	02f756b3          	divu	a3,a4,a5
    3590:	02f77733          	remu	a4,a4,a5
    3594:	02c68ab3          	mul	s5,a3,a2
    3598:	01071793          	slli	a5,a4,0x10
    359c:	0157fb63          	bgeu	a5,s5,35b2 <__divsf3+0x21e>
    35a0:	97aa                	add	a5,a5,a0
    35a2:	fff68713          	addi	a4,a3,-1 # 7dffffff <_eusrstack+0x5dff7fff>
    35a6:	08a7e163          	bltu	a5,a0,3628 <__divsf3+0x294>
    35aa:	0757ff63          	bgeu	a5,s5,3628 <__divsf3+0x294>
    35ae:	16f9                	addi	a3,a3,-2
    35b0:	97aa                	add	a5,a5,a0
    35b2:	05c2                	slli	a1,a1,0x10
    35b4:	41578ab3          	sub	s5,a5,s5
    35b8:	8dd5                	or	a1,a1,a3
    35ba:	01503ab3          	snez	s5,s5
    35be:	0155eab3          	or	s5,a1,s5
    35c2:	8bca                	mv	s7,s2
    35c4:	bdc1                	j	3494 <__divsf3+0x100>
    35c6:	4685                	li	a3,1
    35c8:	8e99                	sub	a3,a3,a4
    35ca:	c711                	beqz	a4,35d6 <__divsf3+0x242>
    35cc:	466d                	li	a2,27
    35ce:	4701                	li	a4,0
    35d0:	4781                	li	a5,0
    35d2:	e6d64de3          	blt	a2,a3,344c <__divsf3+0xb8>
    35d6:	09ea0a13          	addi	s4,s4,158
    35da:	014a9a33          	sll	s4,s5,s4
    35de:	00dad7b3          	srl	a5,s5,a3
    35e2:	01403ab3          	snez	s5,s4
    35e6:	0157e7b3          	or	a5,a5,s5
    35ea:	0077f713          	andi	a4,a5,7
    35ee:	c719                	beqz	a4,35fc <__divsf3+0x268>
    35f0:	00f7f713          	andi	a4,a5,15
    35f4:	4691                	li	a3,4
    35f6:	00d70363          	beq	a4,a3,35fc <__divsf3+0x268>
    35fa:	0791                	addi	a5,a5,4
    35fc:	00579713          	slli	a4,a5,0x5
    3600:	02074863          	bltz	a4,3630 <__divsf3+0x29c>
    3604:	079a                	slli	a5,a5,0x6
    3606:	83a5                	srli	a5,a5,0x9
    3608:	4701                	li	a4,0
    360a:	b589                	j	344c <__divsf3+0xb8>
    360c:	001ad693          	srli	a3,s5,0x1
    3610:	02f6d5b3          	divu	a1,a3,a5
    3614:	01fa9713          	slli	a4,s5,0x1f
    3618:	8341                	srli	a4,a4,0x10
    361a:	02c58833          	mul	a6,a1,a2
    361e:	b7b1                	j	356a <__divsf3+0x1d6>
    3620:	8bce                	mv	s7,s3
    3622:	8b36                	mv	s6,a3
    3624:	4a81                	li	s5,0
    3626:	bdb1                	j	3482 <__divsf3+0xee>
    3628:	86ba                	mv	a3,a4
    362a:	b761                	j	35b2 <__divsf3+0x21e>
    362c:	85b6                	mv	a1,a3
    362e:	bfa9                	j	3588 <__divsf3+0x1f4>
    3630:	4705                	li	a4,1
    3632:	4781                	li	a5,0
    3634:	bd21                	j	344c <__divsf3+0xb8>
    3636:	001bf913          	andi	s2,s7,1
    363a:	0ff00713          	li	a4,255
    363e:	4781                	li	a5,0
    3640:	b531                	j	344c <__divsf3+0xb8>

00003642 <__lesf2>:
    3642:	01755693          	srli	a3,a0,0x17
    3646:	008007b7          	lui	a5,0x800
    364a:	17fd                	addi	a5,a5,-1
    364c:	0175d613          	srli	a2,a1,0x17
    3650:	0ff6f693          	andi	a3,a3,255
    3654:	0ff00813          	li	a6,255
    3658:	00a7f8b3          	and	a7,a5,a0
    365c:	01f55713          	srli	a4,a0,0x1f
    3660:	8fed                	and	a5,a5,a1
    3662:	0ff67613          	andi	a2,a2,255
    3666:	81fd                	srli	a1,a1,0x1f
    3668:	03068763          	beq	a3,a6,3696 <__lesf2+0x54>
    366c:	01060963          	beq	a2,a6,367e <__lesf2+0x3c>
    3670:	ea85                	bnez	a3,36a0 <__lesf2+0x5e>
    3672:	ea11                	bnez	a2,3686 <__lesf2+0x44>
    3674:	eb89                	bnez	a5,3686 <__lesf2+0x44>
    3676:	4501                	li	a0,0
    3678:	00089b63          	bnez	a7,368e <__lesf2+0x4c>
    367c:	8082                	ret
    367e:	4509                	li	a0,2
    3680:	fff5                	bnez	a5,367c <__lesf2+0x3a>
    3682:	dae5                	beqz	a3,3672 <__lesf2+0x30>
    3684:	a831                	j	36a0 <__lesf2+0x5e>
    3686:	02088c63          	beqz	a7,36be <__lesf2+0x7c>
    368a:	04b70063          	beq	a4,a1,36ca <__lesf2+0x88>
    368e:	4505                	li	a0,1
    3690:	d775                	beqz	a4,367c <__lesf2+0x3a>
    3692:	557d                	li	a0,-1
    3694:	8082                	ret
    3696:	4509                	li	a0,2
    3698:	02089863          	bnez	a7,36c8 <__lesf2+0x86>
    369c:	02d60463          	beq	a2,a3,36c4 <__lesf2+0x82>
    36a0:	e211                	bnez	a2,36a4 <__lesf2+0x62>
    36a2:	d7f5                	beqz	a5,368e <__lesf2+0x4c>
    36a4:	feb715e3          	bne	a4,a1,368e <__lesf2+0x4c>
    36a8:	fed643e3          	blt	a2,a3,368e <__lesf2+0x4c>
    36ac:	00c6c763          	blt	a3,a2,36ba <__lesf2+0x78>
    36b0:	fd17efe3          	bltu	a5,a7,368e <__lesf2+0x4c>
    36b4:	4501                	li	a0,0
    36b6:	fcf8f3e3          	bgeu	a7,a5,367c <__lesf2+0x3a>
    36ba:	e319                	bnez	a4,36c0 <__lesf2+0x7e>
    36bc:	bfd9                	j	3692 <__lesf2+0x50>
    36be:	d9f1                	beqz	a1,3692 <__lesf2+0x50>
    36c0:	4505                	li	a0,1
    36c2:	8082                	ret
    36c4:	d3e5                	beqz	a5,36a4 <__lesf2+0x62>
    36c6:	8082                	ret
    36c8:	8082                	ret
    36ca:	4681                	li	a3,0
    36cc:	b7c5                	j	36ac <__lesf2+0x6a>

000036ce <__extendsfdf2>:
    36ce:	01755713          	srli	a4,a0,0x17
    36d2:	0ff77713          	andi	a4,a4,255
    36d6:	1141                	addi	sp,sp,-16
    36d8:	00170793          	addi	a5,a4,1
    36dc:	c422                	sw	s0,8(sp)
    36de:	c226                	sw	s1,4(sp)
    36e0:	00951413          	slli	s0,a0,0x9
    36e4:	c606                	sw	ra,12(sp)
    36e6:	0fe7f793          	andi	a5,a5,254
    36ea:	8025                	srli	s0,s0,0x9
    36ec:	01f55493          	srli	s1,a0,0x1f
    36f0:	c785                	beqz	a5,3718 <__extendsfdf2+0x4a>
    36f2:	00345793          	srli	a5,s0,0x3
    36f6:	38070713          	addi	a4,a4,896
    36fa:	0476                	slli	s0,s0,0x1d
    36fc:	07b2                	slli	a5,a5,0xc
    36fe:	0752                	slli	a4,a4,0x14
    3700:	83b1                	srli	a5,a5,0xc
    3702:	01f49513          	slli	a0,s1,0x1f
    3706:	8fd9                	or	a5,a5,a4
    3708:	8fc9                	or	a5,a5,a0
    370a:	40b2                	lw	ra,12(sp)
    370c:	8522                	mv	a0,s0
    370e:	4422                	lw	s0,8(sp)
    3710:	4492                	lw	s1,4(sp)
    3712:	85be                	mv	a1,a5
    3714:	0141                	addi	sp,sp,16
    3716:	8082                	ret
    3718:	eb05                	bnez	a4,3748 <__extendsfdf2+0x7a>
    371a:	c439                	beqz	s0,3768 <__extendsfdf2+0x9a>
    371c:	8522                	mv	a0,s0
    371e:	22d9                	jal	38e4 <__clzsi2>
    3720:	47a9                	li	a5,10
    3722:	04a7c663          	blt	a5,a0,376e <__extendsfdf2+0xa0>
    3726:	472d                	li	a4,11
    3728:	8f09                	sub	a4,a4,a0
    372a:	01550793          	addi	a5,a0,21
    372e:	00e45733          	srl	a4,s0,a4
    3732:	00f41433          	sll	s0,s0,a5
    3736:	00c71793          	slli	a5,a4,0xc
    373a:	38900713          	li	a4,905
    373e:	8f09                	sub	a4,a4,a0
    3740:	83b1                	srli	a5,a5,0xc
    3742:	7ff77713          	andi	a4,a4,2047
    3746:	bf5d                	j	36fc <__extendsfdf2+0x2e>
    3748:	cc01                	beqz	s0,3760 <__extendsfdf2+0x92>
    374a:	00345713          	srli	a4,s0,0x3
    374e:	000807b7          	lui	a5,0x80
    3752:	8fd9                	or	a5,a5,a4
    3754:	07b2                	slli	a5,a5,0xc
    3756:	0476                	slli	s0,s0,0x1d
    3758:	83b1                	srli	a5,a5,0xc
    375a:	7ff00713          	li	a4,2047
    375e:	bf79                	j	36fc <__extendsfdf2+0x2e>
    3760:	7ff00713          	li	a4,2047
    3764:	4781                	li	a5,0
    3766:	bf59                	j	36fc <__extendsfdf2+0x2e>
    3768:	4701                	li	a4,0
    376a:	4781                	li	a5,0
    376c:	bf41                	j	36fc <__extendsfdf2+0x2e>
    376e:	ff550713          	addi	a4,a0,-11
    3772:	00e41733          	sll	a4,s0,a4
    3776:	4401                	li	s0,0
    3778:	bf7d                	j	3736 <__extendsfdf2+0x68>

0000377a <__truncdfsf2>:
    377a:	0145d693          	srli	a3,a1,0x14
    377e:	00c59793          	slli	a5,a1,0xc
    3782:	7ff6f693          	andi	a3,a3,2047
    3786:	83b1                	srli	a5,a5,0xc
    3788:	00168613          	addi	a2,a3,1
    378c:	078e                	slli	a5,a5,0x3
    378e:	01d55713          	srli	a4,a0,0x1d
    3792:	7fe67613          	andi	a2,a2,2046
    3796:	81fd                	srli	a1,a1,0x1f
    3798:	8f5d                	or	a4,a4,a5
    379a:	00351893          	slli	a7,a0,0x3
    379e:	ce35                	beqz	a2,381a <__truncdfsf2+0xa0>
    37a0:	c8068813          	addi	a6,a3,-896
    37a4:	0fe00793          	li	a5,254
    37a8:	0107dd63          	bge	a5,a6,37c2 <__truncdfsf2+0x48>
    37ac:	4781                	li	a5,0
    37ae:	00979513          	slli	a0,a5,0x9
    37b2:	0ff00693          	li	a3,255
    37b6:	06de                	slli	a3,a3,0x17
    37b8:	8125                	srli	a0,a0,0x9
    37ba:	05fe                	slli	a1,a1,0x1f
    37bc:	8d55                	or	a0,a0,a3
    37be:	8d4d                	or	a0,a0,a1
    37c0:	8082                	ret
    37c2:	0b005563          	blez	a6,386c <__truncdfsf2+0xf2>
    37c6:	00651793          	slli	a5,a0,0x6
    37ca:	070e                	slli	a4,a4,0x3
    37cc:	00f037b3          	snez	a5,a5
    37d0:	8fd9                	or	a5,a5,a4
    37d2:	01d8d893          	srli	a7,a7,0x1d
    37d6:	0117e7b3          	or	a5,a5,a7
    37da:	0077f713          	andi	a4,a5,7
    37de:	10070163          	beqz	a4,38e0 <__truncdfsf2+0x166>
    37e2:	00f7f713          	andi	a4,a5,15
    37e6:	4691                	li	a3,4
    37e8:	00d70363          	beq	a4,a3,37ee <__truncdfsf2+0x74>
    37ec:	0791                	addi	a5,a5,4
    37ee:	04000737          	lui	a4,0x4000
    37f2:	8f7d                	and	a4,a4,a5
    37f4:	c775                	beqz	a4,38e0 <__truncdfsf2+0x166>
    37f6:	00180713          	addi	a4,a6,1
    37fa:	0ff00613          	li	a2,255
    37fe:	0ff77693          	andi	a3,a4,255
    3802:	fac705e3          	beq	a4,a2,37ac <__truncdfsf2+0x32>
    3806:	079a                	slli	a5,a5,0x6
    3808:	83a5                	srli	a5,a5,0x9
    380a:	00979513          	slli	a0,a5,0x9
    380e:	06de                	slli	a3,a3,0x17
    3810:	8125                	srli	a0,a0,0x9
    3812:	05fe                	slli	a1,a1,0x1f
    3814:	8d55                	or	a0,a0,a3
    3816:	8d4d                	or	a0,a0,a1
    3818:	8082                	ret
    381a:	011767b3          	or	a5,a4,a7
    381e:	ee99                	bnez	a3,383c <__truncdfsf2+0xc2>
    3820:	cf85                	beqz	a5,3858 <__truncdfsf2+0xde>
    3822:	4795                	li	a5,5
    3824:	079a                	slli	a5,a5,0x6
    3826:	83a5                	srli	a5,a5,0x9
    3828:	00979513          	slli	a0,a5,0x9
    382c:	0ff6f693          	andi	a3,a3,255
    3830:	06de                	slli	a3,a3,0x17
    3832:	8125                	srli	a0,a0,0x9
    3834:	05fe                	slli	a1,a1,0x1f
    3836:	8d55                	or	a0,a0,a3
    3838:	8d4d                	or	a0,a0,a1
    383a:	8082                	ret
    383c:	dba5                	beqz	a5,37ac <__truncdfsf2+0x32>
    383e:	004007b7          	lui	a5,0x400
    3842:	00979513          	slli	a0,a5,0x9
    3846:	0ff00693          	li	a3,255
    384a:	06de                	slli	a3,a3,0x17
    384c:	4581                	li	a1,0
    384e:	8125                	srli	a0,a0,0x9
    3850:	05fe                	slli	a1,a1,0x1f
    3852:	8d55                	or	a0,a0,a3
    3854:	8d4d                	or	a0,a0,a1
    3856:	8082                	ret
    3858:	4781                	li	a5,0
    385a:	00979513          	slli	a0,a5,0x9
    385e:	4681                	li	a3,0
    3860:	06de                	slli	a3,a3,0x17
    3862:	8125                	srli	a0,a0,0x9
    3864:	05fe                	slli	a1,a1,0x1f
    3866:	8d55                	or	a0,a0,a3
    3868:	8d4d                	or	a0,a0,a1
    386a:	8082                	ret
    386c:	57a5                	li	a5,-23
    386e:	04f84863          	blt	a6,a5,38be <__truncdfsf2+0x144>
    3872:	47f9                	li	a5,30
    3874:	00800637          	lui	a2,0x800
    3878:	410787b3          	sub	a5,a5,a6
    387c:	457d                	li	a0,31
    387e:	8e59                	or	a2,a2,a4
    3880:	04f55163          	bge	a0,a5,38c2 <__truncdfsf2+0x148>
    3884:	5779                	li	a4,-2
    3886:	41070733          	sub	a4,a4,a6
    388a:	02000513          	li	a0,32
    388e:	00e65733          	srl	a4,a2,a4
    3892:	00a78863          	beq	a5,a0,38a2 <__truncdfsf2+0x128>
    3896:	ca268693          	addi	a3,a3,-862
    389a:	00d616b3          	sll	a3,a2,a3
    389e:	00d8e8b3          	or	a7,a7,a3
    38a2:	011037b3          	snez	a5,a7
    38a6:	8fd9                	or	a5,a5,a4
    38a8:	0077f713          	andi	a4,a5,7
    38ac:	4801                	li	a6,0
    38ae:	fb15                	bnez	a4,37e2 <__truncdfsf2+0x68>
    38b0:	00579713          	slli	a4,a5,0x5
    38b4:	4685                	li	a3,1
    38b6:	f40748e3          	bltz	a4,3806 <__truncdfsf2+0x8c>
    38ba:	4681                	li	a3,0
    38bc:	b7a5                	j	3824 <__truncdfsf2+0xaa>
    38be:	4681                	li	a3,0
    38c0:	b78d                	j	3822 <__truncdfsf2+0xa8>
    38c2:	c8268693          	addi	a3,a3,-894
    38c6:	00d89733          	sll	a4,a7,a3
    38ca:	00e03733          	snez	a4,a4
    38ce:	00d616b3          	sll	a3,a2,a3
    38d2:	00f8d8b3          	srl	a7,a7,a5
    38d6:	00d767b3          	or	a5,a4,a3
    38da:	00f8e7b3          	or	a5,a7,a5
    38de:	b7e9                	j	38a8 <__truncdfsf2+0x12e>
    38e0:	86c2                	mv	a3,a6
    38e2:	b789                	j	3824 <__truncdfsf2+0xaa>

000038e4 <__clzsi2>:
    38e4:	67c1                	lui	a5,0x10
    38e6:	02f57e63          	bgeu	a0,a5,3922 <__clzsi2+0x3e>
    38ea:	0ff00793          	li	a5,255
    38ee:	02000713          	li	a4,32
    38f2:	00a7ec63          	bltu	a5,a0,390a <__clzsi2+0x26>
    38f6:	00005797          	auipc	a5,0x5
    38fa:	8c278793          	addi	a5,a5,-1854 # 81b8 <__clz_tab>
    38fe:	97aa                	add	a5,a5,a0
    3900:	0007c503          	lbu	a0,0(a5)
    3904:	40a70533          	sub	a0,a4,a0
    3908:	8082                	ret
    390a:	8121                	srli	a0,a0,0x8
    390c:	00005797          	auipc	a5,0x5
    3910:	8ac78793          	addi	a5,a5,-1876 # 81b8 <__clz_tab>
    3914:	97aa                	add	a5,a5,a0
    3916:	0007c503          	lbu	a0,0(a5)
    391a:	4761                	li	a4,24
    391c:	40a70533          	sub	a0,a4,a0
    3920:	8082                	ret
    3922:	010007b7          	lui	a5,0x1000
    3926:	00f56e63          	bltu	a0,a5,3942 <__clzsi2+0x5e>
    392a:	8161                	srli	a0,a0,0x18
    392c:	00005797          	auipc	a5,0x5
    3930:	88c78793          	addi	a5,a5,-1908 # 81b8 <__clz_tab>
    3934:	97aa                	add	a5,a5,a0
    3936:	0007c503          	lbu	a0,0(a5)
    393a:	4721                	li	a4,8
    393c:	40a70533          	sub	a0,a4,a0
    3940:	8082                	ret
    3942:	8141                	srli	a0,a0,0x10
    3944:	00005797          	auipc	a5,0x5
    3948:	87478793          	addi	a5,a5,-1932 # 81b8 <__clz_tab>
    394c:	97aa                	add	a5,a5,a0
    394e:	0007c503          	lbu	a0,0(a5)
    3952:	4741                	li	a4,16
    3954:	40a70533          	sub	a0,a4,a0
    3958:	8082                	ret

0000395a <iprintf>:
    395a:	7139                	addi	sp,sp,-64
    395c:	da3e                	sw	a5,52(sp)
    395e:	d22e                	sw	a1,36(sp)
    3960:	d432                	sw	a2,40(sp)
    3962:	d636                	sw	a3,44(sp)
    3964:	d83a                	sw	a4,48(sp)
    3966:	dc42                	sw	a6,56(sp)
    3968:	de46                	sw	a7,60(sp)
    396a:	81c18793          	addi	a5,gp,-2020 # 2000008c <_impure_ptr>
    396e:	cc22                	sw	s0,24(sp)
    3970:	4380                	lw	s0,0(a5)
    3972:	ca26                	sw	s1,20(sp)
    3974:	ce06                	sw	ra,28(sp)
    3976:	84aa                	mv	s1,a0
    3978:	c409                	beqz	s0,3982 <iprintf+0x28>
    397a:	4c1c                	lw	a5,24(s0)
    397c:	e399                	bnez	a5,3982 <iprintf+0x28>
    397e:	8522                	mv	a0,s0
    3980:	2b51                	jal	3f14 <__sinit>
    3982:	440c                	lw	a1,8(s0)
    3984:	1054                	addi	a3,sp,36
    3986:	8626                	mv	a2,s1
    3988:	8522                	mv	a0,s0
    398a:	c636                	sw	a3,12(sp)
    398c:	549000ef          	jal	ra,46d4 <_vfiprintf_r>
    3990:	40f2                	lw	ra,28(sp)
    3992:	4462                	lw	s0,24(sp)
    3994:	44d2                	lw	s1,20(sp)
    3996:	6121                	addi	sp,sp,64
    3998:	8082                	ret

0000399a <_puts_r>:
    399a:	1101                	addi	sp,sp,-32
    399c:	ca26                	sw	s1,20(sp)
    399e:	c84a                	sw	s2,16(sp)
    39a0:	ce06                	sw	ra,28(sp)
    39a2:	cc22                	sw	s0,24(sp)
    39a4:	c64e                	sw	s3,12(sp)
    39a6:	c452                	sw	s4,8(sp)
    39a8:	84aa                	mv	s1,a0
    39aa:	892e                	mv	s2,a1
    39ac:	c501                	beqz	a0,39b4 <_puts_r+0x1a>
    39ae:	4d1c                	lw	a5,24(a0)
    39b0:	e391                	bnez	a5,39b4 <_puts_r+0x1a>
    39b2:	238d                	jal	3f14 <__sinit>
    39b4:	4c9c                	lw	a5,24(s1)
    39b6:	4480                	lw	s0,8(s1)
    39b8:	e399                	bnez	a5,39be <_puts_r+0x24>
    39ba:	8526                	mv	a0,s1
    39bc:	2ba1                	jal	3f14 <__sinit>
    39be:	00005797          	auipc	a5,0x5
    39c2:	91a78793          	addi	a5,a5,-1766 # 82d8 <__sf_fake_stdin>
    39c6:	02f41c63          	bne	s0,a5,39fe <_puts_r+0x64>
    39ca:	40c0                	lw	s0,4(s1)
    39cc:	00c45783          	lhu	a5,12(s0) # 400000c <_data_lma+0x3ff7cb8>
    39d0:	8ba1                	andi	a5,a5,8
    39d2:	c7b1                	beqz	a5,3a1e <_puts_r+0x84>
    39d4:	481c                	lw	a5,16(s0)
    39d6:	c7a1                	beqz	a5,3a1e <_puts_r+0x84>
    39d8:	59fd                	li	s3,-1
    39da:	4a29                	li	s4,10
    39dc:	441c                	lw	a5,8(s0)
    39de:	00094583          	lbu	a1,0(s2)
    39e2:	17fd                	addi	a5,a5,-1
    39e4:	e9b1                	bnez	a1,3a38 <_puts_r+0x9e>
    39e6:	c41c                	sw	a5,8(s0)
    39e8:	0607de63          	bgez	a5,3a64 <_puts_r+0xca>
    39ec:	8622                	mv	a2,s0
    39ee:	45a9                	li	a1,10
    39f0:	8526                	mv	a0,s1
    39f2:	28f5                	jal	3aee <__swbuf_r>
    39f4:	57fd                	li	a5,-1
    39f6:	02f50863          	beq	a0,a5,3a26 <_puts_r+0x8c>
    39fa:	4529                	li	a0,10
    39fc:	a035                	j	3a28 <_puts_r+0x8e>
    39fe:	00005797          	auipc	a5,0x5
    3a02:	8fa78793          	addi	a5,a5,-1798 # 82f8 <__sf_fake_stdout>
    3a06:	00f41463          	bne	s0,a5,3a0e <_puts_r+0x74>
    3a0a:	4480                	lw	s0,8(s1)
    3a0c:	b7c1                	j	39cc <_puts_r+0x32>
    3a0e:	00005797          	auipc	a5,0x5
    3a12:	8aa78793          	addi	a5,a5,-1878 # 82b8 <__sf_fake_stderr>
    3a16:	faf41be3          	bne	s0,a5,39cc <_puts_r+0x32>
    3a1a:	44c0                	lw	s0,12(s1)
    3a1c:	bf45                	j	39cc <_puts_r+0x32>
    3a1e:	85a2                	mv	a1,s0
    3a20:	8526                	mv	a0,s1
    3a22:	2271                	jal	3bae <__swsetup_r>
    3a24:	d955                	beqz	a0,39d8 <_puts_r+0x3e>
    3a26:	557d                	li	a0,-1
    3a28:	40f2                	lw	ra,28(sp)
    3a2a:	4462                	lw	s0,24(sp)
    3a2c:	44d2                	lw	s1,20(sp)
    3a2e:	4942                	lw	s2,16(sp)
    3a30:	49b2                	lw	s3,12(sp)
    3a32:	4a22                	lw	s4,8(sp)
    3a34:	6105                	addi	sp,sp,32
    3a36:	8082                	ret
    3a38:	c41c                	sw	a5,8(s0)
    3a3a:	0905                	addi	s2,s2,1
    3a3c:	0007d763          	bgez	a5,3a4a <_puts_r+0xb0>
    3a40:	4c18                	lw	a4,24(s0)
    3a42:	00e7cb63          	blt	a5,a4,3a58 <_puts_r+0xbe>
    3a46:	01458963          	beq	a1,s4,3a58 <_puts_r+0xbe>
    3a4a:	401c                	lw	a5,0(s0)
    3a4c:	00178713          	addi	a4,a5,1
    3a50:	c018                	sw	a4,0(s0)
    3a52:	00b78023          	sb	a1,0(a5)
    3a56:	b759                	j	39dc <_puts_r+0x42>
    3a58:	8622                	mv	a2,s0
    3a5a:	8526                	mv	a0,s1
    3a5c:	2849                	jal	3aee <__swbuf_r>
    3a5e:	f7351fe3          	bne	a0,s3,39dc <_puts_r+0x42>
    3a62:	b7d1                	j	3a26 <_puts_r+0x8c>
    3a64:	401c                	lw	a5,0(s0)
    3a66:	00178713          	addi	a4,a5,1
    3a6a:	c018                	sw	a4,0(s0)
    3a6c:	4729                	li	a4,10
    3a6e:	00e78023          	sb	a4,0(a5)
    3a72:	b761                	j	39fa <_puts_r+0x60>

00003a74 <puts>:
    3a74:	81c18793          	addi	a5,gp,-2020 # 2000008c <_impure_ptr>
    3a78:	85aa                	mv	a1,a0
    3a7a:	4388                	lw	a0,0(a5)
    3a7c:	bf39                	j	399a <_puts_r>

00003a7e <_vsniprintf_r>:
    3a7e:	7119                	addi	sp,sp,-128
    3a80:	dca2                	sw	s0,120(sp)
    3a82:	de86                	sw	ra,124(sp)
    3a84:	daa6                	sw	s1,116(sp)
    3a86:	8432                	mv	s0,a2
    3a88:	00065b63          	bgez	a2,3a9e <_vsniprintf_r+0x20>
    3a8c:	08b00793          	li	a5,139
    3a90:	c11c                	sw	a5,0(a0)
    3a92:	557d                	li	a0,-1
    3a94:	50f6                	lw	ra,124(sp)
    3a96:	5466                	lw	s0,120(sp)
    3a98:	54d6                	lw	s1,116(sp)
    3a9a:	6109                	addi	sp,sp,128
    3a9c:	8082                	ret
    3a9e:	8636                	mv	a2,a3
    3aa0:	20800693          	li	a3,520
    3aa4:	c42e                	sw	a1,8(sp)
    3aa6:	cc2e                	sw	a1,24(sp)
    3aa8:	00d11a23          	sh	a3,20(sp)
    3aac:	4581                	li	a1,0
    3aae:	c019                	beqz	s0,3ab4 <_vsniprintf_r+0x36>
    3ab0:	fff40593          	addi	a1,s0,-1
    3ab4:	57fd                	li	a5,-1
    3ab6:	c82e                	sw	a1,16(sp)
    3ab8:	ce2e                	sw	a1,28(sp)
    3aba:	86ba                	mv	a3,a4
    3abc:	002c                	addi	a1,sp,8
    3abe:	00f11b23          	sh	a5,22(sp)
    3ac2:	84aa                	mv	s1,a0
    3ac4:	125000ef          	jal	ra,43e8 <_svfiprintf_r>
    3ac8:	57fd                	li	a5,-1
    3aca:	00f55563          	bge	a0,a5,3ad4 <_vsniprintf_r+0x56>
    3ace:	08b00793          	li	a5,139
    3ad2:	c09c                	sw	a5,0(s1)
    3ad4:	d061                	beqz	s0,3a94 <_vsniprintf_r+0x16>
    3ad6:	47a2                	lw	a5,8(sp)
    3ad8:	00078023          	sb	zero,0(a5)
    3adc:	bf65                	j	3a94 <_vsniprintf_r+0x16>

00003ade <vsniprintf>:
    3ade:	81c18793          	addi	a5,gp,-2020 # 2000008c <_impure_ptr>
    3ae2:	8736                	mv	a4,a3
    3ae4:	86b2                	mv	a3,a2
    3ae6:	862e                	mv	a2,a1
    3ae8:	85aa                	mv	a1,a0
    3aea:	4388                	lw	a0,0(a5)
    3aec:	bf49                	j	3a7e <_vsniprintf_r>

00003aee <__swbuf_r>:
    3aee:	1101                	addi	sp,sp,-32
    3af0:	cc22                	sw	s0,24(sp)
    3af2:	ca26                	sw	s1,20(sp)
    3af4:	c84a                	sw	s2,16(sp)
    3af6:	ce06                	sw	ra,28(sp)
    3af8:	c64e                	sw	s3,12(sp)
    3afa:	84aa                	mv	s1,a0
    3afc:	892e                	mv	s2,a1
    3afe:	8432                	mv	s0,a2
    3b00:	c501                	beqz	a0,3b08 <__swbuf_r+0x1a>
    3b02:	4d1c                	lw	a5,24(a0)
    3b04:	e391                	bnez	a5,3b08 <__swbuf_r+0x1a>
    3b06:	2139                	jal	3f14 <__sinit>
    3b08:	00004797          	auipc	a5,0x4
    3b0c:	7d078793          	addi	a5,a5,2000 # 82d8 <__sf_fake_stdin>
    3b10:	06f41963          	bne	s0,a5,3b82 <__swbuf_r+0x94>
    3b14:	40c0                	lw	s0,4(s1)
    3b16:	4c1c                	lw	a5,24(s0)
    3b18:	c41c                	sw	a5,8(s0)
    3b1a:	00c45783          	lhu	a5,12(s0)
    3b1e:	8ba1                	andi	a5,a5,8
    3b20:	c3c9                	beqz	a5,3ba2 <__swbuf_r+0xb4>
    3b22:	481c                	lw	a5,16(s0)
    3b24:	cfbd                	beqz	a5,3ba2 <__swbuf_r+0xb4>
    3b26:	481c                	lw	a5,16(s0)
    3b28:	4008                	lw	a0,0(s0)
    3b2a:	0ff97993          	andi	s3,s2,255
    3b2e:	0ff97913          	andi	s2,s2,255
    3b32:	8d1d                	sub	a0,a0,a5
    3b34:	485c                	lw	a5,20(s0)
    3b36:	00f54663          	blt	a0,a5,3b42 <__swbuf_r+0x54>
    3b3a:	85a2                	mv	a1,s0
    3b3c:	8526                	mv	a0,s1
    3b3e:	2c65                	jal	3df6 <_fflush_r>
    3b40:	e52d                	bnez	a0,3baa <__swbuf_r+0xbc>
    3b42:	441c                	lw	a5,8(s0)
    3b44:	0505                	addi	a0,a0,1
    3b46:	17fd                	addi	a5,a5,-1
    3b48:	c41c                	sw	a5,8(s0)
    3b4a:	401c                	lw	a5,0(s0)
    3b4c:	00178713          	addi	a4,a5,1
    3b50:	c018                	sw	a4,0(s0)
    3b52:	01378023          	sb	s3,0(a5)
    3b56:	485c                	lw	a5,20(s0)
    3b58:	00a78963          	beq	a5,a0,3b6a <__swbuf_r+0x7c>
    3b5c:	00c45783          	lhu	a5,12(s0)
    3b60:	8b85                	andi	a5,a5,1
    3b62:	cb81                	beqz	a5,3b72 <__swbuf_r+0x84>
    3b64:	47a9                	li	a5,10
    3b66:	00f91663          	bne	s2,a5,3b72 <__swbuf_r+0x84>
    3b6a:	85a2                	mv	a1,s0
    3b6c:	8526                	mv	a0,s1
    3b6e:	2461                	jal	3df6 <_fflush_r>
    3b70:	ed0d                	bnez	a0,3baa <__swbuf_r+0xbc>
    3b72:	40f2                	lw	ra,28(sp)
    3b74:	4462                	lw	s0,24(sp)
    3b76:	854a                	mv	a0,s2
    3b78:	44d2                	lw	s1,20(sp)
    3b7a:	4942                	lw	s2,16(sp)
    3b7c:	49b2                	lw	s3,12(sp)
    3b7e:	6105                	addi	sp,sp,32
    3b80:	8082                	ret
    3b82:	00004797          	auipc	a5,0x4
    3b86:	77678793          	addi	a5,a5,1910 # 82f8 <__sf_fake_stdout>
    3b8a:	00f41463          	bne	s0,a5,3b92 <__swbuf_r+0xa4>
    3b8e:	4480                	lw	s0,8(s1)
    3b90:	b759                	j	3b16 <__swbuf_r+0x28>
    3b92:	00004797          	auipc	a5,0x4
    3b96:	72678793          	addi	a5,a5,1830 # 82b8 <__sf_fake_stderr>
    3b9a:	f6f41ee3          	bne	s0,a5,3b16 <__swbuf_r+0x28>
    3b9e:	44c0                	lw	s0,12(s1)
    3ba0:	bf9d                	j	3b16 <__swbuf_r+0x28>
    3ba2:	85a2                	mv	a1,s0
    3ba4:	8526                	mv	a0,s1
    3ba6:	2021                	jal	3bae <__swsetup_r>
    3ba8:	dd3d                	beqz	a0,3b26 <__swbuf_r+0x38>
    3baa:	597d                	li	s2,-1
    3bac:	b7d9                	j	3b72 <__swbuf_r+0x84>

00003bae <__swsetup_r>:
    3bae:	1141                	addi	sp,sp,-16
    3bb0:	81c18793          	addi	a5,gp,-2020 # 2000008c <_impure_ptr>
    3bb4:	c226                	sw	s1,4(sp)
    3bb6:	4384                	lw	s1,0(a5)
    3bb8:	c422                	sw	s0,8(sp)
    3bba:	c04a                	sw	s2,0(sp)
    3bbc:	c606                	sw	ra,12(sp)
    3bbe:	892a                	mv	s2,a0
    3bc0:	842e                	mv	s0,a1
    3bc2:	c489                	beqz	s1,3bcc <__swsetup_r+0x1e>
    3bc4:	4c9c                	lw	a5,24(s1)
    3bc6:	e399                	bnez	a5,3bcc <__swsetup_r+0x1e>
    3bc8:	8526                	mv	a0,s1
    3bca:	26a9                	jal	3f14 <__sinit>
    3bcc:	00004797          	auipc	a5,0x4
    3bd0:	70c78793          	addi	a5,a5,1804 # 82d8 <__sf_fake_stdin>
    3bd4:	02f41c63          	bne	s0,a5,3c0c <__swsetup_r+0x5e>
    3bd8:	40c0                	lw	s0,4(s1)
    3bda:	00c41703          	lh	a4,12(s0)
    3bde:	01071793          	slli	a5,a4,0x10
    3be2:	83c1                	srli	a5,a5,0x10
    3be4:	0087f693          	andi	a3,a5,8
    3be8:	eeb5                	bnez	a3,3c64 <__swsetup_r+0xb6>
    3bea:	0107f693          	andi	a3,a5,16
    3bee:	ee9d                	bnez	a3,3c2c <__swsetup_r+0x7e>
    3bf0:	47a5                	li	a5,9
    3bf2:	00f92023          	sw	a5,0(s2)
    3bf6:	04076713          	ori	a4,a4,64
    3bfa:	00e41623          	sh	a4,12(s0)
    3bfe:	557d                	li	a0,-1
    3c00:	40b2                	lw	ra,12(sp)
    3c02:	4422                	lw	s0,8(sp)
    3c04:	4492                	lw	s1,4(sp)
    3c06:	4902                	lw	s2,0(sp)
    3c08:	0141                	addi	sp,sp,16
    3c0a:	8082                	ret
    3c0c:	00004797          	auipc	a5,0x4
    3c10:	6ec78793          	addi	a5,a5,1772 # 82f8 <__sf_fake_stdout>
    3c14:	00f41463          	bne	s0,a5,3c1c <__swsetup_r+0x6e>
    3c18:	4480                	lw	s0,8(s1)
    3c1a:	b7c1                	j	3bda <__swsetup_r+0x2c>
    3c1c:	00004797          	auipc	a5,0x4
    3c20:	69c78793          	addi	a5,a5,1692 # 82b8 <__sf_fake_stderr>
    3c24:	faf41be3          	bne	s0,a5,3bda <__swsetup_r+0x2c>
    3c28:	44c0                	lw	s0,12(s1)
    3c2a:	bf45                	j	3bda <__swsetup_r+0x2c>
    3c2c:	8b91                	andi	a5,a5,4
    3c2e:	c78d                	beqz	a5,3c58 <__swsetup_r+0xaa>
    3c30:	584c                	lw	a1,52(s0)
    3c32:	c989                	beqz	a1,3c44 <__swsetup_r+0x96>
    3c34:	04440793          	addi	a5,s0,68
    3c38:	00f58463          	beq	a1,a5,3c40 <__swsetup_r+0x92>
    3c3c:	854a                	mv	a0,s2
    3c3e:	2b35                	jal	417a <_free_r>
    3c40:	02042a23          	sw	zero,52(s0)
    3c44:	00c45783          	lhu	a5,12(s0)
    3c48:	00042223          	sw	zero,4(s0)
    3c4c:	fdb7f793          	andi	a5,a5,-37
    3c50:	00f41623          	sh	a5,12(s0)
    3c54:	481c                	lw	a5,16(s0)
    3c56:	c01c                	sw	a5,0(s0)
    3c58:	00c45783          	lhu	a5,12(s0)
    3c5c:	0087e793          	ori	a5,a5,8
    3c60:	00f41623          	sh	a5,12(s0)
    3c64:	481c                	lw	a5,16(s0)
    3c66:	ef81                	bnez	a5,3c7e <__swsetup_r+0xd0>
    3c68:	00c45783          	lhu	a5,12(s0)
    3c6c:	20000713          	li	a4,512
    3c70:	2807f793          	andi	a5,a5,640
    3c74:	00e78563          	beq	a5,a4,3c7e <__swsetup_r+0xd0>
    3c78:	85a2                	mv	a1,s0
    3c7a:	854a                	mv	a0,s2
    3c7c:	2185                	jal	40dc <__smakebuf_r>
    3c7e:	00c45783          	lhu	a5,12(s0)
    3c82:	0017f713          	andi	a4,a5,1
    3c86:	c705                	beqz	a4,3cae <__swsetup_r+0x100>
    3c88:	485c                	lw	a5,20(s0)
    3c8a:	00042423          	sw	zero,8(s0)
    3c8e:	40f007b3          	neg	a5,a5
    3c92:	cc1c                	sw	a5,24(s0)
    3c94:	481c                	lw	a5,16(s0)
    3c96:	4501                	li	a0,0
    3c98:	f7a5                	bnez	a5,3c00 <__swsetup_r+0x52>
    3c9a:	00c41783          	lh	a5,12(s0)
    3c9e:	0807f713          	andi	a4,a5,128
    3ca2:	df39                	beqz	a4,3c00 <__swsetup_r+0x52>
    3ca4:	0407e793          	ori	a5,a5,64
    3ca8:	00f41623          	sh	a5,12(s0)
    3cac:	bf89                	j	3bfe <__swsetup_r+0x50>
    3cae:	8b89                	andi	a5,a5,2
    3cb0:	4701                	li	a4,0
    3cb2:	e391                	bnez	a5,3cb6 <__swsetup_r+0x108>
    3cb4:	4858                	lw	a4,20(s0)
    3cb6:	c418                	sw	a4,8(s0)
    3cb8:	bff1                	j	3c94 <__swsetup_r+0xe6>

00003cba <__sflush_r>:
    3cba:	00c5d783          	lhu	a5,12(a1)
    3cbe:	1101                	addi	sp,sp,-32
    3cc0:	cc22                	sw	s0,24(sp)
    3cc2:	ca26                	sw	s1,20(sp)
    3cc4:	ce06                	sw	ra,28(sp)
    3cc6:	c84a                	sw	s2,16(sp)
    3cc8:	c64e                	sw	s3,12(sp)
    3cca:	0087f713          	andi	a4,a5,8
    3cce:	84aa                	mv	s1,a0
    3cd0:	842e                	mv	s0,a1
    3cd2:	ef71                	bnez	a4,3dae <__sflush_r+0xf4>
    3cd4:	41d8                	lw	a4,4(a1)
    3cd6:	00e04d63          	bgtz	a4,3cf0 <__sflush_r+0x36>
    3cda:	41b8                	lw	a4,64(a1)
    3cdc:	00e04a63          	bgtz	a4,3cf0 <__sflush_r+0x36>
    3ce0:	4501                	li	a0,0
    3ce2:	40f2                	lw	ra,28(sp)
    3ce4:	4462                	lw	s0,24(sp)
    3ce6:	44d2                	lw	s1,20(sp)
    3ce8:	4942                	lw	s2,16(sp)
    3cea:	49b2                	lw	s3,12(sp)
    3cec:	6105                	addi	sp,sp,32
    3cee:	8082                	ret
    3cf0:	5458                	lw	a4,44(s0)
    3cf2:	d77d                	beqz	a4,3ce0 <__sflush_r+0x26>
    3cf4:	0004a903          	lw	s2,0(s1)
    3cf8:	01379693          	slli	a3,a5,0x13
    3cfc:	0004a023          	sw	zero,0(s1)
    3d00:	0606dd63          	bgez	a3,3d7a <__sflush_r+0xc0>
    3d04:	4870                	lw	a2,84(s0)
    3d06:	00c45783          	lhu	a5,12(s0)
    3d0a:	8b91                	andi	a5,a5,4
    3d0c:	c799                	beqz	a5,3d1a <__sflush_r+0x60>
    3d0e:	405c                	lw	a5,4(s0)
    3d10:	8e1d                	sub	a2,a2,a5
    3d12:	585c                	lw	a5,52(s0)
    3d14:	c399                	beqz	a5,3d1a <__sflush_r+0x60>
    3d16:	403c                	lw	a5,64(s0)
    3d18:	8e1d                	sub	a2,a2,a5
    3d1a:	545c                	lw	a5,44(s0)
    3d1c:	500c                	lw	a1,32(s0)
    3d1e:	4681                	li	a3,0
    3d20:	8526                	mv	a0,s1
    3d22:	9782                	jalr	a5
    3d24:	57fd                	li	a5,-1
    3d26:	00c45703          	lhu	a4,12(s0)
    3d2a:	00f51d63          	bne	a0,a5,3d44 <__sflush_r+0x8a>
    3d2e:	4094                	lw	a3,0(s1)
    3d30:	47f5                	li	a5,29
    3d32:	06d7e863          	bltu	a5,a3,3da2 <__sflush_r+0xe8>
    3d36:	204007b7          	lui	a5,0x20400
    3d3a:	0785                	addi	a5,a5,1
    3d3c:	00d7d7b3          	srl	a5,a5,a3
    3d40:	8b85                	andi	a5,a5,1
    3d42:	c3a5                	beqz	a5,3da2 <__sflush_r+0xe8>
    3d44:	481c                	lw	a5,16(s0)
    3d46:	00042223          	sw	zero,4(s0)
    3d4a:	c01c                	sw	a5,0(s0)
    3d4c:	01371793          	slli	a5,a4,0x13
    3d50:	0007d863          	bgez	a5,3d60 <__sflush_r+0xa6>
    3d54:	57fd                	li	a5,-1
    3d56:	00f51463          	bne	a0,a5,3d5e <__sflush_r+0xa4>
    3d5a:	409c                	lw	a5,0(s1)
    3d5c:	e391                	bnez	a5,3d60 <__sflush_r+0xa6>
    3d5e:	c868                	sw	a0,84(s0)
    3d60:	584c                	lw	a1,52(s0)
    3d62:	0124a023          	sw	s2,0(s1)
    3d66:	ddad                	beqz	a1,3ce0 <__sflush_r+0x26>
    3d68:	04440793          	addi	a5,s0,68
    3d6c:	00f58463          	beq	a1,a5,3d74 <__sflush_r+0xba>
    3d70:	8526                	mv	a0,s1
    3d72:	2121                	jal	417a <_free_r>
    3d74:	02042a23          	sw	zero,52(s0)
    3d78:	b7a5                	j	3ce0 <__sflush_r+0x26>
    3d7a:	500c                	lw	a1,32(s0)
    3d7c:	4601                	li	a2,0
    3d7e:	4685                	li	a3,1
    3d80:	8526                	mv	a0,s1
    3d82:	9702                	jalr	a4
    3d84:	57fd                	li	a5,-1
    3d86:	862a                	mv	a2,a0
    3d88:	f6f51fe3          	bne	a0,a5,3d06 <__sflush_r+0x4c>
    3d8c:	409c                	lw	a5,0(s1)
    3d8e:	dfa5                	beqz	a5,3d06 <__sflush_r+0x4c>
    3d90:	4775                	li	a4,29
    3d92:	00e78563          	beq	a5,a4,3d9c <__sflush_r+0xe2>
    3d96:	4759                	li	a4,22
    3d98:	04e79463          	bne	a5,a4,3de0 <__sflush_r+0x126>
    3d9c:	0124a023          	sw	s2,0(s1)
    3da0:	b781                	j	3ce0 <__sflush_r+0x26>
    3da2:	04076713          	ori	a4,a4,64
    3da6:	00e41623          	sh	a4,12(s0)
    3daa:	557d                	li	a0,-1
    3dac:	bf1d                	j	3ce2 <__sflush_r+0x28>
    3dae:	0105a983          	lw	s3,16(a1)
    3db2:	f20987e3          	beqz	s3,3ce0 <__sflush_r+0x26>
    3db6:	0005a903          	lw	s2,0(a1)
    3dba:	8b8d                	andi	a5,a5,3
    3dbc:	0135a023          	sw	s3,0(a1)
    3dc0:	41390933          	sub	s2,s2,s3
    3dc4:	4701                	li	a4,0
    3dc6:	e391                	bnez	a5,3dca <__sflush_r+0x110>
    3dc8:	49d8                	lw	a4,20(a1)
    3dca:	c418                	sw	a4,8(s0)
    3dcc:	f1205ae3          	blez	s2,3ce0 <__sflush_r+0x26>
    3dd0:	541c                	lw	a5,40(s0)
    3dd2:	500c                	lw	a1,32(s0)
    3dd4:	86ca                	mv	a3,s2
    3dd6:	864e                	mv	a2,s3
    3dd8:	8526                	mv	a0,s1
    3dda:	9782                	jalr	a5
    3ddc:	00a04963          	bgtz	a0,3dee <__sflush_r+0x134>
    3de0:	00c45783          	lhu	a5,12(s0)
    3de4:	0407e793          	ori	a5,a5,64
    3de8:	00f41623          	sh	a5,12(s0)
    3dec:	bf7d                	j	3daa <__sflush_r+0xf0>
    3dee:	99aa                	add	s3,s3,a0
    3df0:	40a90933          	sub	s2,s2,a0
    3df4:	bfe1                	j	3dcc <__sflush_r+0x112>

00003df6 <_fflush_r>:
    3df6:	499c                	lw	a5,16(a1)
    3df8:	cfb9                	beqz	a5,3e56 <_fflush_r+0x60>
    3dfa:	1101                	addi	sp,sp,-32
    3dfc:	cc22                	sw	s0,24(sp)
    3dfe:	ce06                	sw	ra,28(sp)
    3e00:	842a                	mv	s0,a0
    3e02:	c511                	beqz	a0,3e0e <_fflush_r+0x18>
    3e04:	4d1c                	lw	a5,24(a0)
    3e06:	e781                	bnez	a5,3e0e <_fflush_r+0x18>
    3e08:	c62e                	sw	a1,12(sp)
    3e0a:	2229                	jal	3f14 <__sinit>
    3e0c:	45b2                	lw	a1,12(sp)
    3e0e:	00004797          	auipc	a5,0x4
    3e12:	4ca78793          	addi	a5,a5,1226 # 82d8 <__sf_fake_stdin>
    3e16:	00f59b63          	bne	a1,a5,3e2c <_fflush_r+0x36>
    3e1a:	404c                	lw	a1,4(s0)
    3e1c:	00c59783          	lh	a5,12(a1)
    3e20:	c795                	beqz	a5,3e4c <_fflush_r+0x56>
    3e22:	8522                	mv	a0,s0
    3e24:	4462                	lw	s0,24(sp)
    3e26:	40f2                	lw	ra,28(sp)
    3e28:	6105                	addi	sp,sp,32
    3e2a:	bd41                	j	3cba <__sflush_r>
    3e2c:	00004797          	auipc	a5,0x4
    3e30:	4cc78793          	addi	a5,a5,1228 # 82f8 <__sf_fake_stdout>
    3e34:	00f59463          	bne	a1,a5,3e3c <_fflush_r+0x46>
    3e38:	440c                	lw	a1,8(s0)
    3e3a:	b7cd                	j	3e1c <_fflush_r+0x26>
    3e3c:	00004797          	auipc	a5,0x4
    3e40:	47c78793          	addi	a5,a5,1148 # 82b8 <__sf_fake_stderr>
    3e44:	fcf59ce3          	bne	a1,a5,3e1c <_fflush_r+0x26>
    3e48:	444c                	lw	a1,12(s0)
    3e4a:	bfc9                	j	3e1c <_fflush_r+0x26>
    3e4c:	40f2                	lw	ra,28(sp)
    3e4e:	4462                	lw	s0,24(sp)
    3e50:	4501                	li	a0,0
    3e52:	6105                	addi	sp,sp,32
    3e54:	8082                	ret
    3e56:	4501                	li	a0,0
    3e58:	8082                	ret

00003e5a <std>:
    3e5a:	1141                	addi	sp,sp,-16
    3e5c:	c422                	sw	s0,8(sp)
    3e5e:	c606                	sw	ra,12(sp)
    3e60:	842a                	mv	s0,a0
    3e62:	00b51623          	sh	a1,12(a0)
    3e66:	00c51723          	sh	a2,14(a0)
    3e6a:	00052023          	sw	zero,0(a0)
    3e6e:	00052223          	sw	zero,4(a0)
    3e72:	00052423          	sw	zero,8(a0)
    3e76:	06052223          	sw	zero,100(a0)
    3e7a:	00052823          	sw	zero,16(a0)
    3e7e:	00052a23          	sw	zero,20(a0)
    3e82:	00052c23          	sw	zero,24(a0)
    3e86:	4621                	li	a2,8
    3e88:	4581                	li	a1,0
    3e8a:	05c50513          	addi	a0,a0,92
    3e8e:	b72fc0ef          	jal	ra,200 <memset>
    3e92:	00001797          	auipc	a5,0x1
    3e96:	ebc78793          	addi	a5,a5,-324 # 4d4e <__sread>
    3e9a:	d05c                	sw	a5,36(s0)
    3e9c:	00001797          	auipc	a5,0x1
    3ea0:	ee278793          	addi	a5,a5,-286 # 4d7e <__swrite>
    3ea4:	d41c                	sw	a5,40(s0)
    3ea6:	00001797          	auipc	a5,0x1
    3eaa:	f2678793          	addi	a5,a5,-218 # 4dcc <__sseek>
    3eae:	d45c                	sw	a5,44(s0)
    3eb0:	00001797          	auipc	a5,0x1
    3eb4:	f5278793          	addi	a5,a5,-174 # 4e02 <__sclose>
    3eb8:	d000                	sw	s0,32(s0)
    3eba:	d81c                	sw	a5,48(s0)
    3ebc:	40b2                	lw	ra,12(sp)
    3ebe:	4422                	lw	s0,8(sp)
    3ec0:	0141                	addi	sp,sp,16
    3ec2:	8082                	ret

00003ec4 <_cleanup_r>:
    3ec4:	00000597          	auipc	a1,0x0
    3ec8:	f3258593          	addi	a1,a1,-206 # 3df6 <_fflush_r>
    3ecc:	a2a9                	j	4016 <_fwalk_reent>

00003ece <__sfmoreglue>:
    3ece:	1141                	addi	sp,sp,-16
    3ed0:	c226                	sw	s1,4(sp)
    3ed2:	06800613          	li	a2,104
    3ed6:	fff58493          	addi	s1,a1,-1
    3eda:	02c484b3          	mul	s1,s1,a2
    3ede:	c04a                	sw	s2,0(sp)
    3ee0:	892e                	mv	s2,a1
    3ee2:	c422                	sw	s0,8(sp)
    3ee4:	c606                	sw	ra,12(sp)
    3ee6:	07448593          	addi	a1,s1,116
    3eea:	2e25                	jal	4222 <_malloc_r>
    3eec:	842a                	mv	s0,a0
    3eee:	cd01                	beqz	a0,3f06 <__sfmoreglue+0x38>
    3ef0:	00052023          	sw	zero,0(a0)
    3ef4:	01252223          	sw	s2,4(a0)
    3ef8:	0531                	addi	a0,a0,12
    3efa:	c408                	sw	a0,8(s0)
    3efc:	06848613          	addi	a2,s1,104
    3f00:	4581                	li	a1,0
    3f02:	afefc0ef          	jal	ra,200 <memset>
    3f06:	8522                	mv	a0,s0
    3f08:	40b2                	lw	ra,12(sp)
    3f0a:	4422                	lw	s0,8(sp)
    3f0c:	4492                	lw	s1,4(sp)
    3f0e:	4902                	lw	s2,0(sp)
    3f10:	0141                	addi	sp,sp,16
    3f12:	8082                	ret

00003f14 <__sinit>:
    3f14:	4d1c                	lw	a5,24(a0)
    3f16:	e3ad                	bnez	a5,3f78 <__sinit+0x64>
    3f18:	1141                	addi	sp,sp,-16
    3f1a:	c606                	sw	ra,12(sp)
    3f1c:	c422                	sw	s0,8(sp)
    3f1e:	00000797          	auipc	a5,0x0
    3f22:	fa678793          	addi	a5,a5,-90 # 3ec4 <_cleanup_r>
    3f26:	d51c                	sw	a5,40(a0)
    3f28:	82018793          	addi	a5,gp,-2016 # 20000090 <_global_impure_ptr>
    3f2c:	439c                	lw	a5,0(a5)
    3f2e:	04052423          	sw	zero,72(a0)
    3f32:	04052623          	sw	zero,76(a0)
    3f36:	04052823          	sw	zero,80(a0)
    3f3a:	00f51463          	bne	a0,a5,3f42 <__sinit+0x2e>
    3f3e:	4785                	li	a5,1
    3f40:	cd1c                	sw	a5,24(a0)
    3f42:	842a                	mv	s0,a0
    3f44:	281d                	jal	3f7a <__sfp>
    3f46:	c048                	sw	a0,4(s0)
    3f48:	8522                	mv	a0,s0
    3f4a:	2805                	jal	3f7a <__sfp>
    3f4c:	c408                	sw	a0,8(s0)
    3f4e:	8522                	mv	a0,s0
    3f50:	202d                	jal	3f7a <__sfp>
    3f52:	c448                	sw	a0,12(s0)
    3f54:	4048                	lw	a0,4(s0)
    3f56:	4601                	li	a2,0
    3f58:	4591                	li	a1,4
    3f5a:	3701                	jal	3e5a <std>
    3f5c:	4408                	lw	a0,8(s0)
    3f5e:	4605                	li	a2,1
    3f60:	45a5                	li	a1,9
    3f62:	3de5                	jal	3e5a <std>
    3f64:	4448                	lw	a0,12(s0)
    3f66:	4609                	li	a2,2
    3f68:	45c9                	li	a1,18
    3f6a:	3dc5                	jal	3e5a <std>
    3f6c:	4785                	li	a5,1
    3f6e:	cc1c                	sw	a5,24(s0)
    3f70:	40b2                	lw	ra,12(sp)
    3f72:	4422                	lw	s0,8(sp)
    3f74:	0141                	addi	sp,sp,16
    3f76:	8082                	ret
    3f78:	8082                	ret

00003f7a <__sfp>:
    3f7a:	1141                	addi	sp,sp,-16
    3f7c:	82018793          	addi	a5,gp,-2016 # 20000090 <_global_impure_ptr>
    3f80:	c226                	sw	s1,4(sp)
    3f82:	4384                	lw	s1,0(a5)
    3f84:	c04a                	sw	s2,0(sp)
    3f86:	c606                	sw	ra,12(sp)
    3f88:	4c9c                	lw	a5,24(s1)
    3f8a:	c422                	sw	s0,8(sp)
    3f8c:	892a                	mv	s2,a0
    3f8e:	e399                	bnez	a5,3f94 <__sfp+0x1a>
    3f90:	8526                	mv	a0,s1
    3f92:	3749                	jal	3f14 <__sinit>
    3f94:	04848493          	addi	s1,s1,72
    3f98:	4480                	lw	s0,8(s1)
    3f9a:	40dc                	lw	a5,4(s1)
    3f9c:	17fd                	addi	a5,a5,-1
    3f9e:	0007d663          	bgez	a5,3faa <__sfp+0x30>
    3fa2:	409c                	lw	a5,0(s1)
    3fa4:	cfb9                	beqz	a5,4002 <__sfp+0x88>
    3fa6:	4084                	lw	s1,0(s1)
    3fa8:	bfc5                	j	3f98 <__sfp+0x1e>
    3faa:	00c41703          	lh	a4,12(s0)
    3fae:	e739                	bnez	a4,3ffc <__sfp+0x82>
    3fb0:	77c1                	lui	a5,0xffff0
    3fb2:	0785                	addi	a5,a5,1
    3fb4:	06042223          	sw	zero,100(s0)
    3fb8:	00042023          	sw	zero,0(s0)
    3fbc:	00042223          	sw	zero,4(s0)
    3fc0:	00042423          	sw	zero,8(s0)
    3fc4:	c45c                	sw	a5,12(s0)
    3fc6:	00042823          	sw	zero,16(s0)
    3fca:	00042a23          	sw	zero,20(s0)
    3fce:	00042c23          	sw	zero,24(s0)
    3fd2:	4621                	li	a2,8
    3fd4:	4581                	li	a1,0
    3fd6:	05c40513          	addi	a0,s0,92
    3fda:	a26fc0ef          	jal	ra,200 <memset>
    3fde:	02042a23          	sw	zero,52(s0)
    3fe2:	02042c23          	sw	zero,56(s0)
    3fe6:	04042423          	sw	zero,72(s0)
    3fea:	04042623          	sw	zero,76(s0)
    3fee:	8522                	mv	a0,s0
    3ff0:	40b2                	lw	ra,12(sp)
    3ff2:	4422                	lw	s0,8(sp)
    3ff4:	4492                	lw	s1,4(sp)
    3ff6:	4902                	lw	s2,0(sp)
    3ff8:	0141                	addi	sp,sp,16
    3ffa:	8082                	ret
    3ffc:	06840413          	addi	s0,s0,104
    4000:	bf71                	j	3f9c <__sfp+0x22>
    4002:	4591                	li	a1,4
    4004:	854a                	mv	a0,s2
    4006:	35e1                	jal	3ece <__sfmoreglue>
    4008:	c088                	sw	a0,0(s1)
    400a:	fd51                	bnez	a0,3fa6 <__sfp+0x2c>
    400c:	47b1                	li	a5,12
    400e:	00f92023          	sw	a5,0(s2)
    4012:	4401                	li	s0,0
    4014:	bfe9                	j	3fee <__sfp+0x74>

00004016 <_fwalk_reent>:
    4016:	7179                	addi	sp,sp,-48
    4018:	d422                	sw	s0,40(sp)
    401a:	d04a                	sw	s2,32(sp)
    401c:	cc52                	sw	s4,24(sp)
    401e:	ca56                	sw	s5,20(sp)
    4020:	c85a                	sw	s6,16(sp)
    4022:	c65e                	sw	s7,12(sp)
    4024:	d606                	sw	ra,44(sp)
    4026:	d226                	sw	s1,36(sp)
    4028:	ce4e                	sw	s3,28(sp)
    402a:	8a2a                	mv	s4,a0
    402c:	8aae                	mv	s5,a1
    402e:	04850413          	addi	s0,a0,72
    4032:	4901                	li	s2,0
    4034:	4b05                	li	s6,1
    4036:	5bfd                	li	s7,-1
    4038:	ec09                	bnez	s0,4052 <_fwalk_reent+0x3c>
    403a:	50b2                	lw	ra,44(sp)
    403c:	5422                	lw	s0,40(sp)
    403e:	854a                	mv	a0,s2
    4040:	5492                	lw	s1,36(sp)
    4042:	5902                	lw	s2,32(sp)
    4044:	49f2                	lw	s3,28(sp)
    4046:	4a62                	lw	s4,24(sp)
    4048:	4ad2                	lw	s5,20(sp)
    404a:	4b42                	lw	s6,16(sp)
    404c:	4bb2                	lw	s7,12(sp)
    404e:	6145                	addi	sp,sp,48
    4050:	8082                	ret
    4052:	4404                	lw	s1,8(s0)
    4054:	00442983          	lw	s3,4(s0)
    4058:	19fd                	addi	s3,s3,-1
    405a:	0009d463          	bgez	s3,4062 <_fwalk_reent+0x4c>
    405e:	4000                	lw	s0,0(s0)
    4060:	bfe1                	j	4038 <_fwalk_reent+0x22>
    4062:	00c4d783          	lhu	a5,12(s1)
    4066:	00fb7b63          	bgeu	s6,a5,407c <_fwalk_reent+0x66>
    406a:	00e49783          	lh	a5,14(s1)
    406e:	01778763          	beq	a5,s7,407c <_fwalk_reent+0x66>
    4072:	85a6                	mv	a1,s1
    4074:	8552                	mv	a0,s4
    4076:	9a82                	jalr	s5
    4078:	00a96933          	or	s2,s2,a0
    407c:	06848493          	addi	s1,s1,104
    4080:	bfe1                	j	4058 <_fwalk_reent+0x42>

00004082 <__swhatbuf_r>:
    4082:	7119                	addi	sp,sp,-128
    4084:	daa6                	sw	s1,116(sp)
    4086:	84ae                	mv	s1,a1
    4088:	00e59583          	lh	a1,14(a1)
    408c:	dca2                	sw	s0,120(sp)
    408e:	de86                	sw	ra,124(sp)
    4090:	8432                	mv	s0,a2
    4092:	0005dc63          	bgez	a1,40aa <__swhatbuf_r+0x28>
    4096:	00c4d783          	lhu	a5,12(s1)
    409a:	0006a023          	sw	zero,0(a3)
    409e:	0807f793          	andi	a5,a5,128
    40a2:	e785                	bnez	a5,40ca <__swhatbuf_r+0x48>
    40a4:	40000793          	li	a5,1024
    40a8:	a01d                	j	40ce <__swhatbuf_r+0x4c>
    40aa:	0830                	addi	a2,sp,24
    40ac:	c636                	sw	a3,12(sp)
    40ae:	5b1000ef          	jal	ra,4e5e <_fstat_r>
    40b2:	46b2                	lw	a3,12(sp)
    40b4:	fe0541e3          	bltz	a0,4096 <__swhatbuf_r+0x14>
    40b8:	4772                	lw	a4,28(sp)
    40ba:	67bd                	lui	a5,0xf
    40bc:	8ff9                	and	a5,a5,a4
    40be:	7779                	lui	a4,0xffffe
    40c0:	97ba                	add	a5,a5,a4
    40c2:	0017b793          	seqz	a5,a5
    40c6:	c29c                	sw	a5,0(a3)
    40c8:	bff1                	j	40a4 <__swhatbuf_r+0x22>
    40ca:	04000793          	li	a5,64
    40ce:	c01c                	sw	a5,0(s0)
    40d0:	50f6                	lw	ra,124(sp)
    40d2:	5466                	lw	s0,120(sp)
    40d4:	54d6                	lw	s1,116(sp)
    40d6:	4501                	li	a0,0
    40d8:	6109                	addi	sp,sp,128
    40da:	8082                	ret

000040dc <__smakebuf_r>:
    40dc:	00c5d783          	lhu	a5,12(a1)
    40e0:	1101                	addi	sp,sp,-32
    40e2:	cc22                	sw	s0,24(sp)
    40e4:	ce06                	sw	ra,28(sp)
    40e6:	ca26                	sw	s1,20(sp)
    40e8:	c84a                	sw	s2,16(sp)
    40ea:	8b89                	andi	a5,a5,2
    40ec:	842e                	mv	s0,a1
    40ee:	cf89                	beqz	a5,4108 <__smakebuf_r+0x2c>
    40f0:	04740793          	addi	a5,s0,71
    40f4:	c01c                	sw	a5,0(s0)
    40f6:	c81c                	sw	a5,16(s0)
    40f8:	4785                	li	a5,1
    40fa:	c85c                	sw	a5,20(s0)
    40fc:	40f2                	lw	ra,28(sp)
    40fe:	4462                	lw	s0,24(sp)
    4100:	44d2                	lw	s1,20(sp)
    4102:	4942                	lw	s2,16(sp)
    4104:	6105                	addi	sp,sp,32
    4106:	8082                	ret
    4108:	0074                	addi	a3,sp,12
    410a:	0030                	addi	a2,sp,8
    410c:	84aa                	mv	s1,a0
    410e:	3f95                	jal	4082 <__swhatbuf_r>
    4110:	45a2                	lw	a1,8(sp)
    4112:	892a                	mv	s2,a0
    4114:	8526                	mv	a0,s1
    4116:	2231                	jal	4222 <_malloc_r>
    4118:	ed01                	bnez	a0,4130 <__smakebuf_r+0x54>
    411a:	00c41783          	lh	a5,12(s0)
    411e:	2007f713          	andi	a4,a5,512
    4122:	ff69                	bnez	a4,40fc <__smakebuf_r+0x20>
    4124:	9bf1                	andi	a5,a5,-4
    4126:	0027e793          	ori	a5,a5,2
    412a:	00f41623          	sh	a5,12(s0)
    412e:	b7c9                	j	40f0 <__smakebuf_r+0x14>
    4130:	00000797          	auipc	a5,0x0
    4134:	d9478793          	addi	a5,a5,-620 # 3ec4 <_cleanup_r>
    4138:	d49c                	sw	a5,40(s1)
    413a:	00c45783          	lhu	a5,12(s0)
    413e:	c008                	sw	a0,0(s0)
    4140:	c808                	sw	a0,16(s0)
    4142:	0807e793          	ori	a5,a5,128
    4146:	00f41623          	sh	a5,12(s0)
    414a:	47a2                	lw	a5,8(sp)
    414c:	c85c                	sw	a5,20(s0)
    414e:	47b2                	lw	a5,12(sp)
    4150:	cf91                	beqz	a5,416c <__smakebuf_r+0x90>
    4152:	00e41583          	lh	a1,14(s0)
    4156:	8526                	mv	a0,s1
    4158:	531000ef          	jal	ra,4e88 <_isatty_r>
    415c:	c901                	beqz	a0,416c <__smakebuf_r+0x90>
    415e:	00c45783          	lhu	a5,12(s0)
    4162:	9bf1                	andi	a5,a5,-4
    4164:	0017e793          	ori	a5,a5,1
    4168:	00f41623          	sh	a5,12(s0)
    416c:	00c45783          	lhu	a5,12(s0)
    4170:	00f96933          	or	s2,s2,a5
    4174:	01241623          	sh	s2,12(s0)
    4178:	b751                	j	40fc <__smakebuf_r+0x20>

0000417a <_free_r>:
    417a:	c1dd                	beqz	a1,4220 <_free_r+0xa6>
    417c:	ffc5a783          	lw	a5,-4(a1)
    4180:	1141                	addi	sp,sp,-16
    4182:	c422                	sw	s0,8(sp)
    4184:	c606                	sw	ra,12(sp)
    4186:	c226                	sw	s1,4(sp)
    4188:	ffc58413          	addi	s0,a1,-4
    418c:	0007d363          	bgez	a5,4192 <_free_r+0x18>
    4190:	943e                	add	s0,s0,a5
    4192:	84aa                	mv	s1,a0
    4194:	663000ef          	jal	ra,4ff6 <__malloc_lock>
    4198:	85018793          	addi	a5,gp,-1968 # 200000c0 <__malloc_free_list>
    419c:	439c                	lw	a5,0(a5)
    419e:	ef81                	bnez	a5,41b6 <_free_r+0x3c>
    41a0:	00042223          	sw	zero,4(s0)
    41a4:	8481a823          	sw	s0,-1968(gp) # 200000c0 <__malloc_free_list>
    41a8:	4422                	lw	s0,8(sp)
    41aa:	40b2                	lw	ra,12(sp)
    41ac:	8526                	mv	a0,s1
    41ae:	4492                	lw	s1,4(sp)
    41b0:	0141                	addi	sp,sp,16
    41b2:	6470006f          	j	4ff8 <__malloc_unlock>
    41b6:	00f47e63          	bgeu	s0,a5,41d2 <_free_r+0x58>
    41ba:	4014                	lw	a3,0(s0)
    41bc:	00d40733          	add	a4,s0,a3
    41c0:	00e79663          	bne	a5,a4,41cc <_free_r+0x52>
    41c4:	4398                	lw	a4,0(a5)
    41c6:	43dc                	lw	a5,4(a5)
    41c8:	9736                	add	a4,a4,a3
    41ca:	c018                	sw	a4,0(s0)
    41cc:	c05c                	sw	a5,4(s0)
    41ce:	bfd9                	j	41a4 <_free_r+0x2a>
    41d0:	87ba                	mv	a5,a4
    41d2:	43d8                	lw	a4,4(a5)
    41d4:	c319                	beqz	a4,41da <_free_r+0x60>
    41d6:	fee47de3          	bgeu	s0,a4,41d0 <_free_r+0x56>
    41da:	4394                	lw	a3,0(a5)
    41dc:	00d78633          	add	a2,a5,a3
    41e0:	00861f63          	bne	a2,s0,41fe <_free_r+0x84>
    41e4:	4010                	lw	a2,0(s0)
    41e6:	96b2                	add	a3,a3,a2
    41e8:	c394                	sw	a3,0(a5)
    41ea:	00d78633          	add	a2,a5,a3
    41ee:	fac71de3          	bne	a4,a2,41a8 <_free_r+0x2e>
    41f2:	4310                	lw	a2,0(a4)
    41f4:	4358                	lw	a4,4(a4)
    41f6:	96b2                	add	a3,a3,a2
    41f8:	c394                	sw	a3,0(a5)
    41fa:	c3d8                	sw	a4,4(a5)
    41fc:	b775                	j	41a8 <_free_r+0x2e>
    41fe:	00c47563          	bgeu	s0,a2,4208 <_free_r+0x8e>
    4202:	47b1                	li	a5,12
    4204:	c09c                	sw	a5,0(s1)
    4206:	b74d                	j	41a8 <_free_r+0x2e>
    4208:	4010                	lw	a2,0(s0)
    420a:	00c406b3          	add	a3,s0,a2
    420e:	00d71663          	bne	a4,a3,421a <_free_r+0xa0>
    4212:	4314                	lw	a3,0(a4)
    4214:	4358                	lw	a4,4(a4)
    4216:	96b2                	add	a3,a3,a2
    4218:	c014                	sw	a3,0(s0)
    421a:	c058                	sw	a4,4(s0)
    421c:	c3c0                	sw	s0,4(a5)
    421e:	b769                	j	41a8 <_free_r+0x2e>
    4220:	8082                	ret

00004222 <_malloc_r>:
    4222:	1101                	addi	sp,sp,-32
    4224:	ca26                	sw	s1,20(sp)
    4226:	00358493          	addi	s1,a1,3
    422a:	98f1                	andi	s1,s1,-4
    422c:	ce06                	sw	ra,28(sp)
    422e:	cc22                	sw	s0,24(sp)
    4230:	c84a                	sw	s2,16(sp)
    4232:	c64e                	sw	s3,12(sp)
    4234:	04a1                	addi	s1,s1,8
    4236:	47b1                	li	a5,12
    4238:	04f4f563          	bgeu	s1,a5,4282 <_malloc_r+0x60>
    423c:	44b1                	li	s1,12
    423e:	04b4e463          	bltu	s1,a1,4286 <_malloc_r+0x64>
    4242:	892a                	mv	s2,a0
    4244:	5b3000ef          	jal	ra,4ff6 <__malloc_lock>
    4248:	85018793          	addi	a5,gp,-1968 # 200000c0 <__malloc_free_list>
    424c:	4398                	lw	a4,0(a5)
    424e:	843a                	mv	s0,a4
    4250:	e429                	bnez	s0,429a <_malloc_r+0x78>
    4252:	85418793          	addi	a5,gp,-1964 # 200000c4 <__malloc_sbrk_start>
    4256:	439c                	lw	a5,0(a5)
    4258:	e799                	bnez	a5,4266 <_malloc_r+0x44>
    425a:	4581                	li	a1,0
    425c:	854a                	mv	a0,s2
    425e:	2c7000ef          	jal	ra,4d24 <_sbrk_r>
    4262:	84a1aa23          	sw	a0,-1964(gp) # 200000c4 <__malloc_sbrk_start>
    4266:	85a6                	mv	a1,s1
    4268:	854a                	mv	a0,s2
    426a:	2bb000ef          	jal	ra,4d24 <_sbrk_r>
    426e:	59fd                	li	s3,-1
    4270:	07351963          	bne	a0,s3,42e2 <_malloc_r+0xc0>
    4274:	47b1                	li	a5,12
    4276:	00f92023          	sw	a5,0(s2)
    427a:	854a                	mv	a0,s2
    427c:	57d000ef          	jal	ra,4ff8 <__malloc_unlock>
    4280:	a029                	j	428a <_malloc_r+0x68>
    4282:	fa04dee3          	bgez	s1,423e <_malloc_r+0x1c>
    4286:	47b1                	li	a5,12
    4288:	c11c                	sw	a5,0(a0)
    428a:	4501                	li	a0,0
    428c:	40f2                	lw	ra,28(sp)
    428e:	4462                	lw	s0,24(sp)
    4290:	44d2                	lw	s1,20(sp)
    4292:	4942                	lw	s2,16(sp)
    4294:	49b2                	lw	s3,12(sp)
    4296:	6105                	addi	sp,sp,32
    4298:	8082                	ret
    429a:	401c                	lw	a5,0(s0)
    429c:	8f85                	sub	a5,a5,s1
    429e:	0207cf63          	bltz	a5,42dc <_malloc_r+0xba>
    42a2:	46ad                	li	a3,11
    42a4:	00f6f663          	bgeu	a3,a5,42b0 <_malloc_r+0x8e>
    42a8:	c01c                	sw	a5,0(s0)
    42aa:	943e                	add	s0,s0,a5
    42ac:	c004                	sw	s1,0(s0)
    42ae:	a031                	j	42ba <_malloc_r+0x98>
    42b0:	405c                	lw	a5,4(s0)
    42b2:	02871363          	bne	a4,s0,42d8 <_malloc_r+0xb6>
    42b6:	84f1a823          	sw	a5,-1968(gp) # 200000c0 <__malloc_free_list>
    42ba:	854a                	mv	a0,s2
    42bc:	53d000ef          	jal	ra,4ff8 <__malloc_unlock>
    42c0:	00b40513          	addi	a0,s0,11
    42c4:	00440793          	addi	a5,s0,4
    42c8:	9961                	andi	a0,a0,-8
    42ca:	40f50733          	sub	a4,a0,a5
    42ce:	df5d                	beqz	a4,428c <_malloc_r+0x6a>
    42d0:	943a                	add	s0,s0,a4
    42d2:	8f89                	sub	a5,a5,a0
    42d4:	c01c                	sw	a5,0(s0)
    42d6:	bf5d                	j	428c <_malloc_r+0x6a>
    42d8:	c35c                	sw	a5,4(a4)
    42da:	b7c5                	j	42ba <_malloc_r+0x98>
    42dc:	8722                	mv	a4,s0
    42de:	4040                	lw	s0,4(s0)
    42e0:	bf85                	j	4250 <_malloc_r+0x2e>
    42e2:	00350413          	addi	s0,a0,3
    42e6:	9871                	andi	s0,s0,-4
    42e8:	fc8502e3          	beq	a0,s0,42ac <_malloc_r+0x8a>
    42ec:	40a405b3          	sub	a1,s0,a0
    42f0:	854a                	mv	a0,s2
    42f2:	233000ef          	jal	ra,4d24 <_sbrk_r>
    42f6:	fb351be3          	bne	a0,s3,42ac <_malloc_r+0x8a>
    42fa:	bfad                	j	4274 <_malloc_r+0x52>

000042fc <__ssputs_r>:
    42fc:	1101                	addi	sp,sp,-32
    42fe:	c84a                	sw	s2,16(sp)
    4300:	0085a903          	lw	s2,8(a1)
    4304:	cc22                	sw	s0,24(sp)
    4306:	c452                	sw	s4,8(sp)
    4308:	c05a                	sw	s6,0(sp)
    430a:	ce06                	sw	ra,28(sp)
    430c:	ca26                	sw	s1,20(sp)
    430e:	c64e                	sw	s3,12(sp)
    4310:	c256                	sw	s5,4(sp)
    4312:	842e                	mv	s0,a1
    4314:	8b32                	mv	s6,a2
    4316:	8a36                	mv	s4,a3
    4318:	0926ed63          	bltu	a3,s2,43b2 <__ssputs_r+0xb6>
    431c:	00c5d783          	lhu	a5,12(a1)
    4320:	4807f713          	andi	a4,a5,1152
    4324:	c749                	beqz	a4,43ae <__ssputs_r+0xb2>
    4326:	4004                	lw	s1,0(s0)
    4328:	498c                	lw	a1,16(a1)
    432a:	4858                	lw	a4,20(s0)
    432c:	8aaa                	mv	s5,a0
    432e:	40b489b3          	sub	s3,s1,a1
    4332:	448d                	li	s1,3
    4334:	02e484b3          	mul	s1,s1,a4
    4338:	4709                	li	a4,2
    433a:	02e4c4b3          	div	s1,s1,a4
    433e:	00168713          	addi	a4,a3,1
    4342:	974e                	add	a4,a4,s3
    4344:	00e4f363          	bgeu	s1,a4,434a <__ssputs_r+0x4e>
    4348:	84ba                	mv	s1,a4
    434a:	4007f793          	andi	a5,a5,1024
    434e:	c3d1                	beqz	a5,43d2 <__ssputs_r+0xd6>
    4350:	85a6                	mv	a1,s1
    4352:	8556                	mv	a0,s5
    4354:	35f9                	jal	4222 <_malloc_r>
    4356:	892a                	mv	s2,a0
    4358:	e50d                	bnez	a0,4382 <__ssputs_r+0x86>
    435a:	47b1                	li	a5,12
    435c:	00faa023          	sw	a5,0(s5)
    4360:	00c45783          	lhu	a5,12(s0)
    4364:	557d                	li	a0,-1
    4366:	0407e793          	ori	a5,a5,64
    436a:	00f41623          	sh	a5,12(s0)
    436e:	40f2                	lw	ra,28(sp)
    4370:	4462                	lw	s0,24(sp)
    4372:	44d2                	lw	s1,20(sp)
    4374:	4942                	lw	s2,16(sp)
    4376:	49b2                	lw	s3,12(sp)
    4378:	4a22                	lw	s4,8(sp)
    437a:	4a92                	lw	s5,4(sp)
    437c:	4b02                	lw	s6,0(sp)
    437e:	6105                	addi	sp,sp,32
    4380:	8082                	ret
    4382:	480c                	lw	a1,16(s0)
    4384:	864e                	mv	a2,s3
    4386:	371000ef          	jal	ra,4ef6 <memcpy>
    438a:	00c45783          	lhu	a5,12(s0)
    438e:	b7f7f793          	andi	a5,a5,-1153
    4392:	0807e793          	ori	a5,a5,128
    4396:	00f41623          	sh	a5,12(s0)
    439a:	01242823          	sw	s2,16(s0)
    439e:	c844                	sw	s1,20(s0)
    43a0:	994e                	add	s2,s2,s3
    43a2:	413484b3          	sub	s1,s1,s3
    43a6:	01242023          	sw	s2,0(s0)
    43aa:	c404                	sw	s1,8(s0)
    43ac:	8952                	mv	s2,s4
    43ae:	012a7363          	bgeu	s4,s2,43b4 <__ssputs_r+0xb8>
    43b2:	8952                	mv	s2,s4
    43b4:	4008                	lw	a0,0(s0)
    43b6:	864a                	mv	a2,s2
    43b8:	85da                	mv	a1,s6
    43ba:	3f3000ef          	jal	ra,4fac <memmove>
    43be:	441c                	lw	a5,8(s0)
    43c0:	4501                	li	a0,0
    43c2:	412787b3          	sub	a5,a5,s2
    43c6:	c41c                	sw	a5,8(s0)
    43c8:	401c                	lw	a5,0(s0)
    43ca:	993e                	add	s2,s2,a5
    43cc:	01242023          	sw	s2,0(s0)
    43d0:	bf79                	j	436e <__ssputs_r+0x72>
    43d2:	8626                	mv	a2,s1
    43d4:	8556                	mv	a0,s5
    43d6:	425000ef          	jal	ra,4ffa <_realloc_r>
    43da:	892a                	mv	s2,a0
    43dc:	fd5d                	bnez	a0,439a <__ssputs_r+0x9e>
    43de:	480c                	lw	a1,16(s0)
    43e0:	8556                	mv	a0,s5
    43e2:	d99ff0ef          	jal	ra,417a <_free_r>
    43e6:	bf95                	j	435a <__ssputs_r+0x5e>

000043e8 <_svfiprintf_r>:
    43e8:	00c5d783          	lhu	a5,12(a1)
    43ec:	7171                	addi	sp,sp,-176
    43ee:	d326                	sw	s1,164(sp)
    43f0:	d14a                	sw	s2,160(sp)
    43f2:	cf4e                	sw	s3,156(sp)
    43f4:	d706                	sw	ra,172(sp)
    43f6:	d522                	sw	s0,168(sp)
    43f8:	cd52                	sw	s4,152(sp)
    43fa:	cb56                	sw	s5,148(sp)
    43fc:	c95a                	sw	s6,144(sp)
    43fe:	c75e                	sw	s7,140(sp)
    4400:	c562                	sw	s8,136(sp)
    4402:	c366                	sw	s9,132(sp)
    4404:	0807f793          	andi	a5,a5,128
    4408:	89aa                	mv	s3,a0
    440a:	892e                	mv	s2,a1
    440c:	84b2                	mv	s1,a2
    440e:	c3b9                	beqz	a5,4454 <_svfiprintf_r+0x6c>
    4410:	499c                	lw	a5,16(a1)
    4412:	e3a9                	bnez	a5,4454 <_svfiprintf_r+0x6c>
    4414:	04000593          	li	a1,64
    4418:	c636                	sw	a3,12(sp)
    441a:	e09ff0ef          	jal	ra,4222 <_malloc_r>
    441e:	00a92023          	sw	a0,0(s2)
    4422:	00a92823          	sw	a0,16(s2)
    4426:	46b2                	lw	a3,12(sp)
    4428:	e115                	bnez	a0,444c <_svfiprintf_r+0x64>
    442a:	47b1                	li	a5,12
    442c:	00f9a023          	sw	a5,0(s3)
    4430:	557d                	li	a0,-1
    4432:	50ba                	lw	ra,172(sp)
    4434:	542a                	lw	s0,168(sp)
    4436:	549a                	lw	s1,164(sp)
    4438:	590a                	lw	s2,160(sp)
    443a:	49fa                	lw	s3,156(sp)
    443c:	4a6a                	lw	s4,152(sp)
    443e:	4ada                	lw	s5,148(sp)
    4440:	4b4a                	lw	s6,144(sp)
    4442:	4bba                	lw	s7,140(sp)
    4444:	4c2a                	lw	s8,136(sp)
    4446:	4c9a                	lw	s9,132(sp)
    4448:	614d                	addi	sp,sp,176
    444a:	8082                	ret
    444c:	04000793          	li	a5,64
    4450:	00f92a23          	sw	a5,20(s2)
    4454:	02000793          	li	a5,32
    4458:	02f10ca3          	sb	a5,57(sp)
    445c:	03000793          	li	a5,48
    4460:	da02                	sw	zero,52(sp)
    4462:	02f10d23          	sb	a5,58(sp)
    4466:	ce36                	sw	a3,28(sp)
    4468:	02500b93          	li	s7,37
    446c:	00004a97          	auipc	s5,0x4
    4470:	eaca8a93          	addi	s5,s5,-340 # 8318 <__sf_fake_stdout+0x20>
    4474:	4c05                	li	s8,1
    4476:	4b29                	li	s6,10
    4478:	8426                	mv	s0,s1
    447a:	00044783          	lbu	a5,0(s0)
    447e:	c399                	beqz	a5,4484 <_svfiprintf_r+0x9c>
    4480:	09779d63          	bne	a5,s7,451a <_svfiprintf_r+0x132>
    4484:	40940cb3          	sub	s9,s0,s1
    4488:	000c8e63          	beqz	s9,44a4 <_svfiprintf_r+0xbc>
    448c:	86e6                	mv	a3,s9
    448e:	8626                	mv	a2,s1
    4490:	85ca                	mv	a1,s2
    4492:	854e                	mv	a0,s3
    4494:	e69ff0ef          	jal	ra,42fc <__ssputs_r>
    4498:	57fd                	li	a5,-1
    449a:	1af50463          	beq	a0,a5,4642 <_svfiprintf_r+0x25a>
    449e:	56d2                	lw	a3,52(sp)
    44a0:	96e6                	add	a3,a3,s9
    44a2:	da36                	sw	a3,52(sp)
    44a4:	00044783          	lbu	a5,0(s0)
    44a8:	18078d63          	beqz	a5,4642 <_svfiprintf_r+0x25a>
    44ac:	57fd                	li	a5,-1
    44ae:	00140493          	addi	s1,s0,1
    44b2:	d002                	sw	zero,32(sp)
    44b4:	d602                	sw	zero,44(sp)
    44b6:	d23e                	sw	a5,36(sp)
    44b8:	d402                	sw	zero,40(sp)
    44ba:	060101a3          	sb	zero,99(sp)
    44be:	dc82                	sw	zero,120(sp)
    44c0:	0004c583          	lbu	a1,0(s1)
    44c4:	4615                	li	a2,5
    44c6:	8556                	mv	a0,s5
    44c8:	215000ef          	jal	ra,4edc <memchr>
    44cc:	00148413          	addi	s0,s1,1
    44d0:	5782                	lw	a5,32(sp)
    44d2:	e531                	bnez	a0,451e <_svfiprintf_r+0x136>
    44d4:	0107f713          	andi	a4,a5,16
    44d8:	c709                	beqz	a4,44e2 <_svfiprintf_r+0xfa>
    44da:	02000713          	li	a4,32
    44de:	06e101a3          	sb	a4,99(sp)
    44e2:	0087f713          	andi	a4,a5,8
    44e6:	c709                	beqz	a4,44f0 <_svfiprintf_r+0x108>
    44e8:	02b00713          	li	a4,43
    44ec:	06e101a3          	sb	a4,99(sp)
    44f0:	0004c683          	lbu	a3,0(s1)
    44f4:	02a00713          	li	a4,42
    44f8:	02e68b63          	beq	a3,a4,452e <_svfiprintf_r+0x146>
    44fc:	57b2                	lw	a5,44(sp)
    44fe:	8426                	mv	s0,s1
    4500:	4681                	li	a3,0
    4502:	4625                	li	a2,9
    4504:	00044703          	lbu	a4,0(s0)
    4508:	00140593          	addi	a1,s0,1
    450c:	fd070713          	addi	a4,a4,-48 # ffffdfd0 <_eusrstack+0xdfff5fd0>
    4510:	06e67463          	bgeu	a2,a4,4578 <_svfiprintf_r+0x190>
    4514:	c68d                	beqz	a3,453e <_svfiprintf_r+0x156>
    4516:	d63e                	sw	a5,44(sp)
    4518:	a01d                	j	453e <_svfiprintf_r+0x156>
    451a:	0405                	addi	s0,s0,1
    451c:	bfb9                	j	447a <_svfiprintf_r+0x92>
    451e:	41550533          	sub	a0,a0,s5
    4522:	00ac1533          	sll	a0,s8,a0
    4526:	8fc9                	or	a5,a5,a0
    4528:	d03e                	sw	a5,32(sp)
    452a:	84a2                	mv	s1,s0
    452c:	bf51                	j	44c0 <_svfiprintf_r+0xd8>
    452e:	4772                	lw	a4,28(sp)
    4530:	00470693          	addi	a3,a4,4
    4534:	4318                	lw	a4,0(a4)
    4536:	ce36                	sw	a3,28(sp)
    4538:	02074963          	bltz	a4,456a <_svfiprintf_r+0x182>
    453c:	d63a                	sw	a4,44(sp)
    453e:	00044703          	lbu	a4,0(s0)
    4542:	02e00793          	li	a5,46
    4546:	04f71f63          	bne	a4,a5,45a4 <_svfiprintf_r+0x1bc>
    454a:	00144703          	lbu	a4,1(s0)
    454e:	02a00793          	li	a5,42
    4552:	02f71b63          	bne	a4,a5,4588 <_svfiprintf_r+0x1a0>
    4556:	47f2                	lw	a5,28(sp)
    4558:	0409                	addi	s0,s0,2
    455a:	00478713          	addi	a4,a5,4
    455e:	439c                	lw	a5,0(a5)
    4560:	ce3a                	sw	a4,28(sp)
    4562:	0207c163          	bltz	a5,4584 <_svfiprintf_r+0x19c>
    4566:	d23e                	sw	a5,36(sp)
    4568:	a835                	j	45a4 <_svfiprintf_r+0x1bc>
    456a:	40e00733          	neg	a4,a4
    456e:	0027e793          	ori	a5,a5,2
    4572:	d63a                	sw	a4,44(sp)
    4574:	d03e                	sw	a5,32(sp)
    4576:	b7e1                	j	453e <_svfiprintf_r+0x156>
    4578:	036787b3          	mul	a5,a5,s6
    457c:	4685                	li	a3,1
    457e:	842e                	mv	s0,a1
    4580:	97ba                	add	a5,a5,a4
    4582:	b749                	j	4504 <_svfiprintf_r+0x11c>
    4584:	57fd                	li	a5,-1
    4586:	b7c5                	j	4566 <_svfiprintf_r+0x17e>
    4588:	0405                	addi	s0,s0,1
    458a:	d202                	sw	zero,36(sp)
    458c:	4681                	li	a3,0
    458e:	4781                	li	a5,0
    4590:	4625                	li	a2,9
    4592:	00044703          	lbu	a4,0(s0)
    4596:	00140593          	addi	a1,s0,1
    459a:	fd070713          	addi	a4,a4,-48
    459e:	06e67863          	bgeu	a2,a4,460e <_svfiprintf_r+0x226>
    45a2:	f2f1                	bnez	a3,4566 <_svfiprintf_r+0x17e>
    45a4:	00044583          	lbu	a1,0(s0)
    45a8:	460d                	li	a2,3
    45aa:	00004517          	auipc	a0,0x4
    45ae:	d7650513          	addi	a0,a0,-650 # 8320 <__sf_fake_stdout+0x28>
    45b2:	12b000ef          	jal	ra,4edc <memchr>
    45b6:	cd11                	beqz	a0,45d2 <_svfiprintf_r+0x1ea>
    45b8:	00004797          	auipc	a5,0x4
    45bc:	d6878793          	addi	a5,a5,-664 # 8320 <__sf_fake_stdout+0x28>
    45c0:	8d1d                	sub	a0,a0,a5
    45c2:	04000793          	li	a5,64
    45c6:	00a797b3          	sll	a5,a5,a0
    45ca:	5502                	lw	a0,32(sp)
    45cc:	0405                	addi	s0,s0,1
    45ce:	8d5d                	or	a0,a0,a5
    45d0:	d02a                	sw	a0,32(sp)
    45d2:	00044583          	lbu	a1,0(s0)
    45d6:	4619                	li	a2,6
    45d8:	00004517          	auipc	a0,0x4
    45dc:	d4c50513          	addi	a0,a0,-692 # 8324 <__sf_fake_stdout+0x2c>
    45e0:	00140493          	addi	s1,s0,1
    45e4:	02b10c23          	sb	a1,56(sp)
    45e8:	0f5000ef          	jal	ra,4edc <memchr>
    45ec:	c525                	beqz	a0,4654 <_svfiprintf_r+0x26c>
    45ee:	ffffc797          	auipc	a5,0xffffc
    45f2:	a1278793          	addi	a5,a5,-1518 # 0 <_sinit>
    45f6:	e795                	bnez	a5,4622 <_svfiprintf_r+0x23a>
    45f8:	5702                	lw	a4,32(sp)
    45fa:	47f2                	lw	a5,28(sp)
    45fc:	10077713          	andi	a4,a4,256
    4600:	cf09                	beqz	a4,461a <_svfiprintf_r+0x232>
    4602:	0791                	addi	a5,a5,4
    4604:	ce3e                	sw	a5,28(sp)
    4606:	57d2                	lw	a5,52(sp)
    4608:	97d2                	add	a5,a5,s4
    460a:	da3e                	sw	a5,52(sp)
    460c:	b5b5                	j	4478 <_svfiprintf_r+0x90>
    460e:	036787b3          	mul	a5,a5,s6
    4612:	4685                	li	a3,1
    4614:	842e                	mv	s0,a1
    4616:	97ba                	add	a5,a5,a4
    4618:	bfad                	j	4592 <_svfiprintf_r+0x1aa>
    461a:	079d                	addi	a5,a5,7
    461c:	9be1                	andi	a5,a5,-8
    461e:	07a1                	addi	a5,a5,8
    4620:	b7d5                	j	4604 <_svfiprintf_r+0x21c>
    4622:	0878                	addi	a4,sp,28
    4624:	00000697          	auipc	a3,0x0
    4628:	cd868693          	addi	a3,a3,-808 # 42fc <__ssputs_r>
    462c:	864a                	mv	a2,s2
    462e:	100c                	addi	a1,sp,32
    4630:	854e                	mv	a0,s3
    4632:	00000097          	auipc	ra,0x0
    4636:	000000e7          	jalr	zero # 0 <_sinit>
    463a:	57fd                	li	a5,-1
    463c:	8a2a                	mv	s4,a0
    463e:	fcf514e3          	bne	a0,a5,4606 <_svfiprintf_r+0x21e>
    4642:	00c95783          	lhu	a5,12(s2)
    4646:	557d                	li	a0,-1
    4648:	0407f793          	andi	a5,a5,64
    464c:	de0793e3          	bnez	a5,4432 <_svfiprintf_r+0x4a>
    4650:	5552                	lw	a0,52(sp)
    4652:	b3c5                	j	4432 <_svfiprintf_r+0x4a>
    4654:	0878                	addi	a4,sp,28
    4656:	00000697          	auipc	a3,0x0
    465a:	ca668693          	addi	a3,a3,-858 # 42fc <__ssputs_r>
    465e:	864a                	mv	a2,s2
    4660:	100c                	addi	a1,sp,32
    4662:	854e                	mv	a0,s3
    4664:	2919                	jal	4a7a <_printf_i>
    4666:	bfd1                	j	463a <_svfiprintf_r+0x252>

00004668 <__sfputc_r>:
    4668:	461c                	lw	a5,8(a2)
    466a:	17fd                	addi	a5,a5,-1
    466c:	c61c                	sw	a5,8(a2)
    466e:	0007da63          	bgez	a5,4682 <__sfputc_r+0x1a>
    4672:	4e18                	lw	a4,24(a2)
    4674:	00e7c563          	blt	a5,a4,467e <__sfputc_r+0x16>
    4678:	47a9                	li	a5,10
    467a:	00f59463          	bne	a1,a5,4682 <__sfputc_r+0x1a>
    467e:	c70ff06f          	j	3aee <__swbuf_r>
    4682:	421c                	lw	a5,0(a2)
    4684:	852e                	mv	a0,a1
    4686:	00178713          	addi	a4,a5,1
    468a:	c218                	sw	a4,0(a2)
    468c:	00b78023          	sb	a1,0(a5)
    4690:	8082                	ret

00004692 <__sfputs_r>:
    4692:	1101                	addi	sp,sp,-32
    4694:	cc22                	sw	s0,24(sp)
    4696:	ca26                	sw	s1,20(sp)
    4698:	c84a                	sw	s2,16(sp)
    469a:	c64e                	sw	s3,12(sp)
    469c:	c452                	sw	s4,8(sp)
    469e:	ce06                	sw	ra,28(sp)
    46a0:	892a                	mv	s2,a0
    46a2:	89ae                	mv	s3,a1
    46a4:	8432                	mv	s0,a2
    46a6:	00d604b3          	add	s1,a2,a3
    46aa:	5a7d                	li	s4,-1
    46ac:	00941463          	bne	s0,s1,46b4 <__sfputs_r+0x22>
    46b0:	4501                	li	a0,0
    46b2:	a809                	j	46c4 <__sfputs_r+0x32>
    46b4:	00044583          	lbu	a1,0(s0)
    46b8:	864e                	mv	a2,s3
    46ba:	854a                	mv	a0,s2
    46bc:	3775                	jal	4668 <__sfputc_r>
    46be:	0405                	addi	s0,s0,1
    46c0:	ff4516e3          	bne	a0,s4,46ac <__sfputs_r+0x1a>
    46c4:	40f2                	lw	ra,28(sp)
    46c6:	4462                	lw	s0,24(sp)
    46c8:	44d2                	lw	s1,20(sp)
    46ca:	4942                	lw	s2,16(sp)
    46cc:	49b2                	lw	s3,12(sp)
    46ce:	4a22                	lw	s4,8(sp)
    46d0:	6105                	addi	sp,sp,32
    46d2:	8082                	ret

000046d4 <_vfiprintf_r>:
    46d4:	7135                	addi	sp,sp,-160
    46d6:	cd22                	sw	s0,152(sp)
    46d8:	cb26                	sw	s1,148(sp)
    46da:	c94a                	sw	s2,144(sp)
    46dc:	c74e                	sw	s3,140(sp)
    46de:	cf06                	sw	ra,156(sp)
    46e0:	c552                	sw	s4,136(sp)
    46e2:	c356                	sw	s5,132(sp)
    46e4:	c15a                	sw	s6,128(sp)
    46e6:	dede                	sw	s7,124(sp)
    46e8:	dce2                	sw	s8,120(sp)
    46ea:	dae6                	sw	s9,116(sp)
    46ec:	89aa                	mv	s3,a0
    46ee:	84ae                	mv	s1,a1
    46f0:	8932                	mv	s2,a2
    46f2:	8436                	mv	s0,a3
    46f4:	c509                	beqz	a0,46fe <_vfiprintf_r+0x2a>
    46f6:	4d1c                	lw	a5,24(a0)
    46f8:	e399                	bnez	a5,46fe <_vfiprintf_r+0x2a>
    46fa:	81bff0ef          	jal	ra,3f14 <__sinit>
    46fe:	00004797          	auipc	a5,0x4
    4702:	bda78793          	addi	a5,a5,-1062 # 82d8 <__sf_fake_stdin>
    4706:	0cf49b63          	bne	s1,a5,47dc <_vfiprintf_r+0x108>
    470a:	0049a483          	lw	s1,4(s3)
    470e:	00c4d783          	lhu	a5,12(s1)
    4712:	8ba1                	andi	a5,a5,8
    4714:	c7f5                	beqz	a5,4800 <_vfiprintf_r+0x12c>
    4716:	489c                	lw	a5,16(s1)
    4718:	c7e5                	beqz	a5,4800 <_vfiprintf_r+0x12c>
    471a:	02000793          	li	a5,32
    471e:	02f104a3          	sb	a5,41(sp)
    4722:	03000793          	li	a5,48
    4726:	d202                	sw	zero,36(sp)
    4728:	02f10523          	sb	a5,42(sp)
    472c:	c622                	sw	s0,12(sp)
    472e:	02500b93          	li	s7,37
    4732:	00004a97          	auipc	s5,0x4
    4736:	be6a8a93          	addi	s5,s5,-1050 # 8318 <__sf_fake_stdout+0x20>
    473a:	4c05                	li	s8,1
    473c:	4b29                	li	s6,10
    473e:	844a                	mv	s0,s2
    4740:	00044783          	lbu	a5,0(s0)
    4744:	c399                	beqz	a5,474a <_vfiprintf_r+0x76>
    4746:	0f779063          	bne	a5,s7,4826 <_vfiprintf_r+0x152>
    474a:	41240cb3          	sub	s9,s0,s2
    474e:	000c8d63          	beqz	s9,4768 <_vfiprintf_r+0x94>
    4752:	86e6                	mv	a3,s9
    4754:	864a                	mv	a2,s2
    4756:	85a6                	mv	a1,s1
    4758:	854e                	mv	a0,s3
    475a:	3f25                	jal	4692 <__sfputs_r>
    475c:	57fd                	li	a5,-1
    475e:	1ef50663          	beq	a0,a5,494a <_vfiprintf_r+0x276>
    4762:	5692                	lw	a3,36(sp)
    4764:	96e6                	add	a3,a3,s9
    4766:	d236                	sw	a3,36(sp)
    4768:	00044783          	lbu	a5,0(s0)
    476c:	1c078f63          	beqz	a5,494a <_vfiprintf_r+0x276>
    4770:	57fd                	li	a5,-1
    4772:	00140913          	addi	s2,s0,1
    4776:	c802                	sw	zero,16(sp)
    4778:	ce02                	sw	zero,28(sp)
    477a:	ca3e                	sw	a5,20(sp)
    477c:	cc02                	sw	zero,24(sp)
    477e:	040109a3          	sb	zero,83(sp)
    4782:	d482                	sw	zero,104(sp)
    4784:	00094583          	lbu	a1,0(s2)
    4788:	4615                	li	a2,5
    478a:	8556                	mv	a0,s5
    478c:	2f81                	jal	4edc <memchr>
    478e:	00190413          	addi	s0,s2,1
    4792:	47c2                	lw	a5,16(sp)
    4794:	e959                	bnez	a0,482a <_vfiprintf_r+0x156>
    4796:	0107f713          	andi	a4,a5,16
    479a:	c709                	beqz	a4,47a4 <_vfiprintf_r+0xd0>
    479c:	02000713          	li	a4,32
    47a0:	04e109a3          	sb	a4,83(sp)
    47a4:	0087f713          	andi	a4,a5,8
    47a8:	c709                	beqz	a4,47b2 <_vfiprintf_r+0xde>
    47aa:	02b00713          	li	a4,43
    47ae:	04e109a3          	sb	a4,83(sp)
    47b2:	00094683          	lbu	a3,0(s2)
    47b6:	02a00713          	li	a4,42
    47ba:	08e68063          	beq	a3,a4,483a <_vfiprintf_r+0x166>
    47be:	47f2                	lw	a5,28(sp)
    47c0:	844a                	mv	s0,s2
    47c2:	4681                	li	a3,0
    47c4:	4625                	li	a2,9
    47c6:	00044703          	lbu	a4,0(s0)
    47ca:	00140593          	addi	a1,s0,1
    47ce:	fd070713          	addi	a4,a4,-48
    47d2:	0ae67963          	bgeu	a2,a4,4884 <_vfiprintf_r+0x1b0>
    47d6:	cab5                	beqz	a3,484a <_vfiprintf_r+0x176>
    47d8:	ce3e                	sw	a5,28(sp)
    47da:	a885                	j	484a <_vfiprintf_r+0x176>
    47dc:	00004797          	auipc	a5,0x4
    47e0:	b1c78793          	addi	a5,a5,-1252 # 82f8 <__sf_fake_stdout>
    47e4:	00f49563          	bne	s1,a5,47ee <_vfiprintf_r+0x11a>
    47e8:	0089a483          	lw	s1,8(s3)
    47ec:	b70d                	j	470e <_vfiprintf_r+0x3a>
    47ee:	00004797          	auipc	a5,0x4
    47f2:	aca78793          	addi	a5,a5,-1334 # 82b8 <__sf_fake_stderr>
    47f6:	f0f49ce3          	bne	s1,a5,470e <_vfiprintf_r+0x3a>
    47fa:	00c9a483          	lw	s1,12(s3)
    47fe:	bf01                	j	470e <_vfiprintf_r+0x3a>
    4800:	85a6                	mv	a1,s1
    4802:	854e                	mv	a0,s3
    4804:	baaff0ef          	jal	ra,3bae <__swsetup_r>
    4808:	d909                	beqz	a0,471a <_vfiprintf_r+0x46>
    480a:	557d                	li	a0,-1
    480c:	40fa                	lw	ra,156(sp)
    480e:	446a                	lw	s0,152(sp)
    4810:	44da                	lw	s1,148(sp)
    4812:	494a                	lw	s2,144(sp)
    4814:	49ba                	lw	s3,140(sp)
    4816:	4a2a                	lw	s4,136(sp)
    4818:	4a9a                	lw	s5,132(sp)
    481a:	4b0a                	lw	s6,128(sp)
    481c:	5bf6                	lw	s7,124(sp)
    481e:	5c66                	lw	s8,120(sp)
    4820:	5cd6                	lw	s9,116(sp)
    4822:	610d                	addi	sp,sp,160
    4824:	8082                	ret
    4826:	0405                	addi	s0,s0,1
    4828:	bf21                	j	4740 <_vfiprintf_r+0x6c>
    482a:	41550533          	sub	a0,a0,s5
    482e:	00ac1533          	sll	a0,s8,a0
    4832:	8fc9                	or	a5,a5,a0
    4834:	c83e                	sw	a5,16(sp)
    4836:	8922                	mv	s2,s0
    4838:	b7b1                	j	4784 <_vfiprintf_r+0xb0>
    483a:	4732                	lw	a4,12(sp)
    483c:	00470693          	addi	a3,a4,4
    4840:	4318                	lw	a4,0(a4)
    4842:	c636                	sw	a3,12(sp)
    4844:	02074963          	bltz	a4,4876 <_vfiprintf_r+0x1a2>
    4848:	ce3a                	sw	a4,28(sp)
    484a:	00044703          	lbu	a4,0(s0)
    484e:	02e00793          	li	a5,46
    4852:	04f71f63          	bne	a4,a5,48b0 <_vfiprintf_r+0x1dc>
    4856:	00144703          	lbu	a4,1(s0)
    485a:	02a00793          	li	a5,42
    485e:	02f71b63          	bne	a4,a5,4894 <_vfiprintf_r+0x1c0>
    4862:	47b2                	lw	a5,12(sp)
    4864:	0409                	addi	s0,s0,2
    4866:	00478713          	addi	a4,a5,4
    486a:	439c                	lw	a5,0(a5)
    486c:	c63a                	sw	a4,12(sp)
    486e:	0207c163          	bltz	a5,4890 <_vfiprintf_r+0x1bc>
    4872:	ca3e                	sw	a5,20(sp)
    4874:	a835                	j	48b0 <_vfiprintf_r+0x1dc>
    4876:	40e00733          	neg	a4,a4
    487a:	0027e793          	ori	a5,a5,2
    487e:	ce3a                	sw	a4,28(sp)
    4880:	c83e                	sw	a5,16(sp)
    4882:	b7e1                	j	484a <_vfiprintf_r+0x176>
    4884:	036787b3          	mul	a5,a5,s6
    4888:	4685                	li	a3,1
    488a:	842e                	mv	s0,a1
    488c:	97ba                	add	a5,a5,a4
    488e:	bf25                	j	47c6 <_vfiprintf_r+0xf2>
    4890:	57fd                	li	a5,-1
    4892:	b7c5                	j	4872 <_vfiprintf_r+0x19e>
    4894:	0405                	addi	s0,s0,1
    4896:	ca02                	sw	zero,20(sp)
    4898:	4681                	li	a3,0
    489a:	4781                	li	a5,0
    489c:	4625                	li	a2,9
    489e:	00044703          	lbu	a4,0(s0)
    48a2:	00140593          	addi	a1,s0,1
    48a6:	fd070713          	addi	a4,a4,-48
    48aa:	06e67663          	bgeu	a2,a4,4916 <_vfiprintf_r+0x242>
    48ae:	f2f1                	bnez	a3,4872 <_vfiprintf_r+0x19e>
    48b0:	00044583          	lbu	a1,0(s0)
    48b4:	460d                	li	a2,3
    48b6:	00004517          	auipc	a0,0x4
    48ba:	a6a50513          	addi	a0,a0,-1430 # 8320 <__sf_fake_stdout+0x28>
    48be:	2d39                	jal	4edc <memchr>
    48c0:	cd11                	beqz	a0,48dc <_vfiprintf_r+0x208>
    48c2:	00004797          	auipc	a5,0x4
    48c6:	a5e78793          	addi	a5,a5,-1442 # 8320 <__sf_fake_stdout+0x28>
    48ca:	8d1d                	sub	a0,a0,a5
    48cc:	04000793          	li	a5,64
    48d0:	00a797b3          	sll	a5,a5,a0
    48d4:	4542                	lw	a0,16(sp)
    48d6:	0405                	addi	s0,s0,1
    48d8:	8d5d                	or	a0,a0,a5
    48da:	c82a                	sw	a0,16(sp)
    48dc:	00044583          	lbu	a1,0(s0)
    48e0:	4619                	li	a2,6
    48e2:	00004517          	auipc	a0,0x4
    48e6:	a4250513          	addi	a0,a0,-1470 # 8324 <__sf_fake_stdout+0x2c>
    48ea:	00140913          	addi	s2,s0,1
    48ee:	02b10423          	sb	a1,40(sp)
    48f2:	23ed                	jal	4edc <memchr>
    48f4:	c13d                	beqz	a0,495a <_vfiprintf_r+0x286>
    48f6:	ffffb797          	auipc	a5,0xffffb
    48fa:	70a78793          	addi	a5,a5,1802 # 0 <_sinit>
    48fe:	e795                	bnez	a5,492a <_vfiprintf_r+0x256>
    4900:	4742                	lw	a4,16(sp)
    4902:	47b2                	lw	a5,12(sp)
    4904:	10077713          	andi	a4,a4,256
    4908:	cf09                	beqz	a4,4922 <_vfiprintf_r+0x24e>
    490a:	0791                	addi	a5,a5,4
    490c:	c63e                	sw	a5,12(sp)
    490e:	5792                	lw	a5,36(sp)
    4910:	97d2                	add	a5,a5,s4
    4912:	d23e                	sw	a5,36(sp)
    4914:	b52d                	j	473e <_vfiprintf_r+0x6a>
    4916:	036787b3          	mul	a5,a5,s6
    491a:	4685                	li	a3,1
    491c:	842e                	mv	s0,a1
    491e:	97ba                	add	a5,a5,a4
    4920:	bfbd                	j	489e <_vfiprintf_r+0x1ca>
    4922:	079d                	addi	a5,a5,7
    4924:	9be1                	andi	a5,a5,-8
    4926:	07a1                	addi	a5,a5,8
    4928:	b7d5                	j	490c <_vfiprintf_r+0x238>
    492a:	0078                	addi	a4,sp,12
    492c:	00000697          	auipc	a3,0x0
    4930:	d6668693          	addi	a3,a3,-666 # 4692 <__sfputs_r>
    4934:	8626                	mv	a2,s1
    4936:	080c                	addi	a1,sp,16
    4938:	854e                	mv	a0,s3
    493a:	00000097          	auipc	ra,0x0
    493e:	000000e7          	jalr	zero # 0 <_sinit>
    4942:	57fd                	li	a5,-1
    4944:	8a2a                	mv	s4,a0
    4946:	fcf514e3          	bne	a0,a5,490e <_vfiprintf_r+0x23a>
    494a:	00c4d783          	lhu	a5,12(s1)
    494e:	0407f793          	andi	a5,a5,64
    4952:	ea079ce3          	bnez	a5,480a <_vfiprintf_r+0x136>
    4956:	5512                	lw	a0,36(sp)
    4958:	bd55                	j	480c <_vfiprintf_r+0x138>
    495a:	0078                	addi	a4,sp,12
    495c:	00000697          	auipc	a3,0x0
    4960:	d3668693          	addi	a3,a3,-714 # 4692 <__sfputs_r>
    4964:	8626                	mv	a2,s1
    4966:	080c                	addi	a1,sp,16
    4968:	854e                	mv	a0,s3
    496a:	2a01                	jal	4a7a <_printf_i>
    496c:	bfd9                	j	4942 <_vfiprintf_r+0x26e>

0000496e <_printf_common>:
    496e:	7179                	addi	sp,sp,-48
    4970:	ca56                	sw	s5,20(sp)
    4972:	499c                	lw	a5,16(a1)
    4974:	8aba                	mv	s5,a4
    4976:	4598                	lw	a4,8(a1)
    4978:	d422                	sw	s0,40(sp)
    497a:	d226                	sw	s1,36(sp)
    497c:	ce4e                	sw	s3,28(sp)
    497e:	cc52                	sw	s4,24(sp)
    4980:	d606                	sw	ra,44(sp)
    4982:	d04a                	sw	s2,32(sp)
    4984:	c85a                	sw	s6,16(sp)
    4986:	c65e                	sw	s7,12(sp)
    4988:	89aa                	mv	s3,a0
    498a:	842e                	mv	s0,a1
    498c:	84b2                	mv	s1,a2
    498e:	8a36                	mv	s4,a3
    4990:	00e7d363          	bge	a5,a4,4996 <_printf_common+0x28>
    4994:	87ba                	mv	a5,a4
    4996:	c09c                	sw	a5,0(s1)
    4998:	04344703          	lbu	a4,67(s0)
    499c:	c319                	beqz	a4,49a2 <_printf_common+0x34>
    499e:	0785                	addi	a5,a5,1
    49a0:	c09c                	sw	a5,0(s1)
    49a2:	401c                	lw	a5,0(s0)
    49a4:	0207f793          	andi	a5,a5,32
    49a8:	c781                	beqz	a5,49b0 <_printf_common+0x42>
    49aa:	409c                	lw	a5,0(s1)
    49ac:	0789                	addi	a5,a5,2
    49ae:	c09c                	sw	a5,0(s1)
    49b0:	00042903          	lw	s2,0(s0)
    49b4:	00697913          	andi	s2,s2,6
    49b8:	00091a63          	bnez	s2,49cc <_printf_common+0x5e>
    49bc:	01940b13          	addi	s6,s0,25
    49c0:	5bfd                	li	s7,-1
    49c2:	445c                	lw	a5,12(s0)
    49c4:	4098                	lw	a4,0(s1)
    49c6:	8f99                	sub	a5,a5,a4
    49c8:	04f94c63          	blt	s2,a5,4a20 <_printf_common+0xb2>
    49cc:	401c                	lw	a5,0(s0)
    49ce:	04344683          	lbu	a3,67(s0)
    49d2:	0207f793          	andi	a5,a5,32
    49d6:	00d036b3          	snez	a3,a3
    49da:	eba5                	bnez	a5,4a4a <_printf_common+0xdc>
    49dc:	04340613          	addi	a2,s0,67
    49e0:	85d2                	mv	a1,s4
    49e2:	854e                	mv	a0,s3
    49e4:	9a82                	jalr	s5
    49e6:	57fd                	li	a5,-1
    49e8:	04f50363          	beq	a0,a5,4a2e <_printf_common+0xc0>
    49ec:	401c                	lw	a5,0(s0)
    49ee:	4611                	li	a2,4
    49f0:	4098                	lw	a4,0(s1)
    49f2:	8b99                	andi	a5,a5,6
    49f4:	4454                	lw	a3,12(s0)
    49f6:	4481                	li	s1,0
    49f8:	00c79763          	bne	a5,a2,4a06 <_printf_common+0x98>
    49fc:	40e684b3          	sub	s1,a3,a4
    4a00:	0004d363          	bgez	s1,4a06 <_printf_common+0x98>
    4a04:	4481                	li	s1,0
    4a06:	441c                	lw	a5,8(s0)
    4a08:	4818                	lw	a4,16(s0)
    4a0a:	00f75463          	bge	a4,a5,4a12 <_printf_common+0xa4>
    4a0e:	8f99                	sub	a5,a5,a4
    4a10:	94be                	add	s1,s1,a5
    4a12:	4901                	li	s2,0
    4a14:	0469                	addi	s0,s0,26
    4a16:	5b7d                	li	s6,-1
    4a18:	05249863          	bne	s1,s2,4a68 <_printf_common+0xfa>
    4a1c:	4501                	li	a0,0
    4a1e:	a809                	j	4a30 <_printf_common+0xc2>
    4a20:	4685                	li	a3,1
    4a22:	865a                	mv	a2,s6
    4a24:	85d2                	mv	a1,s4
    4a26:	854e                	mv	a0,s3
    4a28:	9a82                	jalr	s5
    4a2a:	01751e63          	bne	a0,s7,4a46 <_printf_common+0xd8>
    4a2e:	557d                	li	a0,-1
    4a30:	50b2                	lw	ra,44(sp)
    4a32:	5422                	lw	s0,40(sp)
    4a34:	5492                	lw	s1,36(sp)
    4a36:	5902                	lw	s2,32(sp)
    4a38:	49f2                	lw	s3,28(sp)
    4a3a:	4a62                	lw	s4,24(sp)
    4a3c:	4ad2                	lw	s5,20(sp)
    4a3e:	4b42                	lw	s6,16(sp)
    4a40:	4bb2                	lw	s7,12(sp)
    4a42:	6145                	addi	sp,sp,48
    4a44:	8082                	ret
    4a46:	0905                	addi	s2,s2,1
    4a48:	bfad                	j	49c2 <_printf_common+0x54>
    4a4a:	00d40733          	add	a4,s0,a3
    4a4e:	03000613          	li	a2,48
    4a52:	04c701a3          	sb	a2,67(a4)
    4a56:	04544703          	lbu	a4,69(s0)
    4a5a:	00168793          	addi	a5,a3,1
    4a5e:	97a2                	add	a5,a5,s0
    4a60:	0689                	addi	a3,a3,2
    4a62:	04e781a3          	sb	a4,67(a5)
    4a66:	bf9d                	j	49dc <_printf_common+0x6e>
    4a68:	4685                	li	a3,1
    4a6a:	8622                	mv	a2,s0
    4a6c:	85d2                	mv	a1,s4
    4a6e:	854e                	mv	a0,s3
    4a70:	9a82                	jalr	s5
    4a72:	fb650ee3          	beq	a0,s6,4a2e <_printf_common+0xc0>
    4a76:	0905                	addi	s2,s2,1
    4a78:	b745                	j	4a18 <_printf_common+0xaa>

00004a7a <_printf_i>:
    4a7a:	7179                	addi	sp,sp,-48
    4a7c:	d422                	sw	s0,40(sp)
    4a7e:	d226                	sw	s1,36(sp)
    4a80:	d04a                	sw	s2,32(sp)
    4a82:	ce4e                	sw	s3,28(sp)
    4a84:	d606                	sw	ra,44(sp)
    4a86:	cc52                	sw	s4,24(sp)
    4a88:	ca56                	sw	s5,20(sp)
    4a8a:	c85a                	sw	s6,16(sp)
    4a8c:	89b6                	mv	s3,a3
    4a8e:	0185c683          	lbu	a3,24(a1)
    4a92:	06900793          	li	a5,105
    4a96:	8932                	mv	s2,a2
    4a98:	84aa                	mv	s1,a0
    4a9a:	842e                	mv	s0,a1
    4a9c:	04358613          	addi	a2,a1,67
    4aa0:	02f68d63          	beq	a3,a5,4ada <_printf_i+0x60>
    4aa4:	06d7e263          	bltu	a5,a3,4b08 <_printf_i+0x8e>
    4aa8:	05800793          	li	a5,88
    4aac:	18f68863          	beq	a3,a5,4c3c <_printf_i+0x1c2>
    4ab0:	00d7ed63          	bltu	a5,a3,4aca <_printf_i+0x50>
    4ab4:	22068163          	beqz	a3,4cd6 <_printf_i+0x25c>
    4ab8:	04300793          	li	a5,67
    4abc:	0af68e63          	beq	a3,a5,4b78 <_printf_i+0xfe>
    4ac0:	04240a93          	addi	s5,s0,66
    4ac4:	04d40123          	sb	a3,66(s0)
    4ac8:	a0c9                	j	4b8a <_printf_i+0x110>
    4aca:	06300793          	li	a5,99
    4ace:	0af68563          	beq	a3,a5,4b78 <_printf_i+0xfe>
    4ad2:	06400793          	li	a5,100
    4ad6:	fef695e3          	bne	a3,a5,4ac0 <_printf_i+0x46>
    4ada:	401c                	lw	a5,0(s0)
    4adc:	4308                	lw	a0,0(a4)
    4ade:	0807f693          	andi	a3,a5,128
    4ae2:	00450593          	addi	a1,a0,4
    4ae6:	c6c5                	beqz	a3,4b8e <_printf_i+0x114>
    4ae8:	411c                	lw	a5,0(a0)
    4aea:	c30c                	sw	a1,0(a4)
    4aec:	0007d863          	bgez	a5,4afc <_printf_i+0x82>
    4af0:	02d00713          	li	a4,45
    4af4:	40f007b3          	neg	a5,a5
    4af8:	04e401a3          	sb	a4,67(s0)
    4afc:	00004697          	auipc	a3,0x4
    4b00:	83068693          	addi	a3,a3,-2000 # 832c <__sf_fake_stdout+0x34>
    4b04:	4729                	li	a4,10
    4b06:	a86d                	j	4bc0 <_printf_i+0x146>
    4b08:	07000793          	li	a5,112
    4b0c:	16f68463          	beq	a3,a5,4c74 <_printf_i+0x1fa>
    4b10:	02d7e563          	bltu	a5,a3,4b3a <_printf_i+0xc0>
    4b14:	06e00793          	li	a5,110
    4b18:	18f68b63          	beq	a3,a5,4cae <_printf_i+0x234>
    4b1c:	06f00793          	li	a5,111
    4b20:	faf690e3          	bne	a3,a5,4ac0 <_printf_i+0x46>
    4b24:	400c                	lw	a1,0(s0)
    4b26:	431c                	lw	a5,0(a4)
    4b28:	0805f813          	andi	a6,a1,128
    4b2c:	00478513          	addi	a0,a5,4
    4b30:	06080763          	beqz	a6,4b9e <_printf_i+0x124>
    4b34:	c308                	sw	a0,0(a4)
    4b36:	439c                	lw	a5,0(a5)
    4b38:	a88d                	j	4baa <_printf_i+0x130>
    4b3a:	07500793          	li	a5,117
    4b3e:	fef683e3          	beq	a3,a5,4b24 <_printf_i+0xaa>
    4b42:	07800793          	li	a5,120
    4b46:	12f68b63          	beq	a3,a5,4c7c <_printf_i+0x202>
    4b4a:	07300793          	li	a5,115
    4b4e:	f6f699e3          	bne	a3,a5,4ac0 <_printf_i+0x46>
    4b52:	431c                	lw	a5,0(a4)
    4b54:	41d0                	lw	a2,4(a1)
    4b56:	4581                	li	a1,0
    4b58:	00478693          	addi	a3,a5,4
    4b5c:	c314                	sw	a3,0(a4)
    4b5e:	0007aa83          	lw	s5,0(a5)
    4b62:	8556                	mv	a0,s5
    4b64:	2ea5                	jal	4edc <memchr>
    4b66:	c501                	beqz	a0,4b6e <_printf_i+0xf4>
    4b68:	41550533          	sub	a0,a0,s5
    4b6c:	c048                	sw	a0,4(s0)
    4b6e:	405c                	lw	a5,4(s0)
    4b70:	c81c                	sw	a5,16(s0)
    4b72:	040401a3          	sb	zero,67(s0)
    4b76:	a871                	j	4c12 <_printf_i+0x198>
    4b78:	431c                	lw	a5,0(a4)
    4b7a:	04240a93          	addi	s5,s0,66
    4b7e:	00478693          	addi	a3,a5,4
    4b82:	439c                	lw	a5,0(a5)
    4b84:	c314                	sw	a3,0(a4)
    4b86:	04f40123          	sb	a5,66(s0)
    4b8a:	4785                	li	a5,1
    4b8c:	b7d5                	j	4b70 <_printf_i+0xf6>
    4b8e:	0407f693          	andi	a3,a5,64
    4b92:	411c                	lw	a5,0(a0)
    4b94:	c30c                	sw	a1,0(a4)
    4b96:	dab9                	beqz	a3,4aec <_printf_i+0x72>
    4b98:	07c2                	slli	a5,a5,0x10
    4b9a:	87c1                	srai	a5,a5,0x10
    4b9c:	bf81                	j	4aec <_printf_i+0x72>
    4b9e:	0405f593          	andi	a1,a1,64
    4ba2:	c308                	sw	a0,0(a4)
    4ba4:	d9c9                	beqz	a1,4b36 <_printf_i+0xbc>
    4ba6:	0007d783          	lhu	a5,0(a5)
    4baa:	06f00713          	li	a4,111
    4bae:	0ee68863          	beq	a3,a4,4c9e <_printf_i+0x224>
    4bb2:	00003697          	auipc	a3,0x3
    4bb6:	77a68693          	addi	a3,a3,1914 # 832c <__sf_fake_stdout+0x34>
    4bba:	4729                	li	a4,10
    4bbc:	040401a3          	sb	zero,67(s0)
    4bc0:	404c                	lw	a1,4(s0)
    4bc2:	c40c                	sw	a1,8(s0)
    4bc4:	0005c563          	bltz	a1,4bce <_printf_i+0x154>
    4bc8:	4008                	lw	a0,0(s0)
    4bca:	996d                	andi	a0,a0,-5
    4bcc:	c008                	sw	a0,0(s0)
    4bce:	e399                	bnez	a5,4bd4 <_printf_i+0x15a>
    4bd0:	8ab2                	mv	s5,a2
    4bd2:	cd91                	beqz	a1,4bee <_printf_i+0x174>
    4bd4:	8ab2                	mv	s5,a2
    4bd6:	02e7f5b3          	remu	a1,a5,a4
    4bda:	1afd                	addi	s5,s5,-1
    4bdc:	95b6                	add	a1,a1,a3
    4bde:	0005c583          	lbu	a1,0(a1)
    4be2:	00ba8023          	sb	a1,0(s5)
    4be6:	02e7d5b3          	divu	a1,a5,a4
    4bea:	0ce7f063          	bgeu	a5,a4,4caa <_printf_i+0x230>
    4bee:	47a1                	li	a5,8
    4bf0:	00f71e63          	bne	a4,a5,4c0c <_printf_i+0x192>
    4bf4:	401c                	lw	a5,0(s0)
    4bf6:	8b85                	andi	a5,a5,1
    4bf8:	cb91                	beqz	a5,4c0c <_printf_i+0x192>
    4bfa:	4058                	lw	a4,4(s0)
    4bfc:	481c                	lw	a5,16(s0)
    4bfe:	00e7c763          	blt	a5,a4,4c0c <_printf_i+0x192>
    4c02:	03000793          	li	a5,48
    4c06:	fefa8fa3          	sb	a5,-1(s5)
    4c0a:	1afd                	addi	s5,s5,-1
    4c0c:	41560633          	sub	a2,a2,s5
    4c10:	c810                	sw	a2,16(s0)
    4c12:	874e                	mv	a4,s3
    4c14:	86ca                	mv	a3,s2
    4c16:	0070                	addi	a2,sp,12
    4c18:	85a2                	mv	a1,s0
    4c1a:	8526                	mv	a0,s1
    4c1c:	d53ff0ef          	jal	ra,496e <_printf_common>
    4c20:	5a7d                	li	s4,-1
    4c22:	0b451e63          	bne	a0,s4,4cde <_printf_i+0x264>
    4c26:	557d                	li	a0,-1
    4c28:	50b2                	lw	ra,44(sp)
    4c2a:	5422                	lw	s0,40(sp)
    4c2c:	5492                	lw	s1,36(sp)
    4c2e:	5902                	lw	s2,32(sp)
    4c30:	49f2                	lw	s3,28(sp)
    4c32:	4a62                	lw	s4,24(sp)
    4c34:	4ad2                	lw	s5,20(sp)
    4c36:	4b42                	lw	s6,16(sp)
    4c38:	6145                	addi	sp,sp,48
    4c3a:	8082                	ret
    4c3c:	04d582a3          	sb	a3,69(a1)
    4c40:	00003697          	auipc	a3,0x3
    4c44:	6ec68693          	addi	a3,a3,1772 # 832c <__sf_fake_stdout+0x34>
    4c48:	400c                	lw	a1,0(s0)
    4c4a:	4308                	lw	a0,0(a4)
    4c4c:	0805f813          	andi	a6,a1,128
    4c50:	411c                	lw	a5,0(a0)
    4c52:	0511                	addi	a0,a0,4
    4c54:	02080d63          	beqz	a6,4c8e <_printf_i+0x214>
    4c58:	c308                	sw	a0,0(a4)
    4c5a:	0015f713          	andi	a4,a1,1
    4c5e:	c701                	beqz	a4,4c66 <_printf_i+0x1ec>
    4c60:	0205e593          	ori	a1,a1,32
    4c64:	c00c                	sw	a1,0(s0)
    4c66:	4741                	li	a4,16
    4c68:	fbb1                	bnez	a5,4bbc <_printf_i+0x142>
    4c6a:	400c                	lw	a1,0(s0)
    4c6c:	fdf5f593          	andi	a1,a1,-33
    4c70:	c00c                	sw	a1,0(s0)
    4c72:	b7a9                	j	4bbc <_printf_i+0x142>
    4c74:	419c                	lw	a5,0(a1)
    4c76:	0207e793          	ori	a5,a5,32
    4c7a:	c19c                	sw	a5,0(a1)
    4c7c:	07800793          	li	a5,120
    4c80:	04f402a3          	sb	a5,69(s0)
    4c84:	00003697          	auipc	a3,0x3
    4c88:	6bc68693          	addi	a3,a3,1724 # 8340 <__sf_fake_stdout+0x48>
    4c8c:	bf75                	j	4c48 <_printf_i+0x1ce>
    4c8e:	0405f813          	andi	a6,a1,64
    4c92:	c308                	sw	a0,0(a4)
    4c94:	fc0803e3          	beqz	a6,4c5a <_printf_i+0x1e0>
    4c98:	07c2                	slli	a5,a5,0x10
    4c9a:	83c1                	srli	a5,a5,0x10
    4c9c:	bf7d                	j	4c5a <_printf_i+0x1e0>
    4c9e:	00003697          	auipc	a3,0x3
    4ca2:	68e68693          	addi	a3,a3,1678 # 832c <__sf_fake_stdout+0x34>
    4ca6:	4721                	li	a4,8
    4ca8:	bf11                	j	4bbc <_printf_i+0x142>
    4caa:	87ae                	mv	a5,a1
    4cac:	b72d                	j	4bd6 <_printf_i+0x15c>
    4cae:	4194                	lw	a3,0(a1)
    4cb0:	431c                	lw	a5,0(a4)
    4cb2:	49cc                	lw	a1,20(a1)
    4cb4:	0806f813          	andi	a6,a3,128
    4cb8:	00478513          	addi	a0,a5,4
    4cbc:	00080663          	beqz	a6,4cc8 <_printf_i+0x24e>
    4cc0:	c308                	sw	a0,0(a4)
    4cc2:	439c                	lw	a5,0(a5)
    4cc4:	c38c                	sw	a1,0(a5)
    4cc6:	a801                	j	4cd6 <_printf_i+0x25c>
    4cc8:	c308                	sw	a0,0(a4)
    4cca:	0406f693          	andi	a3,a3,64
    4cce:	439c                	lw	a5,0(a5)
    4cd0:	daf5                	beqz	a3,4cc4 <_printf_i+0x24a>
    4cd2:	00b79023          	sh	a1,0(a5)
    4cd6:	00042823          	sw	zero,16(s0)
    4cda:	8ab2                	mv	s5,a2
    4cdc:	bf1d                	j	4c12 <_printf_i+0x198>
    4cde:	4814                	lw	a3,16(s0)
    4ce0:	8656                	mv	a2,s5
    4ce2:	85ca                	mv	a1,s2
    4ce4:	8526                	mv	a0,s1
    4ce6:	9982                	jalr	s3
    4ce8:	f3450fe3          	beq	a0,s4,4c26 <_printf_i+0x1ac>
    4cec:	401c                	lw	a5,0(s0)
    4cee:	8b89                	andi	a5,a5,2
    4cf0:	e78d                	bnez	a5,4d1a <_printf_i+0x2a0>
    4cf2:	47b2                	lw	a5,12(sp)
    4cf4:	4448                	lw	a0,12(s0)
    4cf6:	f2f559e3          	bge	a0,a5,4c28 <_printf_i+0x1ae>
    4cfa:	853e                	mv	a0,a5
    4cfc:	b735                	j	4c28 <_printf_i+0x1ae>
    4cfe:	4685                	li	a3,1
    4d00:	8656                	mv	a2,s5
    4d02:	85ca                	mv	a1,s2
    4d04:	8526                	mv	a0,s1
    4d06:	9982                	jalr	s3
    4d08:	f1650fe3          	beq	a0,s6,4c26 <_printf_i+0x1ac>
    4d0c:	0a05                	addi	s4,s4,1
    4d0e:	445c                	lw	a5,12(s0)
    4d10:	4732                	lw	a4,12(sp)
    4d12:	8f99                	sub	a5,a5,a4
    4d14:	fefa45e3          	blt	s4,a5,4cfe <_printf_i+0x284>
    4d18:	bfe9                	j	4cf2 <_printf_i+0x278>
    4d1a:	4a01                	li	s4,0
    4d1c:	01940a93          	addi	s5,s0,25
    4d20:	5b7d                	li	s6,-1
    4d22:	b7f5                	j	4d0e <_printf_i+0x294>

00004d24 <_sbrk_r>:
    4d24:	1141                	addi	sp,sp,-16
    4d26:	c422                	sw	s0,8(sp)
    4d28:	842a                	mv	s0,a0
    4d2a:	852e                	mv	a0,a1
    4d2c:	ca01a023          	sw	zero,-864(gp) # 20000510 <errno>
    4d30:	c606                	sw	ra,12(sp)
    4d32:	cb7fd0ef          	jal	ra,29e8 <_sbrk>
    4d36:	57fd                	li	a5,-1
    4d38:	00f51763          	bne	a0,a5,4d46 <_sbrk_r+0x22>
    4d3c:	ca018793          	addi	a5,gp,-864 # 20000510 <errno>
    4d40:	439c                	lw	a5,0(a5)
    4d42:	c391                	beqz	a5,4d46 <_sbrk_r+0x22>
    4d44:	c01c                	sw	a5,0(s0)
    4d46:	40b2                	lw	ra,12(sp)
    4d48:	4422                	lw	s0,8(sp)
    4d4a:	0141                	addi	sp,sp,16
    4d4c:	8082                	ret

00004d4e <__sread>:
    4d4e:	1141                	addi	sp,sp,-16
    4d50:	c422                	sw	s0,8(sp)
    4d52:	842e                	mv	s0,a1
    4d54:	00e59583          	lh	a1,14(a1)
    4d58:	c606                	sw	ra,12(sp)
    4d5a:	2ce5                	jal	5052 <_read_r>
    4d5c:	00054963          	bltz	a0,4d6e <__sread+0x20>
    4d60:	487c                	lw	a5,84(s0)
    4d62:	97aa                	add	a5,a5,a0
    4d64:	c87c                	sw	a5,84(s0)
    4d66:	40b2                	lw	ra,12(sp)
    4d68:	4422                	lw	s0,8(sp)
    4d6a:	0141                	addi	sp,sp,16
    4d6c:	8082                	ret
    4d6e:	00c45783          	lhu	a5,12(s0)
    4d72:	777d                	lui	a4,0xfffff
    4d74:	177d                	addi	a4,a4,-1
    4d76:	8ff9                	and	a5,a5,a4
    4d78:	00f41623          	sh	a5,12(s0)
    4d7c:	b7ed                	j	4d66 <__sread+0x18>

00004d7e <__swrite>:
    4d7e:	00c5d783          	lhu	a5,12(a1)
    4d82:	1101                	addi	sp,sp,-32
    4d84:	cc22                	sw	s0,24(sp)
    4d86:	ca26                	sw	s1,20(sp)
    4d88:	c84a                	sw	s2,16(sp)
    4d8a:	c64e                	sw	s3,12(sp)
    4d8c:	ce06                	sw	ra,28(sp)
    4d8e:	1007f793          	andi	a5,a5,256
    4d92:	84aa                	mv	s1,a0
    4d94:	842e                	mv	s0,a1
    4d96:	8932                	mv	s2,a2
    4d98:	89b6                	mv	s3,a3
    4d9a:	c791                	beqz	a5,4da6 <__swrite+0x28>
    4d9c:	00e59583          	lh	a1,14(a1)
    4da0:	4689                	li	a3,2
    4da2:	4601                	li	a2,0
    4da4:	2231                	jal	4eb0 <_lseek_r>
    4da6:	00c45783          	lhu	a5,12(s0)
    4daa:	777d                	lui	a4,0xfffff
    4dac:	177d                	addi	a4,a4,-1
    4dae:	8ff9                	and	a5,a5,a4
    4db0:	00f41623          	sh	a5,12(s0)
    4db4:	00e41583          	lh	a1,14(s0)
    4db8:	4462                	lw	s0,24(sp)
    4dba:	40f2                	lw	ra,28(sp)
    4dbc:	86ce                	mv	a3,s3
    4dbe:	864a                	mv	a2,s2
    4dc0:	49b2                	lw	s3,12(sp)
    4dc2:	4942                	lw	s2,16(sp)
    4dc4:	8526                	mv	a0,s1
    4dc6:	44d2                	lw	s1,20(sp)
    4dc8:	6105                	addi	sp,sp,32
    4dca:	a83d                	j	4e08 <_write_r>

00004dcc <__sseek>:
    4dcc:	1141                	addi	sp,sp,-16
    4dce:	c422                	sw	s0,8(sp)
    4dd0:	842e                	mv	s0,a1
    4dd2:	00e59583          	lh	a1,14(a1)
    4dd6:	c606                	sw	ra,12(sp)
    4dd8:	28e1                	jal	4eb0 <_lseek_r>
    4dda:	57fd                	li	a5,-1
    4ddc:	00c45703          	lhu	a4,12(s0)
    4de0:	00f51b63          	bne	a0,a5,4df6 <__sseek+0x2a>
    4de4:	77fd                	lui	a5,0xfffff
    4de6:	17fd                	addi	a5,a5,-1
    4de8:	8ff9                	and	a5,a5,a4
    4dea:	00f41623          	sh	a5,12(s0)
    4dee:	40b2                	lw	ra,12(sp)
    4df0:	4422                	lw	s0,8(sp)
    4df2:	0141                	addi	sp,sp,16
    4df4:	8082                	ret
    4df6:	6785                	lui	a5,0x1
    4df8:	8fd9                	or	a5,a5,a4
    4dfa:	00f41623          	sh	a5,12(s0)
    4dfe:	c868                	sw	a0,84(s0)
    4e00:	b7fd                	j	4dee <__sseek+0x22>

00004e02 <__sclose>:
    4e02:	00e59583          	lh	a1,14(a1)
    4e06:	a805                	j	4e36 <_close_r>

00004e08 <_write_r>:
    4e08:	1141                	addi	sp,sp,-16
    4e0a:	c422                	sw	s0,8(sp)
    4e0c:	842a                	mv	s0,a0
    4e0e:	852e                	mv	a0,a1
    4e10:	85b2                	mv	a1,a2
    4e12:	8636                	mv	a2,a3
    4e14:	ca01a023          	sw	zero,-864(gp) # 20000510 <errno>
    4e18:	c606                	sw	ra,12(sp)
    4e1a:	b83fd0ef          	jal	ra,299c <_write>
    4e1e:	57fd                	li	a5,-1
    4e20:	00f51763          	bne	a0,a5,4e2e <_write_r+0x26>
    4e24:	ca018793          	addi	a5,gp,-864 # 20000510 <errno>
    4e28:	439c                	lw	a5,0(a5)
    4e2a:	c391                	beqz	a5,4e2e <_write_r+0x26>
    4e2c:	c01c                	sw	a5,0(s0)
    4e2e:	40b2                	lw	ra,12(sp)
    4e30:	4422                	lw	s0,8(sp)
    4e32:	0141                	addi	sp,sp,16
    4e34:	8082                	ret

00004e36 <_close_r>:
    4e36:	1141                	addi	sp,sp,-16
    4e38:	c422                	sw	s0,8(sp)
    4e3a:	842a                	mv	s0,a0
    4e3c:	852e                	mv	a0,a1
    4e3e:	ca01a023          	sw	zero,-864(gp) # 20000510 <errno>
    4e42:	c606                	sw	ra,12(sp)
    4e44:	24b9                	jal	5092 <_close>
    4e46:	57fd                	li	a5,-1
    4e48:	00f51763          	bne	a0,a5,4e56 <_close_r+0x20>
    4e4c:	ca018793          	addi	a5,gp,-864 # 20000510 <errno>
    4e50:	439c                	lw	a5,0(a5)
    4e52:	c391                	beqz	a5,4e56 <_close_r+0x20>
    4e54:	c01c                	sw	a5,0(s0)
    4e56:	40b2                	lw	ra,12(sp)
    4e58:	4422                	lw	s0,8(sp)
    4e5a:	0141                	addi	sp,sp,16
    4e5c:	8082                	ret

00004e5e <_fstat_r>:
    4e5e:	1141                	addi	sp,sp,-16
    4e60:	c422                	sw	s0,8(sp)
    4e62:	842a                	mv	s0,a0
    4e64:	852e                	mv	a0,a1
    4e66:	85b2                	mv	a1,a2
    4e68:	ca01a023          	sw	zero,-864(gp) # 20000510 <errno>
    4e6c:	c606                	sw	ra,12(sp)
    4e6e:	2c05                	jal	509e <_fstat>
    4e70:	57fd                	li	a5,-1
    4e72:	00f51763          	bne	a0,a5,4e80 <_fstat_r+0x22>
    4e76:	ca018793          	addi	a5,gp,-864 # 20000510 <errno>
    4e7a:	439c                	lw	a5,0(a5)
    4e7c:	c391                	beqz	a5,4e80 <_fstat_r+0x22>
    4e7e:	c01c                	sw	a5,0(s0)
    4e80:	40b2                	lw	ra,12(sp)
    4e82:	4422                	lw	s0,8(sp)
    4e84:	0141                	addi	sp,sp,16
    4e86:	8082                	ret

00004e88 <_isatty_r>:
    4e88:	1141                	addi	sp,sp,-16
    4e8a:	c422                	sw	s0,8(sp)
    4e8c:	842a                	mv	s0,a0
    4e8e:	852e                	mv	a0,a1
    4e90:	ca01a023          	sw	zero,-864(gp) # 20000510 <errno>
    4e94:	c606                	sw	ra,12(sp)
    4e96:	2c11                	jal	50aa <_isatty>
    4e98:	57fd                	li	a5,-1
    4e9a:	00f51763          	bne	a0,a5,4ea8 <_isatty_r+0x20>
    4e9e:	ca018793          	addi	a5,gp,-864 # 20000510 <errno>
    4ea2:	439c                	lw	a5,0(a5)
    4ea4:	c391                	beqz	a5,4ea8 <_isatty_r+0x20>
    4ea6:	c01c                	sw	a5,0(s0)
    4ea8:	40b2                	lw	ra,12(sp)
    4eaa:	4422                	lw	s0,8(sp)
    4eac:	0141                	addi	sp,sp,16
    4eae:	8082                	ret

00004eb0 <_lseek_r>:
    4eb0:	1141                	addi	sp,sp,-16
    4eb2:	c422                	sw	s0,8(sp)
    4eb4:	842a                	mv	s0,a0
    4eb6:	852e                	mv	a0,a1
    4eb8:	85b2                	mv	a1,a2
    4eba:	8636                	mv	a2,a3
    4ebc:	ca01a023          	sw	zero,-864(gp) # 20000510 <errno>
    4ec0:	c606                	sw	ra,12(sp)
    4ec2:	2ad5                	jal	50b6 <_lseek>
    4ec4:	57fd                	li	a5,-1
    4ec6:	00f51763          	bne	a0,a5,4ed4 <_lseek_r+0x24>
    4eca:	ca018793          	addi	a5,gp,-864 # 20000510 <errno>
    4ece:	439c                	lw	a5,0(a5)
    4ed0:	c391                	beqz	a5,4ed4 <_lseek_r+0x24>
    4ed2:	c01c                	sw	a5,0(s0)
    4ed4:	40b2                	lw	ra,12(sp)
    4ed6:	4422                	lw	s0,8(sp)
    4ed8:	0141                	addi	sp,sp,16
    4eda:	8082                	ret

00004edc <memchr>:
    4edc:	0ff5f593          	andi	a1,a1,255
    4ee0:	962a                	add	a2,a2,a0
    4ee2:	00c51463          	bne	a0,a2,4eea <memchr+0xe>
    4ee6:	4501                	li	a0,0
    4ee8:	8082                	ret
    4eea:	00054783          	lbu	a5,0(a0)
    4eee:	feb78de3          	beq	a5,a1,4ee8 <memchr+0xc>
    4ef2:	0505                	addi	a0,a0,1
    4ef4:	b7fd                	j	4ee2 <memchr+0x6>

00004ef6 <memcpy>:
    4ef6:	00a5c7b3          	xor	a5,a1,a0
    4efa:	8b8d                	andi	a5,a5,3
    4efc:	00c50733          	add	a4,a0,a2
    4f00:	e781                	bnez	a5,4f08 <memcpy+0x12>
    4f02:	478d                	li	a5,3
    4f04:	00c7ee63          	bltu	a5,a2,4f20 <memcpy+0x2a>
    4f08:	87aa                	mv	a5,a0
    4f0a:	0ae57063          	bgeu	a0,a4,4faa <memcpy+0xb4>
    4f0e:	0005c683          	lbu	a3,0(a1)
    4f12:	0785                	addi	a5,a5,1
    4f14:	0585                	addi	a1,a1,1
    4f16:	fed78fa3          	sb	a3,-1(a5) # fff <LCD_ShowChar+0x37b>
    4f1a:	fee7eae3          	bltu	a5,a4,4f0e <memcpy+0x18>
    4f1e:	8082                	ret
    4f20:	00357693          	andi	a3,a0,3
    4f24:	87aa                	mv	a5,a0
    4f26:	ca91                	beqz	a3,4f3a <memcpy+0x44>
    4f28:	0005c683          	lbu	a3,0(a1)
    4f2c:	0785                	addi	a5,a5,1
    4f2e:	0585                	addi	a1,a1,1
    4f30:	fed78fa3          	sb	a3,-1(a5)
    4f34:	0037f693          	andi	a3,a5,3
    4f38:	b7fd                	j	4f26 <memcpy+0x30>
    4f3a:	ffc77693          	andi	a3,a4,-4
    4f3e:	fe068613          	addi	a2,a3,-32
    4f42:	06c7f063          	bgeu	a5,a2,4fa2 <memcpy+0xac>
    4f46:	0005a383          	lw	t2,0(a1)
    4f4a:	0045a283          	lw	t0,4(a1)
    4f4e:	0085af83          	lw	t6,8(a1)
    4f52:	00c5af03          	lw	t5,12(a1)
    4f56:	0105ae83          	lw	t4,16(a1)
    4f5a:	0145ae03          	lw	t3,20(a1)
    4f5e:	0185a303          	lw	t1,24(a1)
    4f62:	01c5a883          	lw	a7,28(a1)
    4f66:	02458593          	addi	a1,a1,36
    4f6a:	0077a023          	sw	t2,0(a5)
    4f6e:	ffc5a803          	lw	a6,-4(a1)
    4f72:	0057a223          	sw	t0,4(a5)
    4f76:	01f7a423          	sw	t6,8(a5)
    4f7a:	01e7a623          	sw	t5,12(a5)
    4f7e:	01d7a823          	sw	t4,16(a5)
    4f82:	01c7aa23          	sw	t3,20(a5)
    4f86:	0067ac23          	sw	t1,24(a5)
    4f8a:	0117ae23          	sw	a7,28(a5)
    4f8e:	02478793          	addi	a5,a5,36
    4f92:	ff07ae23          	sw	a6,-4(a5)
    4f96:	b775                	j	4f42 <memcpy+0x4c>
    4f98:	4190                	lw	a2,0(a1)
    4f9a:	0791                	addi	a5,a5,4
    4f9c:	0591                	addi	a1,a1,4
    4f9e:	fec7ae23          	sw	a2,-4(a5)
    4fa2:	fed7ebe3          	bltu	a5,a3,4f98 <memcpy+0xa2>
    4fa6:	f6e7e4e3          	bltu	a5,a4,4f0e <memcpy+0x18>
    4faa:	8082                	ret

00004fac <memmove>:
    4fac:	04a5f363          	bgeu	a1,a0,4ff2 <memmove+0x46>
    4fb0:	00c586b3          	add	a3,a1,a2
    4fb4:	02d57f63          	bgeu	a0,a3,4ff2 <memmove+0x46>
    4fb8:	fff64593          	not	a1,a2
    4fbc:	4781                	li	a5,0
    4fbe:	17fd                	addi	a5,a5,-1
    4fc0:	00f59363          	bne	a1,a5,4fc6 <memmove+0x1a>
    4fc4:	8082                	ret
    4fc6:	00f68733          	add	a4,a3,a5
    4fca:	00074803          	lbu	a6,0(a4) # fffff000 <_eusrstack+0xdfff7000>
    4fce:	00c78733          	add	a4,a5,a2
    4fd2:	972a                	add	a4,a4,a0
    4fd4:	01070023          	sb	a6,0(a4)
    4fd8:	b7dd                	j	4fbe <memmove+0x12>
    4fda:	00f58733          	add	a4,a1,a5
    4fde:	00074683          	lbu	a3,0(a4)
    4fe2:	00f50733          	add	a4,a0,a5
    4fe6:	0785                	addi	a5,a5,1
    4fe8:	00d70023          	sb	a3,0(a4)
    4fec:	fef617e3          	bne	a2,a5,4fda <memmove+0x2e>
    4ff0:	8082                	ret
    4ff2:	4781                	li	a5,0
    4ff4:	bfe5                	j	4fec <memmove+0x40>

00004ff6 <__malloc_lock>:
    4ff6:	8082                	ret

00004ff8 <__malloc_unlock>:
    4ff8:	8082                	ret

00004ffa <_realloc_r>:
    4ffa:	e581                	bnez	a1,5002 <_realloc_r+0x8>
    4ffc:	85b2                	mv	a1,a2
    4ffe:	a24ff06f          	j	4222 <_malloc_r>
    5002:	1101                	addi	sp,sp,-32
    5004:	cc22                	sw	s0,24(sp)
    5006:	ce06                	sw	ra,28(sp)
    5008:	ca26                	sw	s1,20(sp)
    500a:	c84a                	sw	s2,16(sp)
    500c:	c64e                	sw	s3,12(sp)
    500e:	8432                	mv	s0,a2
    5010:	ee01                	bnez	a2,5028 <_realloc_r+0x2e>
    5012:	968ff0ef          	jal	ra,417a <_free_r>
    5016:	4901                	li	s2,0
    5018:	40f2                	lw	ra,28(sp)
    501a:	4462                	lw	s0,24(sp)
    501c:	854a                	mv	a0,s2
    501e:	44d2                	lw	s1,20(sp)
    5020:	4942                	lw	s2,16(sp)
    5022:	49b2                	lw	s3,12(sp)
    5024:	6105                	addi	sp,sp,32
    5026:	8082                	ret
    5028:	84ae                	mv	s1,a1
    502a:	89aa                	mv	s3,a0
    502c:	2889                	jal	507e <_malloc_usable_size_r>
    502e:	8926                	mv	s2,s1
    5030:	fe8574e3          	bgeu	a0,s0,5018 <_realloc_r+0x1e>
    5034:	85a2                	mv	a1,s0
    5036:	854e                	mv	a0,s3
    5038:	9eaff0ef          	jal	ra,4222 <_malloc_r>
    503c:	892a                	mv	s2,a0
    503e:	dd69                	beqz	a0,5018 <_realloc_r+0x1e>
    5040:	85a6                	mv	a1,s1
    5042:	8622                	mv	a2,s0
    5044:	eb3ff0ef          	jal	ra,4ef6 <memcpy>
    5048:	85a6                	mv	a1,s1
    504a:	854e                	mv	a0,s3
    504c:	92eff0ef          	jal	ra,417a <_free_r>
    5050:	b7e1                	j	5018 <_realloc_r+0x1e>

00005052 <_read_r>:
    5052:	1141                	addi	sp,sp,-16
    5054:	c422                	sw	s0,8(sp)
    5056:	842a                	mv	s0,a0
    5058:	852e                	mv	a0,a1
    505a:	85b2                	mv	a1,a2
    505c:	8636                	mv	a2,a3
    505e:	ca01a023          	sw	zero,-864(gp) # 20000510 <errno>
    5062:	c606                	sw	ra,12(sp)
    5064:	28b9                	jal	50c2 <_read>
    5066:	57fd                	li	a5,-1
    5068:	00f51763          	bne	a0,a5,5076 <_read_r+0x24>
    506c:	ca018793          	addi	a5,gp,-864 # 20000510 <errno>
    5070:	439c                	lw	a5,0(a5)
    5072:	c391                	beqz	a5,5076 <_read_r+0x24>
    5074:	c01c                	sw	a5,0(s0)
    5076:	40b2                	lw	ra,12(sp)
    5078:	4422                	lw	s0,8(sp)
    507a:	0141                	addi	sp,sp,16
    507c:	8082                	ret

0000507e <_malloc_usable_size_r>:
    507e:	ffc5a783          	lw	a5,-4(a1)
    5082:	ffc78513          	addi	a0,a5,-4
    5086:	0007d563          	bgez	a5,5090 <_malloc_usable_size_r+0x12>
    508a:	95aa                	add	a1,a1,a0
    508c:	419c                	lw	a5,0(a1)
    508e:	953e                	add	a0,a0,a5
    5090:	8082                	ret

00005092 <_close>:
    5092:	05800793          	li	a5,88
    5096:	caf1a023          	sw	a5,-864(gp) # 20000510 <errno>
    509a:	557d                	li	a0,-1
    509c:	8082                	ret

0000509e <_fstat>:
    509e:	05800793          	li	a5,88
    50a2:	caf1a023          	sw	a5,-864(gp) # 20000510 <errno>
    50a6:	557d                	li	a0,-1
    50a8:	8082                	ret

000050aa <_isatty>:
    50aa:	05800793          	li	a5,88
    50ae:	caf1a023          	sw	a5,-864(gp) # 20000510 <errno>
    50b2:	4501                	li	a0,0
    50b4:	8082                	ret

000050b6 <_lseek>:
    50b6:	05800793          	li	a5,88
    50ba:	caf1a023          	sw	a5,-864(gp) # 20000510 <errno>
    50be:	557d                	li	a0,-1
    50c0:	8082                	ret

000050c2 <_read>:
    50c2:	05800793          	li	a5,88
    50c6:	caf1a023          	sw	a5,-864(gp) # 20000510 <errno>
    50ca:	557d                	li	a0,-1
    50cc:	8082                	ret
    50ce:	0000                	unimp
    50d0:	2049                	jal	5152 <_read+0x90>
    50d2:	6168                	flw	fa0,68(a0)
    50d4:	6576                	flw	fa0,92(sp)
    50d6:	6120                	flw	fs0,64(a0)
    50d8:	7020                	flw	fs0,96(s0)
    50da:	6f72                	flw	ft10,28(sp)
    50dc:	6c62                	flw	fs8,24(sp)
    50de:	6d65                	lui	s10,0x19
    50e0:	492c                	lw	a1,80(a0)
    50e2:	6e20                	flw	fs0,88(a2)
    50e4:	6565                	lui	a0,0x19
    50e6:	2064                	fld	fs1,192(s0)
    50e8:	6568                	flw	fa0,76(a0)
    50ea:	706c                	flw	fa1,100(s0)
    50ec:	0d2e                	slli	s10,s10,0xb
    50ee:	000a                	c.slli	zero,0x2
    50f0:	6854                	flw	fa3,20(s0)
    50f2:	7265                	lui	tp,0xffff9
    50f4:	2065                	jal	519c <asc2_1608+0x40>
    50f6:	7369                	lui	t1,0xffffa
    50f8:	6e20                	flw	fs0,88(a2)
    50fa:	6e61206f          	j	177e0 <_data_lma+0xf48c>
    50fe:	2079                	jal	518c <asc2_1608+0x30>
    5100:	6564                	flw	fs1,76(a0)
    5102:	6966                	flw	fs2,88(sp)
    5104:	656e                	flw	fa0,216(sp)
    5106:	4120                	lw	s0,64(a0)
    5108:	5f324353          	0x5f324353
    510c:	3231                	jal	4a18 <_printf_common+0xaa>
    510e:	3830                	fld	fa2,112(s0)
    5110:	2620                	fld	fs0,72(a2)
    5112:	2026                	fld	ft0,72(sp)
    5114:	5341                	li	t1,-16
    5116:	325f3243          	fmadd.d	ft4,ft10,ft5,ft6,rup
    511a:	3134                	fld	fa3,96(a0)
    511c:	2032                	fld	ft0,264(sp)
    511e:	2626                	fld	fa2,72(sp)
    5120:	4120                	lw	s0,64(a0)
    5122:	5f324353          	0x5f324353
    5126:	3432                	fld	fs0,296(sp)
    5128:	3631                	jal	4c34 <_printf_i+0x1ba>
    512a:	2620                	fld	fs0,72(a2)
    512c:	2026                	fld	ft0,72(sp)
    512e:	5341                	li	t1,-16
    5130:	335f3243          	fmadd.d	ft4,ft10,fs5,ft6,rup
    5134:	3132                	fld	ft2,296(sp)
    5136:	2036                	fld	ft0,328(sp)
    5138:	0021                	c.nop	8
    513a:	0000                	unimp
    513c:	6f66                	flw	ft10,88(sp)
    513e:	746e                	flw	fs0,248(sp)
    5140:	7320                	flw	fs0,96(a4)
    5142:	7a69                	lui	s4,0xffffa
    5144:	2865                	jal	51fc <asc2_1608+0xa0>
    5146:	6425                	lui	s0,0x9
    5148:	2029                	jal	5152 <_read+0x90>
    514a:	7369                	lui	t1,0xffffa
    514c:	6e20                	flw	fs0,88(a2)
    514e:	7320746f          	jal	s0,c880 <_data_lma+0x452c>
    5152:	7075                	c.lui	zero,0xffffd
    5154:	6f70                	flw	fa2,92(a4)
    5156:	7472                	flw	fs0,60(sp)
    5158:	0021                	c.nop	8
	...

0000515c <asc2_1608>:
	...
    516c:	0000 1000 1010 1010 0010 1000 0010 0000     ................
    517c:	0000 2800 2828 0028 0000 0000 0000 0000     ...((((.........
    518c:	0000 1200 1612 247f fe24 4828 0048 0000     .......$$.(HH...
    519c:	0000 0808 493e 6848 0b3e 4909 083e 0008     ....>IHh>..I>...
    51ac:	0000 6000 9090 0c62 4630 0909 0006 0000     ...`..b.0F......
    51bc:	0000 1c00 2020 3030 4549 6245 003d 0000     ....  00IEEb=...
    51cc:	0000 1000 1010 0010 0000 0000 0000 0000     ................
    51dc:	0000 080c 1008 1010 1010 0810 0408 0000     ................
    51ec:	0000 1030 0810 0808 0808 1008 3010 0000     ..0..........0..
    51fc:	0000 0800 3e49 6b1c 0008 0000 0000 0000     ....I>.k........
    520c:	0000 0000 1000 1010 10fe 1010 0000 0000     ................
	...
    5224:	0000 1800 1018 0020 0000 0000 0000 0000     ...... .........
    5234:	3800 0000 0000 0000 0000 0000 0000 0000     .8..............
    5244:	0000 1800 0018 0000 0000 0200 0404 0804     ................
    5254:	1008 2010 2020 0040 0000 1c00 4122 4941     ...   @....."AAI
    5264:	4141 2241 001c 0000 0000 1800 0828 0808     AAA"........(...
    5274:	0808 0808 003e 0000 0000 3e00 0143 0201     ....>......>C...
    5284:	0c06 2010 007f 0000 0000 3e00 0141 1c03     ... .......>A...
    5294:	0103 4301 003e 0000 0000 0600 1a0a 2212     ...C>.........."
    52a4:	7f42 0202 0002 0000 0000 7e00 4040 427c     B..........~@@|B
    52b4:	0101 4201 003c 0000 0000 1e00 6031 5e40     ...B<.......1`@^
    52c4:	4163 2341 001e 0000 0000 7f00 0203 0404     cAA#............
    52d4:	0808 1010 0020 0000 0000 3e00 4141 3e41     .... ......>AAA>
    52e4:	4163 6341 003e 0000 0000 3c00 4162 6341     cAAc>......<bAAc
    52f4:	013d 4603 003c 0000 0000 0000 0000 1818     =..F<...........
    5304:	0000 1800 0018 0000 0000 0000 0000 1818     ................
    5314:	0000 1800 1018 0020 0000 0000 0100 380e     ...... ........8
    5324:	3840 010e 0000 0000 0000 0000 0000 007f     @8..............
    5334:	7f00 0000 0000 0000 0000 0000 4000 0e38     .............@8.
    5344:	0e01 4038 0000 0000 0000 3800 0444 180c     ..8@.......8D...
    5354:	1010 1000 0010 0000 0000 1e00 2133 4947     ............3!GI
    5364:	4949 4749 3020 000e 0000 0800 1414 1414     IIIG 0..........
    5374:	3e22 4122 0041 0000 0000 7e00 4141 7e41     ">"AA......~AAA~
    5384:	4143 4341 007e 0000 0000 1e00 4021 4040     CAAC~.......!@@@
    5394:	4040 2140 001e 0000 0000 7c00 4142 4141     @@@!.......|BAAA
    53a4:	4141 4241 007c 0000 0000 7f00 4040 7f40     AAAB|.......@@@.
    53b4:	4040 4040 007f 0000 0000 7f00 4040 7f40     @@@@........@@@.
    53c4:	4040 4040 0040 0000 0000 1e00 4021 4040     @@@@@.......!@@@
    53d4:	4143 2141 001e 0000 0000 4100 4141 7f41     CAA!.......AAAA.
    53e4:	4141 4141 0041 0000 0000 7c00 1010 1010     AAAAA......|....
    53f4:	1010 1010 007c 0000 0000 1c00 0404 0404     ....|...........
    5404:	0404 4404 0038 0000 0000 4200 4844 7050     ...D8......BDHPp
    5414:	4878 4644 0042 0000 0000 4000 4040 4040     xHDFB......@@@@@
    5424:	4040 4040 007f 0000 0000 6300 5563 5555     @@@@.......ccUUU
    5434:	4149 4141 0041 0000 0000 6100 5161 4951     IAAAA......aaQQI
    5444:	4549 4345 0043 0000 0000 1c00 4122 4141     IEECC......."AAA
    5454:	4141 2241 001c 0000 0000 7e00 4143 4341     AAA".......~CAAC
    5464:	407e 4040 0040 0000 0000 1c00 4122 4141     ~@@@@......."AAA
    5474:	4141 2241 061e 0002 0000 7e00 4143 4341     AAA".......~CAAC
    5484:	427c 4141 0040 0000 0000 1e00 4061 3040     |BAA@.......a@@0
    5494:	010e 4301 003e 0000 0000 fe00 1010 1010     ...C>...........
    54a4:	1010 1010 0010 0000 0000 4100 4141 4141     ...........AAAAA
    54b4:	4141 6341 003e 0000 0000 4100 2241 2222     AAAc>......AA"""
    54c4:	1414 1414 0008 0000 0000 8100 8181 5a5a     ..............ZZ
    54d4:	665a 6666 0066 0000 0000 4100 1422 0814     Zffff......A"...
    54e4:	1414 2222 0041 0000 0000 8200 4444 3828     ..""A.......DD(8
    54f4:	1010 1010 0010 0000 0000 7f00 0203 0804     ................
    5504:	1008 6020 007f 0000 0000 101c 1010 1010     .. `............
    5514:	1010 1010 1c10 0000 0000 4000 2020 1020     ...........@   .
    5524:	0810 0408 0404 0002 0000 0838 0808 0808     ..........8.....
    5534:	0808 0808 3808 0000 0000 1000 4428 00c6     .....8......(D..
	...
    5558:	0000 ff00 3000 0810 0000 0000 0000 0000     .....0..........
	...
    5570:	1c00 0222 423e 4642 003a 0000 0000 4040     ..".>BBF:.....@@
    5580:	7c40 4264 4242 6442 005c 0000 0000 0000     @|dBBBBd\.......
    5590:	1c00 4022 4040 2240 001c 0000 0000 0202     .."@@@@"........
    55a0:	3e02 4226 4242 2642 003a 0000 0000 0000     .>&BBBB&:.......
    55b0:	3c00 4226 407e 2240 001c 0000 0000 100c     .<&B~@@"........
    55c0:	7c10 1010 1010 1010 0010 0000 0000 0000     .|..............
    55d0:	3a00 4226 4242 2642 023a 1c22 0000 4040     .:&BBBB&:."...@@
    55e0:	5c40 4262 4242 4242 0042 0000 0000 1010     @\bBBBBBB.......
    55f0:	7000 1010 1010 1010 007c 0000 0000 0808     .p......|.......
    5600:	3800 0808 0808 0808 0808 7008 0000 4040     .8.........p..@@
    5610:	4440 5048 4870 4448 0042 0000 0000 1070     @DHPpHHDB.....p.
    5620:	1010 1010 1010 1010 000e 0000 0000 0000     ................
    5630:	7e00 4949 4949 4949 0049 0000 0000 0000     .~IIIIIII.......
    5640:	5c00 4262 4242 4242 0042 0000 0000 0000     .\bBBBBBB.......
    5650:	3c00 4266 4242 6642 003c 0000 0000 0000     .<fBBBBf<.......
    5660:	5c00 4264 4242 6442 407c 4040 0000 0000     .\dBBBBd|@@@....
    5670:	3a00 4226 4242 2642 023a 0202 0000 0000     .:&BBBB&:.......
    5680:	3c00 2032 2020 2020 0020 0000 0000 0000     .<2      .......
    5690:	3c00 4042 0e70 4202 003c 0000 0000 1000     .<B@p..B<.......
    56a0:	7e10 1010 1010 1010 000e 0000 0000 0000     .~..............
    56b0:	4200 4242 4242 4642 003a 0000 0000 0000     .BBBBBBF:.......
    56c0:	4200 2442 2424 1818 0018 0000 0000 0000     .BB$$$..........
    56d0:	8100 5a81 5a5a 245a 0024 0000 0000 0000     ...ZZZZ$$.......
    56e0:	4200 1824 1818 2424 0042 0000 0000 0000     .B$...$$B.......
    56f0:	4200 2422 1424 1818 0808 3010 0000 0000     .B"$$......0....
    5700:	7e00 0402 1008 4020 007e 0000 0000 100c     .~.... @~.......
    5710:	1010 1010 1060 1010 1010 000c 0000 1010     ....`...........
    5720:	1010 1010 1010 1010 1010 1010 0000 1060     ..............`.
    5730:	1010 1010 100c 1010 1010 0060               ..........`.

0000573c <asc2_2412>:
	...
    5774:	0006 0006 0006 0006 0006 0006 0006 0006     ................
    5784:	0006 0006 0000 0000 0006 0006 0006 0000     ................
	...
    57a4:	8019 8019 8019 8019 8019 8019 0000 0000     ................
	...
    57d4:	6006 4004 c00c c00c f07f f07f 8008 8019     .`.@............
    57e4:	8019 e0ff e0ff 0033 0033 0022 0022 0000     ......3.3."."...
	...
    5800:	0000 0002 0002 800f c01f 403a 0032 0032     ..........:@2.2.
    5810:	003a 001f c007 e002 6002 6002 e022 c03f     :........`.`".?.
    5820:	801f 0002 0002 0002 0000 0000 0000 0000     ................
    5830:	0000 0000 0078 0048 00cc 00cc 00cc 4048     ....x.H.......H@
    5840:	c079 000e c073 4002 6006 6006 6006 4002     y...s..@.`.`.`.@
    5850:	c003 0000 0000 0000 0000 0000 0000 0000     ................
    5860:	0000 0000 800f 801f 0018 0018 0018 000c     ................
    5870:	001e 3036 3063 b063 a061 e060 c030 603f     ..60c0c.a.`.0.?`
    5880:	700e 0000 0000 0000 0000 0000 0000 0000     .p..............
    5890:	0000 0000 0006 0006 0006 0006 0006 0006     ................
	...
    58c0:	0000 0001 0002 0002 0006 0006 0004 000c     ................
    58d0:	000c 000c 000c 000c 000c 000c 0004 0006     ................
    58e0:	0006 0002 0002 0001 0000 0000 0000 0000     ................
    58f0:	0000 0008 0004 0004 0006 0006 0002 0003     ................
    5900:	0003 0003 0003 0003 0003 0003 0002 0006     ................
    5910:	0006 0004 0004 0008 0000 0000 0000 0000     ................
    5920:	0000 0000 0004 0004 4044 8035 000e 000e     ........D@5.....
    5930:	8035 4044 0004 0004 0000 0000 0000 0000     5.D@............
	...
    5958:	0006 0006 0006 0006 0006 e07f e07f 0006     ................
    5968:	0006 0006 0006 0006 0000 0000 0000 0000     ................
	...
    599c:	0006 0006 0006 0006 000c 000c 0000 0000     ................
	...
    59c4:	001f 001f 0000 0000 0000 0000 0000 0000     ................
	...
    59fc:	0006 0006 0006 0000 0000 0000 0000 0000     ................
	...
    5a14:	6000 c000 c000 8001 8001 0003 0003 0006     .`..............
    5a24:	0006 0006 000c 000c 0018 0018 0030 0030     ............0.0.
    5a34:	0060 0000 0000 0000 0000 0000 0000 0000     `...............
    5a44:	001e 803f 8031 c071 c060 c060 c066 c066     ..?.1.q.`.`.f.f.
    5a54:	c060 c060 c060 c071 8031 803f 000e 0000     `.`.`.q.1.?.....
	...
    5a74:	0007 001f 001b 0003 0003 0003 0003 0003     ................
    5a84:	0003 0003 0003 0003 0003 e01f e01f 0000     ................
	...
    5aa4:	003f 807f c041 c000 c000 c000 c001 8001     ?...A...........
    5ab4:	0003 0006 000c 0018 0030 c07f c07f 0000     ........0.......
	...
    5ad4:	003f 807f c041 c000 c000 c001 800f 800f     ?...A...........
    5ae4:	8001 c000 c000 c000 c041 807f 003f 0000     ........A...?...
	...
    5b04:	8003 8003 8007 8005 800d 8009 8019 8031     ..............1.
    5b14:	8031 8061 e07f e07f 8001 8001 8001 0000     1.a.............
	...
    5b34:	803f 803f 0030 0030 0030 003f 803f c021     ?.?.0.0.0.?.?.!.
    5b44:	c000 c000 c000 c000 8041 807f 003e 0000     ........A...>...
	...
    5b64:	000f 801f 8038 0030 0070 0060 006f 807f     ....8.0.p.`.o...
    5b74:	c071 c060 c060 c060 c031 803f 001f 0000     q.`.`.`.1.?.....
	...
    5b94:	c07f c07f 8001 8001 8001 0003 0003 0003     ................
    5ba4:	0006 0006 0006 000c 000c 000c 0018 0000     ................
	...
    5bc4:	001f 803f c071 c060 c060 8031 001f 803f     ..?.q.`.`.1...?.
    5bd4:	8031 c060 c060 c060 c071 803f 001f 0000     1.`.`.`.q.?.....
	...
    5bf4:	001f 803f 8071 c060 c060 c060 c071 c03f     ..?.q.`.`.`.q.?.
    5c04:	c01e c000 c000 8001 8023 003f 001e 0000     ........#.?.....
	...
    5c2c:	0006 0006 0006 0000 0000 0000 0000 0000     ................
    5c3c:	0006 0006 0006 0000 0000 0000 0000 0000     ................
	...
    5c5c:	0006 0006 0006 0000 0000 0000 0000 0000     ................
    5c6c:	0006 0006 0006 0006 000c 000c 0000 0000     ................
	...
    5c88:	0000 2000 e001 8007 001e 0070 0070 001e     ... ......p.p...
    5c98:	8007 e001 2000 0000 0000 0000 0000 0000     ..... ..........
	...
    5cc0:	e07f e07f 0000 0000 e07f e07f 0000 0000     ................
	...
    5ce8:	0000 0040 0078 001e 8007 e000 e000 8007     ..@.x...........
    5cf8:	001e 0078 0040 0000 0000 0000 0000 0000     ..x.@...........
	...
    5d14:	800f c01f 6010 6000 e000 c001 8003 0006     .....`.`........
    5d24:	0006 0006 0000 0000 0006 0006 0006 0000     ................
	...
    5d44:	0000 8007 c018 6030 6030 e023 6062 6066     ......0`0`#.b`f`
    5d54:	6066 6066 6066 6066 6062 e033 0030 0018     f`f`f`f`b`3.0...
    5d64:	001c 8007 0000 0000 0000 0000 0000 0000     ................
    5d74:	0006 0006 000f 000f 000f 801f 8019 8019     ................
    5d84:	8019 c03f c03f c030 c030 6060 6060 0000     ..?.?.0.0.````..
	...
    5da4:	007f 807f c061 c060 c060 c061 807f 807f     ....a.`.`.a.....
    5db4:	c060 6060 6060 6060 e060 c07f 807f 0000     `.```````.......
	...
    5dd4:	c007 e01f 2038 0030 0060 0060 0060 0060     ....8 0.`.`.`.`.
    5de4:	0060 0060 0060 0030 2038 e01f c007 0000     `.`.`.0.8 ......
	...
    5e04:	007e 807f c061 c060 6060 6060 6060 6060     ~...a.`.````````
    5e14:	6060 6060 6060 c060 c061 807f 007e 0000     ```````.a...~...
	...
    5e34:	e07f e07f 0060 0060 0060 0060 e07f e07f     ....`.`.`.`.....
    5e44:	0060 0060 0060 0060 0060 e07f e07f 0000     `.`.`.`.`.......
	...
    5e64:	e07f e07f 0060 0060 0060 0060 c07f c07f     ....`.`.`.`.....
    5e74:	0060 0060 0060 0060 0060 0060 0060 0000     `.`.`.`.`.`.`...
	...
    5e94:	800f c01f 4038 0030 0060 0060 0060 e061     ....8@0.`.`.`.a.
    5ea4:	e061 6060 6060 6030 6038 e01f 800f 0000     a.````0`8`......
	...
    5ec4:	6060 6060 6060 6060 6060 6060 e07f e07f     ````````````....
    5ed4:	6060 6060 6060 6060 6060 6060 6060 0000     ``````````````..
	...
    5ef4:	c03f c03f 0006 0006 0006 0006 0006 0006     ?.?.............
    5f04:	0006 0006 0006 0006 0006 c03f c03f 0000     ..........?.?...
	...
    5f24:	801f 801f 8001 8001 8001 8001 8001 8001     ................
    5f34:	8001 8001 8001 8001 8043 007f 003e 0000     ........C...>...
	...
    5f54:	6060 c060 8061 0063 0066 006c 007c 007e     ```.a.c.f.l.|.~.
    5f64:	0076 0063 8063 8061 c060 e060 6060 0000     v.c.c.a.`.`.``..
	...
    5f84:	0060 0060 0060 0060 0060 0060 0060 0060     `.`.`.`.`.`.`.`.
    5f94:	0060 0060 0060 0060 0060 e07f e07f 0000     `.`.`.`.`.......
	...
    5fb4:	e070 e070 e070 e079 6069 6069 606f 6066     p.p.p.y.i`i`o`f`
    5fc4:	6066 6066 6060 6060 6060 6060 6060 0000     f`f```````````..
	...
    5fe4:	6070 6070 6078 6078 606c 606c 6064 6066     p`p`x`x`l`l`d`f`
    5ff4:	6062 6063 6063 e061 e061 e060 e060 0000     b`c`c`a.a.`.`...
	...
    6014:	000f c03f c030 e070 6060 6060 6060 6060     ..?.0.p.````````
    6024:	6060 6060 6060 e070 c030 c03f 000f 0000     ``````p.0.?.....
	...
    6044:	807f c07f e060 6060 6060 6060 e060 c07f     ....`.```````...
    6054:	807f 0060 0060 0060 0060 0060 0060 0000     ..`.`.`.`.`.`...
	...
    6074:	000f c03f c030 e070 6060 6060 6060 6060     ..?.0.p.````````
    6084:	6060 6060 6060 e070 c030 801f 000f 8001     ``````p.0.......
    6094:	c000 8000 0000 0000 0000 0000 0000 0000     ................
    60a4:	007f c07f e060 6060 6060 6060 c060 c07f     ....`.```````...
    60b4:	807f c061 c060 6060 6060 3060 3060 0000     ..a.`.`````0`0..
	...
    60d4:	801f c03f 4070 0060 0060 0070 003e 801f     ..?.p@`.`.p.>...
    60e4:	c001 6000 6000 6000 e040 c07f 803f 0000     ...`.`.`@...?...
	...
    6104:	f0ff f0ff 0006 0006 0006 0006 0006 0006     ................
    6114:	0006 0006 0006 0006 0006 0006 0006 0000     ................
	...
    6134:	6060 6060 6060 6060 6060 6060 6060 6060     ````````````````
    6144:	6060 6060 6060 6060 e070 c03f 801f 0000     ````````p.?.....
	...
    6164:	6060 6060 c030 c030 c030 c030 8019 8019     ````0.0.0.0.....
    6174:	8019 801f 000f 000f 000f 0006 0006 0000     ................
	...
    6194:	30c0 30c0 30c0 6060 6066 6066 606f 606f     .0.0.0``f`f`o`o`
    61a4:	6069 6069 c039 c039 c039 c030 c030 0000     i`i`9.9.9.0.0...
	...
    61c4:	e070 c030 c039 8019 000f 000f 0006 0006     p.0.9...........
    61d4:	000f 000f 801b 8019 c031 c030 e060 0000     ........1.0.`...
	...
    61f4:	70e0 6060 c030 c030 8019 801f 000f 0006     .p``0.0.........
    6204:	0006 0006 0006 0006 0006 0006 0006 0000     ................
	...
    6224:	e07f e07f c000 c001 8001 0003 0007 0006     ................
    6234:	000e 000c 0018 0038 0030 e07f e07f 0000     ......8.0.......
	...
    6250:	0000 8007 8007 0006 0006 0006 0006 0006     ................
    6260:	0006 0006 0006 0006 0006 0006 0006 0006     ................
    6270:	0006 0006 8007 8007 0000 0000 0000 0000     ................
    6280:	0000 0000 0060 0030 0030 0018 0018 000c     ....`.0.0.......
    6290:	000c 0006 0006 0006 0003 0003 8001 8001     ................
    62a0:	c000 c000 6000 0000 0000 0000 0000 0000     .....`..........
    62b0:	0000 000f 000f 0003 0003 0003 0003 0003     ................
    62c0:	0003 0003 0003 0003 0003 0003 0003 0003     ................
    62d0:	0003 0003 000f 000f 0000 0000 0000 0000     ................
    62e0:	0000 0000 0007 800f 800d c018 6030 3060     ............0``0
	...
    6338:	f0ff f0ff 0000 0000 0018 000c 0006 0003     ................
	...
    637c:	001f 803f c021 c000 c01f c03f c070 c060     ..?.!.....?.p.`.
    638c:	c061 c07f c01c 0000 0000 0000 0000 0000     a...............
    639c:	0000 0000 0000 0060 0060 0060 0060 0060     ......`.`.`.`.`.
    63ac:	006f 807f 8071 c060 c060 c060 c060 c060     o...q.`.`.`.`.`.
    63bc:	8071 807f 006f 0000 0000 0000 0000 0000     q...o...........
	...
    63dc:	000f 803f 8030 0060 0060 0060 0060 0060     ..?.0.`.`.`.`.`.
    63ec:	8030 803f 000f 0000 0000 0000 0000 0000     0.?.............
    63fc:	0000 0000 0000 c000 c000 c000 c000 c000     ................
    640c:	c01e c03f c031 c060 c060 c060 c060 c060     ..?.1.`.`.`.`.`.
    641c:	c031 c03f c01e 0000 0000 0000 0000 0000     1.?.............
	...
    643c:	000f 803f c031 c060 c07f c07f 0060 0060     ..?.1.`.....`.`.
    644c:	4030 c03f 800f 0000 0000 0000 0000 0000     0@?.............
    645c:	0000 0000 0000 e001 e003 0006 0006 0006     ................
    646c:	e03f e03f 0006 0006 0006 0006 0006 0006     ?.?.............
    647c:	0006 0006 0006 0000 0000 0000 0000 0000     ................
	...
    649c:	c01e c03f c031 c060 c060 c060 c060 c060     ..?.1.`.`.`.`.`.
    64ac:	c031 c03f c01e c000 c021 803f 001f 0000     1.?.....!.?.....
    64bc:	0000 0000 0000 0060 0060 0060 0060 0060     ......`.`.`.`.`.
    64cc:	0067 807f c071 c060 c060 c060 c060 c060     g...q.`.`.`.`.`.
    64dc:	c060 c060 c060 0000 0000 0000 0000 0000     `.`.`...........
    64ec:	0000 0000 0000 0006 0006 0000 0000 0000     ................
    64fc:	003e 003e 0006 0006 0006 0006 0006 0006     >.>.............
    650c:	0006 e07f e07f 0000 0000 0000 0000 0000     ................
    651c:	0000 0000 0000 0003 0003 0000 0000 0000     ................
    652c:	001f 001f 0003 0003 0003 0003 0003 0003     ................
    653c:	0003 0003 0003 0003 0003 003e 003c 0000     ..........>.<...
    654c:	0000 0000 0000 0060 0060 0060 0060 0060     ......`.`.`.`.`.
    655c:	c061 8063 0067 006e 007c 007c 0076 0067     a.c.g.n.|.|.v.g.
    656c:	0063 8061 c061 0000 0000 0000 0000 0000     c.a.a...........
    657c:	0000 0000 0000 00fc 00fc 000c 000c 000c     ................
    658c:	000c 000c 000c 000c 000c 000c 000c 000c     ................
    659c:	000e c007 c003 0000 0000 0000 0000 0000     ................
	...
    65bc:	c06d e07f 6066 6066 6066 6066 6066 6066     m...f`f`f`f`f`f`
    65cc:	6066 6066 6066 0000 0000 0000 0000 0000     f`f`f`..........
	...
    65ec:	0067 807f c071 c060 c060 c060 c060 c060     g...q.`.`.`.`.`.
    65fc:	c060 c060 c060 0000 0000 0000 0000 0000     `.`.`...........
	...
    661c:	001f 803f 8031 c060 c060 c060 c060 c060     ..?.1.`.`.`.`.`.
    662c:	8031 803f 001f 0000 0000 0000 0000 0000     1.?.............
	...
    664c:	006f 807f 8071 c060 c060 c060 c060 c060     o...q.`.`.`.`.`.
    665c:	8071 807f 006f 0060 0060 0060 0060 0000     q...o.`.`.`.`...
	...
    667c:	c01e c03f c031 c060 c060 c060 c060 c060     ..?.1.`.`.`.`.`.
    668c:	c031 c03f c01e c000 c000 c000 c000 0000     1.?.............
	...
    66ac:	e00c f00d 100f 000e 000c 000c 000c 000c     ................
    66bc:	000c 000c 000c 0000 0000 0000 0000 0000     ................
	...
    66dc:	801f c03f 4060 0060 007f 801f c001 c000     ..?.`@`.........
    66ec:	c041 807f 003f 0000 0000 0000 0000 0000     A...?...........
	...
    6704:	0000 000c 000c 000c c07f c07f 000c 000c     ................
    6714:	000c 000c 000c 000c 000c c00f c007 0000     ................
	...
    673c:	c060 c060 c060 c060 c060 c060 c060 c060     `.`.`.`.`.`.`.`.
    674c:	c071 c03f c01c 0000 0000 0000 0000 0000     q.?.............
	...
    676c:	c060 c071 8031 8031 803b 001b 001b 001b     `.q.1.1.;.......
    677c:	000e 000e 000e 0000 0000 0000 0000 0000     ................
	...
    679c:	30c0 30c0 6060 6066 6066 6066 c03f c039     .0.0``f`f`f`?.9.
    67ac:	c039 c039 c030 0000 0000 0000 0000 0000     9.9.0...........
	...
    67cc:	c071 8031 001b 001f 000e 000e 000e 001f     q.1.............
    67dc:	001b 8031 c071 0000 0000 0000 0000 0000     ..1.q...........
	...
    67fc:	c060 8031 8031 8031 001b 001b 001f 000e     `.1.1.1.........
    680c:	000e 0006 000c 000c 000c 0038 0038 0000     ..........8.8...
	...
    682c:	c07f c07f 8003 0003 0007 000e 001c 0018     ................
    683c:	0030 c07f c07f 0000 0000 0000 0000 0000     0...............
    684c:	0000 0000 0000 c003 c007 0006 0006 0006     ................
    685c:	0006 0006 0006 003c 003c 000e 0006 0006     ......<.<.......
    686c:	0006 0006 0006 0006 c007 c003 0000 0000     ................
    687c:	0000 0000 0000 0006 0006 0006 0006 0006     ................
    688c:	0006 0006 0006 0006 0006 0006 0006 0006     ................
    689c:	0006 0006 0006 0006 0006 0006 0006 0006     ................
    68ac:	0000 0000 0000 003c 003e 0006 0006 0006     ......<.>.......
    68bc:	0006 0006 0006 c003 c003 0007 0006 0006     ................
    68cc:	0006 0006 0006 0006 003e 003c 0000 0000     ........>.<.....

000068dc <asc2_3216>:
	...
    6928:	c001 c001 c001 c001 c001 c001 c001 c001     ................
    6938:	c001 c001 c001 c001 c001 c001 0000 0000     ................
    6948:	0000 c001 c001 c001 0000 0000 0000 0000     ................
	...
    6968:	3006 3006 3006 3006 3006 3006 3006 3006     .0.0.0.0.0.0.0.0
	...
    69a4:	0000 8c01 8c03 0c03 1803 1803 1803 ff7f     ................
    69b4:	ff7f 3006 3006 300e 700c 600c feff feff     ...0.0.0.p.`....
    69c4:	6018 c018 c018 c018 c030 8031 0000 0000     .`......0.1.....
	...
    69e4:	0000 8000 8000 8000 f003 fc0f 8c0e 801c     ................
    69f4:	801c 801c 801c 800e e00f f803 fc00 9e00     ................
    6a04:	8e00 8e00 8e00 9c10 f81f f007 8000 8000     ................
    6a14:	8000 8000 0000 0000 0000 0000 0000 0000     ................
    6a24:	0000 0000 003c 007e 00e7 00c3 00c3 00c3     ....<.~.........
    6a34:	00e7 1c7e 783c c001 0007 783c fc70 ce01     ..~.<x....<xp...
    6a44:	8601 8601 8601 ce01 fc00 7800 0000 0000     ...........x....
	...
    6a68:	c007 e00f 201e 001c 001c 001c 001e 000e     ..... ..........
    6a78:	000f 001f 833f c333 e371 e370 f670 7e70     ....?.3.q.p.p.p~
    6a88:	3c78 3e3c ee1f cf07 0000 0000 0000 0000     x<<>............
	...
    6aa8:	8001 8001 8001 8001 8001 8001 8001 8001     ................
	...
    6ae4:	0000 3000 6000 6000 e000 c000 c001 c001     ...0.`.`........
    6af4:	8001 8003 8003 8003 8003 8003 8003 8003     ................
    6b04:	8003 8003 8001 c001 c001 c000 e000 6000     ...............`
    6b14:	6000 3000 0000 0000 0000 0000 0000 0000     .`.0............
    6b24:	0000 0006 0003 0003 8003 8001 c001 c001     ................
    6b34:	c000 e000 e000 e000 e000 e000 e000 e000     ................
    6b44:	e000 e000 c000 c001 c001 8001 8003 0003     ................
    6b54:	0003 0006 0000 0000 0000 0000 0000 0000     ................
    6b64:	0000 0000 8001 8001 8421 9c39 f00f c003     ........!.9.....
    6b74:	c003 f00f 9c39 8421 8001 8001 0000 0000     ....9.!.........
	...
    6bb0:	8001 8001 8001 8001 8001 8001 fe7f fe7f     ................
    6bc0:	8001 8001 8001 8001 8001 8001 0000 0000     ................
	...
    6c08:	c001 c001 c001 c001 8001 8003 8003 0003     ................
	...
    6c3c:	0000 f007 f007 0000 0000 0000 0000 0000     ................
	...
    6c88:	8003 8003 8003 8003 0000 0000 0000 0000     ................
	...
    6ca8:	1c00 3800 3800 7000 7000 7000 e000 e000     ...8.8.p.p.p....
    6cb8:	c001 c001 8003 8003 8003 0007 0007 000e     ................
    6cc8:	000e 001c 001c 001c 0038 0038 0070 0000     ........8.8.p...
	...
    6ce8:	e003 f80f 380e 1c1c 1c1c 0e38 0e38 0e38     .....8....8.8.8.
    6cf8:	ce39 ce39 ce39 0e38 0e38 0e38 0e38 1c1c     9.9.9.8.8.8.8...
    6d08:	1c1c 380e f80f e003 0000 0000 0000 0000     ...8............
	...
    6d28:	e003 e00f e00c e000 e000 e000 e000 e000     ................
    6d38:	e000 e000 e000 e000 e000 e000 e000 e000     ................
    6d48:	e000 e000 fe0f fe0f 0000 0000 0000 0000     ................
	...
    6d68:	e00f f83f 3c38 1e20 0e00 0e00 0e00 0e00     ..?.8< .........
    6d78:	1e00 3c00 7c00 f800 f000 e001 c003 0007     ...<.|..........
    6d88:	000e 001c fe3f fe3f 0000 0000 0000 0000     ....?.?.........
	...
    6da8:	f007 f81f 1c18 0e00 0e00 0e00 0e00 3c00     ...............<
    6db8:	f007 f007 3c00 1c00 0e00 0e00 0e00 0e00     .....<..........
    6dc8:	1e00 3c30 f83f e00f 0000 0000 0000 0000     ..0<?...........
	...
    6de8:	7000 f000 f001 f001 7003 7007 7006 700c     .p.......p.p.p.p
    6df8:	700c 7018 7038 7030 7060 fe7f fe7f 7000     .p.p8p0p`p.....p
    6e08:	7000 7000 7000 7000 0000 0000 0000 0000     .p.p.p.p........
	...
    6e28:	fc1f fc1f 001c 001c 001c 001c e01f f81f     ................
    6e38:	3c10 1c00 0e00 0e00 0e00 0e00 0e00 0e00     .<..............
    6e48:	1c00 3c20 f83f e01f 0000 0000 0000 0000     .. <?...........
	...
    6e68:	f801 fc07 040f 001e 001c 001c 0038 f039     ............8.9.
    6e78:	f83b 3c3e 1e3c 0e38 0e38 0e38 0e38 0e18     ;.><<.8.8.8.8...
    6e88:	1c1c 3c0e f80f f003 0000 0000 0000 0000     ...<............
	...
    6ea8:	fe3f fe3f 1e00 1c00 1c00 3800 3800 3800     ?.?........8.8.8
    6eb8:	7000 7000 f000 e000 e000 e001 c001 c001     .p.p............
    6ec8:	8003 8003 8003 0007 0000 0000 0000 0000     ................
	...
    6ee8:	f007 fc1f 1c1c 0e38 0e38 0e38 0e38 1c1c     ......8.8.8.8...
    6ef8:	f007 f80f 3c1e 1c1c 0e38 0e38 0e38 0e38     .....<..8.8.8.8.
    6f08:	1e3c 3c1e f80f f007 0000 0000 0000 0000     <..<............
	...
    6f28:	e007 f80f 381e 1c3c 0c38 0e38 0e38 0e38     .....8<.8.8.8.8.
    6f38:	0e38 1e3c 3e1e ee0f ce07 0e00 1c00 1c00     8.<..>..........
    6f48:	3c00 7810 f01f c00f 0000 0000 0000 0000     .<.x............
	...
    6f74:	8003 8003 8003 8003 0000 0000 0000 0000     ................
    6f84:	0000 0000 8003 8003 8003 8003 0000 0000     ................
	...
    6fb4:	8003 8003 8003 8003 0000 0000 0000 0000     ................
    6fc4:	0000 0000 8003 8003 8003 8003 0003 0007     ................
    6fd4:	0007 0006 0000 0000 0000 0000 0000 0000     ................
	...
    6ff0:	0200 1e00 7e00 f801 c00f 003f 0078 0078     .....~....?.x.x.
    7000:	003f c00f f801 7e00 1e00 0200 0000 0000     ?......~........
	...
    7038:	fe7f fe7f 0000 0000 0000 fe7f fe7f 0000     ................
	...
    7070:	0040 0078 007e 801f f003 fc00 1e00 1e00     @.x.~...........
    7080:	fc00 f003 801f 007e 0078 0040 0000 0000     ......~.x.@.....
	...
    70a8:	e003 f80f 381c 1c10 1c00 3c00 3c00 7800     .....8.....<.<.x
    70b8:	f000 e001 c003 8003 8003 8003 8003 0000     ................
    70c8:	0000 8003 8003 8003 0000 0000 0000 0000     ................
	...
    70e8:	0000 f801 fc07 0e0e 061c 0318 0330 7b30     ............0.0{
    70f8:	ff61 8761 0363 0363 0363 0363 0363 8761     a.a.c.c.c.c.c.a.
    7108:	ff71 7b30 0030 0018 001c 040f fc03 fc00     q.0{0...........
	...
    7128:	c001 e003 e003 e003 e003 7007 7007 7007     ...........p.p.p
    7138:	780f 380e 380e 380e fc1f fc1f 1c1c 0e38     .x.8.8.8......8.
    7148:	0e38 0e38 0f78 0770 0000 0000 0000 0000     8.8.x.p.........
	...
    7168:	e03f f83f 3838 1c38 1c38 1c38 1c38 3838     ?.?.888.8.8.8.88
    7178:	f03f f03f 3c38 1c38 0e38 0e38 0e38 0e38     ?.?.8<8.8.8.8.8.
    7188:	1e38 3c38 f83f e03f 0000 0000 0000 0000     8.8<?.?.........
	...
    71a8:	f801 fc07 0c0f 041e 001c 001c 0038 0038     ............8.8.
    71b8:	0038 0038 0038 0038 0038 0038 001c 001c     8.8.8.8.8.8.....
    71c8:	041e 0c0f fc07 f801 0000 0000 0000 0000     ................
	...
    71e8:	c03f f03f 7838 1c38 1c38 0c38 0e38 0e38     ?.?.8x8.8.8.8.8.
    71f8:	0e38 0e38 0e38 0e38 0e38 0e38 0c38 1c38     8.8.8.8.8.8.8.8.
    7208:	1c38 7838 f03f c03f 0000 0000 0000 0000     8.8x?.?.........
	...
    7228:	fe1f fe1f 001c 001c 001c 001c 001c 001c     ................
    7238:	fc1f fc1f 001c 001c 001c 001c 001c 001c     ................
    7248:	001c 001c fe1f fe1f 0000 0000 0000 0000     ................
	...
    7268:	fe1f fe1f 001c 001c 001c 001c 001c 001c     ................
    7278:	fc1f fc1f 001c 001c 001c 001c 001c 001c     ................
    7288:	001c 001c 001c 001c 0000 0000 0000 0000     ................
	...
    72a8:	f801 fc07 0c0f 041e 001c 001c 0038 0038     ............8.8.
    72b8:	0038 7e38 7e38 0e38 0e38 0e38 0e1c 0e1c     8.8~8~8.8.8.....
    72c8:	0e1c 1e0f fe07 f801 0000 0000 0000 0000     ................
	...
    72e8:	0e38 0e38 0e38 0e38 0e38 0e38 0e38 0e38     8.8.8.8.8.8.8.8.
    72f8:	fe3f fe3f 0e38 0e38 0e38 0e38 0e38 0e38     ?.?.8.8.8.8.8.8.
    7308:	0e38 0e38 0e38 0e38 0000 0000 0000 0000     8.8.8.8.........
	...
    7328:	fc1f fc1f c001 c001 c001 c001 c001 c001     ................
    7338:	c001 c001 c001 c001 c001 c001 c001 c001     ................
    7348:	c001 c001 fc1f fc1f 0000 0000 0000 0000     ................
	...
    7368:	f807 f807 3800 3800 3800 3800 3800 3800     .....8.8.8.8.8.8
    7378:	3800 3800 3800 3800 3800 3800 3800 3800     .8.8.8.8.8.8.8.8
    7388:	3820 7030 f03f c00f 0000 0000 0000 0000      80p?...........
	...
    73a8:	0738 0e38 1c38 3838 7038 e038 c039 803b     8.8.8.888p8.9.;.
    73b8:	803f c03f c03f e03d f038 7038 7838 3c38     ?.?.?.=.8.8p8x8<
    73c8:	1c38 1e38 0f38 0738 0000 0000 0000 0000     8.8.8.8.........
	...
    73e8:	001c 001c 001c 001c 001c 001c 001c 001c     ................
    73f8:	001c 001c 001c 001c 001c 001c 001c 001c     ................
    7408:	001c 001c fe1f fe1f 0000 0000 0000 0000     ................
	...
    7428:	1e78 1e78 3e7c 3e7c 3e7c 6e76 6e76 6e76     x.x.|>|>|>vnvnvn
    7438:	4e72 ce73 ce73 8e71 8e71 0e70 0e70 0e70     rNs.s.q.q.p.p.p.
    7448:	0e70 0e70 0e70 0e70 0000 0000 0000 0000     p.p.p.p.........
	...
    7468:	0e3c 0e3c 0e3e 0e3e 0e3e 0e3b 0e3b 8e3b     <.<.>.>.>.;.;.;.
    7478:	8e39 8e39 ce38 ce38 ee38 6e38 6e38 3e38     9.9.8.8.8.8n8n8>
    7488:	3e38 3e38 1e38 1e38 0000 0000 0000 0000     8>8>8.8.........
	...
    74a8:	e003 f80f 380e 1c1c 1c1c 0e38 0e38 0e38     .....8....8.8.8.
    74b8:	0e38 0e38 0e38 0e38 0e38 0e38 0e38 1c1c     8.8.8.8.8.8.8...
    74c8:	1c1c 380e f80f e003 0000 0000 0000 0000     ...8............
	...
    74e8:	f01f fc1f 1e1c 0f1c 071c 071c 071c 071c     ................
    74f8:	0f1c 1e1c fc1f f01f 001c 001c 001c 001c     ................
    7508:	001c 001c 001c 001c 0000 0000 0000 0000     ................
	...
    7528:	e003 f80f 380e 1c1c 1c1c 0e38 0e38 0e38     .....8....8.8.8.
    7538:	0e38 0e38 0e38 0e38 0e38 0e38 0e38 1c1c     8.8.8.8.8.8.8...
    7548:	1c1c 380e f80f e003 7000 3800 1c00 1000     ...8.....p.8....
	...
    7568:	e03f f03f 7838 3c38 1c38 1c38 1c38 1c38     ?.?.8x8<8.8.8.8.
    7578:	1c38 3838 f03f e03f f038 7838 3838 3c38     8.88?.?.8.8x888<
    7588:	1c38 1e38 0e38 0f38 0000 0000 0000 0000     8.8.8.8.........
	...
    75a8:	f003 fc0f 0c1e 043c 0038 0038 0038 003e     ......<.8.8.8.>.
    75b8:	c01f f80f fc03 3c00 1e00 0e00 0e00 0e00     .......<........
    75c8:	1e20 3c38 f83f e00f 0000 0000 0000 0000      .8<?...........
	...
    75e8:	ff7f ff7f c001 c001 c001 c001 c001 c001     ................
    75f8:	c001 c001 c001 c001 c001 c001 c001 c001     ................
    7608:	c001 c001 c001 c001 0000 0000 0000 0000     ................
	...
    7628:	1c38 1c38 1c38 1c38 1c38 1c38 1c38 1c38     8.8.8.8.8.8.8.8.
    7638:	1c38 1c38 1c38 1c38 1c38 1c38 1c38 1c38     8.8.8.8.8.8.8.8.
    7648:	1c38 381c f00f e007 0000 0000 0000 0000     8..8............
	...
    7668:	0770 0f78 0e38 0e38 0e38 1c1c 1c1c 1c1c     p.x.8.8.8.......
    7678:	3c1e 380e 380e 380e 7007 7007 7007 e003     .<.8.8.8.p.p.p..
    7688:	e003 e003 e003 c001 0000 0000 0000 0000     ................
	...
    76a8:	07e0 07e0 07e0 0e70 0e70 0e70 ce73 ce73     ......p.p.p.s.s.
    76b8:	ce73 ce73 dc3b 7c3e 7c3e 7c3e 7c3e 3c3c     s.s.;.>|>|>|>|<<
    76c8:	3c3c 381c 381c 1818 0000 0000 0000 0000     <<.8.8..........
	...
    76e8:	0778 0f3c 0e1c 1e1e 3c0f 3807 f007 f003     x.<......<.8....
    76f8:	e001 e001 e001 f003 f007 7807 3c0f 1c0e     ...........x.<..
    7708:	1e1e 0e3c 0738 0778 0000 0000 0000 0000     ..<.8.x.........
	...
    7728:	0f78 0e38 1e3c 1c1c 3c1e 380e 7007 f007     x.8.<....<.8.p..
    7738:	e003 e003 c001 c001 c001 c001 c001 c001     ................
    7748:	c001 c001 c001 c001 0000 0000 0000 0000     ................
	...
    7768:	fe3f fe3f 1e00 1c00 3c00 7800 7000 f000     ?.?......<.x.p..
    7778:	e000 e001 c003 8003 8007 0007 000f 001e     ................
    7788:	001c 003c fe3f fe3f 0000 0000 0000 0000     ..<.?.?.........
	...
    77a4:	0000 f003 f003 8003 8003 8003 8003 8003     ................
    77b4:	8003 8003 8003 8003 8003 8003 8003 8003     ................
    77c4:	8003 8003 8003 8003 8003 8003 8003 8003     ................
    77d4:	f003 f003 0000 0000 0000 0000 0000 0000     ................
    77e4:	0000 0000 0070 0038 0038 001c 001c 001c     ....p.8.8.......
    77f4:	000e 000e 0007 0007 8003 8003 8003 c001     ................
    7804:	c001 e000 e000 7000 7000 7000 3800 3800     .......p.p.p.8.8
    7814:	1c00 0000 0000 0000 0000 0000 0000 0000     ................
    7824:	0000 e007 e007 e000 e000 e000 e000 e000     ................
    7834:	e000 e000 e000 e000 e000 e000 e000 e000     ................
    7844:	e000 e000 e000 e000 e000 e000 e000 e000     ................
    7854:	e007 e007 0000 0000 0000 0000 0000 0000     ................
    7864:	0000 0000 c003 c003 e007 700e 300c 1818     ...........p.0..
    7874:	1c38 0e70 0000 0000 0000 0000 0000 0000     8.p.............
	...
    78d8:	0000 ffff 0000 0000 0000 0000 000e 0007     ................
    78e8:	0003 8001 c000 0000 0000 0000 0000 0000     ................
	...
    7930:	0000 f007 fc1f 1c18 0e00 0e00 fe07 fe0f     ................
    7940:	0e1c 0e38 0e38 1e38 1e38 3e3c ee1f ce07     ..8.8.8.8.<>....
	...
    7964:	0000 001c 001c 001c 001c 001c 001c f81c     ................
    7974:	fc1f 1e1f 0e1e 071c 071c 071c 071c 071c     ................
    7984:	071c 071c 0e1e 1e1f fc1f f81c 0000 0000     ................
	...
    79b0:	0000 f001 f807 0c0f 000e 001c 001c 001c     ................
    79c0:	001c 001c 001c 001e 000e 0c0f f807 f001     ................
	...
    79e4:	0000 0e00 0e00 0e00 0e00 0e00 0e00 ce07     ................
    79f4:	fe0f 3e1e 1e1c 0e38 0e38 0e38 0e38 0e38     ...>..8.8.8.8.8.
    7a04:	0e38 0e38 1e1c 3e1e fe0f ce07 0000 0000     8.8....>........
	...
    7a30:	0000 e003 f80f 3c1e 1c1c 0e3c 0e38 0e38     .......<..<.8.8.
    7a40:	fe3f fe3f 0038 0038 041c 0c1e f80f e003     ?.?.8.8.........
	...
    7a64:	0000 7e00 fe00 e001 c001 c001 c001 fe1f     ...~............
    7a74:	fe1f c001 c001 c001 c001 c001 c001 c001     ................
    7a84:	c001 c001 c001 c001 c001 c001 0000 0000     ................
	...
    7ab0:	0000 ce07 ee0f 3e1e 1e1c 0e38 0e38 0e38     .......>..8.8.8.
    7ac0:	0e38 0e38 0e38 0e38 1e1c 3e1e ee0f ce07     8.8.8.8....>....
    7ad0:	0e00 0e00 1c00 3c08 f80f e007 0000 0000     .......<........
    7ae0:	0000 0000 0000 001c 001c 001c 001c 001c     ................
    7af0:	001c f01c f81d 3c1e 1c1e 1c1c 1c1c 1c1c     .......<........
    7b00:	1c1c 1c1c 1c1c 1c1c 1c1c 1c1c 1c1c 1c1c     ................
	...
    7b24:	0000 c001 c001 c001 0000 0000 0000 c01f     ................
    7b34:	c01f c001 c001 c001 c001 c001 c001 c001     ................
    7b44:	c001 c001 c001 c001 fe3f fe3f 0000 0000     ........?.?.....
	...
    7b64:	0000 e000 e000 e000 0000 0000 0000 e00f     ................
    7b74:	e00f e000 e000 e000 e000 e000 e000 e000     ................
    7b84:	e000 e000 e000 e000 e000 e000 e000 e000     ................
    7b94:	e000 c001 c01f 001f 0000 0000 0000 0000     ................
    7ba4:	0000 001c 001c 001c 001c 001c 001c 0f1c     ................
    7bb4:	1e1c 3c1c 781c f01c e01d c01f e01f e01f     ...<.x..........
    7bc4:	f01e 781c 3c1c 1c1c 1e1c 0f1c 0000 0000     ...x.<..........
	...
    7be4:	0000 807f 807f 8003 8003 8003 8003 8003     ................
    7bf4:	8003 8003 8003 8003 8003 8003 8003 8003     ................
    7c04:	8003 8003 8003 c001 fc01 7c00 0000 0000     ...........|....
	...
    7c30:	0000 1c77 be7f e771 c771 c771 c771 c771     ..w...q.q.q.q.q.
    7c40:	c771 c771 c771 c771 c771 c771 c771 c771     q.q.q.q.q.q.q.q.
	...
    7c70:	0000 f01c f81d 3c1e 1c1e 1c1c 1c1c 1c1c     .......<........
    7c80:	1c1c 1c1c 1c1c 1c1c 1c1c 1c1c 1c1c 1c1c     ................
	...
    7cb0:	0000 e003 f80f 3c1e 1c1c 0e38 0e38 0e38     .......<..8.8.8.
    7cc0:	0e38 0e38 0e38 0e38 1c1c 3c1e f80f e003     8.8.8.8....<....
	...
    7cf0:	0000 f81c fc1f 1e1f 0e1e 071c 071c 071c     ................
    7d00:	071c 071c 071c 071c 0e1e 1e1f fc1f f81c     ................
    7d10:	001c 001c 001c 001c 001c 001c 0000 0000     ................
	...
    7d30:	0000 ce07 fe0f 3e1e 1e1c 0e38 0e38 0e38     .......>..8.8.8.
    7d40:	0e38 0e38 0e38 0e38 1e1c 3e1e fe0f ce07     8.8.8.8....>....
    7d50:	0e00 0e00 0e00 0e00 0e00 0e00 0000 0000     ................
	...
    7d70:	0000 3c07 7e07 c207 8007 8007 0007 0007     ...<.~..........
    7d80:	0007 0007 0007 0007 0007 0007 0007 0007     ................
	...
    7db0:	0000 f003 f80f 081e 001c 001c 001f f00f     ................
    7dc0:	f807 fc00 3c00 1c00 1c00 3c10 f81f e007     .....<.....<....
	...
    7de8:	0000 8003 8003 8003 8003 fe3f fe3f 8003     ..........?.?...
    7df8:	8003 8003 8003 8003 8003 8003 8003 8003     ................
    7e08:	8003 c003 fe01 fe00 0000 0000 0000 0000     ................
	...
    7e30:	0000 1c1c 1c1c 1c1c 1c1c 1c1c 1c1c 1c1c     ................
    7e40:	1c1c 1c1c 1c1c 1c1c 3c1c 3c1e dc0f 9c07     .........<.<....
	...
    7e70:	0000 0e70 1c38 1c38 1c38 381c 381c 781e     ..p.8.8.8..8.8.x
    7e80:	700e 700e f00f e007 e007 e007 c003 c003     .p.p............
	...
    7eb0:	0000 07e0 07e0 0e70 0e70 8e71 8e71 de7b     ......p.p.q.q.{.
    7ec0:	dc3b 5c3a 5c3a 7c3e 781e 381c 381c 381c     ;.:\:\>|.x.8.8.8
	...
    7ef0:	0000 3c3c 781e 700e f00f e007 c003 c003     ..<<.x.p........
    7f00:	8001 c003 e007 f00f 700e 781e 3c3c 1e78     .........p.x<<x.
	...
    7f30:	0000 0e70 1c38 1c38 3c3c 381c 381c 781e     ..p.8.8.<<.8.8.x
    7f40:	700e 700e e007 e007 e007 c003 c003 8003     .p.p............
    7f50:	8003 8003 0007 000f 003e 003c 0000 0000     ........>.<.....
	...
    7f70:	0000 fc1f fc1f 3c00 7800 7000 f000 e001     .......<.x.p....
    7f80:	c001 c003 8007 0007 000f 001e fc1f fc1f     ................
	...
    7fa4:	0000 7c00 fc00 e001 c001 c001 c001 c001     ...|............
    7fb4:	c001 c001 c001 c001 8003 001f 001f 8003     ................
    7fc4:	c001 c001 c001 c001 c001 c001 c001 c001     ................
    7fd4:	e001 fc00 7c00 0000 0000 0000 0000 0000     .....|..........
    7fe4:	0000 8001 8001 8001 8001 8001 8001 8001     ................
    7ff4:	8001 8001 8001 8001 8001 8001 8001 8001     ................
    8004:	8001 8001 8001 8001 8001 8001 8001 8001     ................
    8014:	8001 8001 8001 8001 0000 0000 0000 0000     ................
    8024:	0000 001f 801f c003 c001 c001 c001 c001     ................
    8034:	c001 c001 c001 c001 e000 7c00 7c00 e000     ...........|.|..
    8044:	c001 c001 c001 c001 c001 c001 c001 c001     ................
    8054:	c003 801f 001f 0000 4946 4f46 4f20 0d56     ........FIFO OV.
    8064:	0000 0000 6c42 6e69 2064 614e 6976 6167     ....Blind Naviga
    8074:	6974 6e6f 0000 0000 7453 6572 7465 4320     tion....Street C
    8084:	6e6f 6964 6974 6e6f 0073 0000 6944 7473     onditions...Dist
    8094:	6e61 6563 003a 0000 7453 7461 3a65 4552     ance:...State:RE
    80a4:	5453 0000 6550 6564 7473 6972 6e61 7420     ST..Pedestrian t
    80b4:	6172 6666 6369 6920 2073 6f6e 6d72 6c61     raffic is normal
    80c4:	0000 0000 0000 40a0 0000 4120 0000 0000     .......@.. A....
    80d4:	0000 404d 6f63 6e75 3a74 6425 0a0d 0000     ..M@count:%d....
    80e4:	4944 5453 4e41 4543 253a 2e33 6632 6320     DISTANCE:%3.2f c
    80f4:	0d6d 000a ab58 ffff a9dc ffff aaec ffff     m...X...........
    8104:	aaf4 ffff aaec ffff aa0c ffff aaec ffff     ................
    8114:	aaf4 ffff a9dc ffff a9dc ffff aa0c ffff     ................
    8124:	aaf4 ffff ab4e ffff ab4e ffff ab4e ffff     ....N...N...N...
    8134:	aa0c ffff b412 ffff b33c ffff b40c ffff     ........<.......
    8144:	b344 ffff b40c ffff b30a ffff b40c ffff     D...............
    8154:	b344 ffff b33c ffff b33c ffff b30a ffff     D...<...<.......
    8164:	b344 ffff b34a ffff b34a ffff b34a ffff     D...J...J...J...
    8174:	b30a ffff b2fc ffff b2fc ffff b3cc ffff     ................
    8184:	b4a8 ffff b3cc ffff b2ca ffff b3cc ffff     ................
    8194:	b4a8 ffff b2fc ffff b2fc ffff b2ca ffff     ................
    81a4:	b4a8 ffff b30a ffff b30a ffff b30a ffff     ................
    81b4:	b2ca ffff                                   ....

000081b8 <__clz_tab>:
    81b8:	0100 0202 0303 0303 0404 0404 0404 0404     ................
    81c8:	0505 0505 0505 0505 0505 0505 0505 0505     ................
    81d8:	0606 0606 0606 0606 0606 0606 0606 0606     ................
    81e8:	0606 0606 0606 0606 0606 0606 0606 0606     ................
    81f8:	0707 0707 0707 0707 0707 0707 0707 0707     ................
    8208:	0707 0707 0707 0707 0707 0707 0707 0707     ................
    8218:	0707 0707 0707 0707 0707 0707 0707 0707     ................
    8228:	0707 0707 0707 0707 0707 0707 0707 0707     ................
    8238:	0808 0808 0808 0808 0808 0808 0808 0808     ................
    8248:	0808 0808 0808 0808 0808 0808 0808 0808     ................
    8258:	0808 0808 0808 0808 0808 0808 0808 0808     ................
    8268:	0808 0808 0808 0808 0808 0808 0808 0808     ................
    8278:	0808 0808 0808 0808 0808 0808 0808 0808     ................
    8288:	0808 0808 0808 0808 0808 0808 0808 0808     ................
    8298:	0808 0808 0808 0808 0808 0808 0808 0808     ................
    82a8:	0808 0808 0808 0808 0808 0808 0808 0808     ................

000082b8 <__sf_fake_stderr>:
	...

000082d8 <__sf_fake_stdin>:
	...

000082f8 <__sf_fake_stdout>:
	...
    8318:	2d23 2b30 0020 0000 6c68 004c 6665 4567     #-0+ ...hlL.efgE
    8328:	4746 0000 3130 3332 3534 3736 3938 4241     FG..0123456789AB
    8338:	4443 4645 0000 0000 3130 3332 3534 3736     CDEF....01234567
    8348:	3938 6261 6463 6665 0000 0000               89abcdef....
